ARM GAS  C:\Users\xhuli\AppData\Local\Temp\ccrNCJrA.s 			page 1


   1              		.syntax unified
   2              		.cpu cortex-m4
   3              		.eabi_attribute 27, 1
   4              		.fpu fpv4-sp-d16
   5              		.eabi_attribute 20, 1
   6              		.eabi_attribute 21, 1
   7              		.eabi_attribute 23, 3
   8              		.eabi_attribute 24, 1
   9              		.eabi_attribute 25, 1
  10              		.eabi_attribute 26, 1
  11              		.eabi_attribute 30, 1
  12              		.eabi_attribute 34, 1
  13              		.eabi_attribute 18, 4
  14              		.thumb
  15              		.syntax unified
  16              		.file	"BLE_Task.c"
  17              		.text
  18              	.Ltext0:
  19              		.cfi_sections	.debug_frame
  20              		.section	.text.bleInterruptNotify,"ax",%progbits
  21              		.align	2
  22              		.global	bleInterruptNotify
  23              		.thumb
  24              		.thumb_func
  25              		.type	bleInterruptNotify, %function
  26              	bleInterruptNotify:
  27              	.LFB597:
  28              		.file 1 "BLE_Task.c"
   1:BLE_Task.c    **** #include "project.h"
   2:BLE_Task.c    **** #include "FreeRTOS.h"
   3:BLE_Task.c    **** #include "semphr.h"
   4:BLE_Task.c    **** #include "task.h"
   5:BLE_Task.c    **** 
   6:BLE_Task.c    **** #include "ADC_Task.h"
   7:BLE_Task.c    **** #include "I2C_Task.h"
   8:BLE_Task.c    **** #include "BLE_Task.h"
   9:BLE_Task.c    **** 
  10:BLE_Task.c    **** #include <stdio.h>
  11:BLE_Task.c    **** #include <limits.h>
  12:BLE_Task.c    **** #include <math.h>
  13:BLE_Task.c    **** 
  14:BLE_Task.c    **** //Semaphore for the BLE FreeRTOS Task
  15:BLE_Task.c    **** SemaphoreHandle_t bleSemaphore;
  16:BLE_Task.c    **** 
  17:BLE_Task.c    **** //Buffers for BLE read service
  18:BLE_Task.c    **** static uint8_t ADC_bytes[4]; 
  19:BLE_Task.c    **** static uint8_t I2C_bytes[5];
  20:BLE_Task.c    **** 
  21:BLE_Task.c    **** //Buffers for data conversion operations
  22:BLE_Task.c    **** static uint16_t ADC_Data[1]; //ADC data
  23:BLE_Task.c    **** static uint8_t I2C_Data[3]; //I2C data
  24:BLE_Task.c    **** 
  25:BLE_Task.c    **** //Heart Rate buffers and variables
  26:BLE_Task.c    **** int num_steps = 0;
  27:BLE_Task.c    **** int beat = 0;
  28:BLE_Task.c    **** int valley = 0;
  29:BLE_Task.c    **** int possible_beat = 0;
ARM GAS  C:\Users\xhuli\AppData\Local\Temp\ccrNCJrA.s 			page 2


  30:BLE_Task.c    **** int possible_val = 0;
  31:BLE_Task.c    **** 
  32:BLE_Task.c    **** //Heart rate sample
  33:BLE_Task.c    **** float sample[SAMPLE_LENGTH] = {0};
  34:BLE_Task.c    **** 
  35:BLE_Task.c    **** 
  36:BLE_Task.c    **** /*********************************************************/
  37:BLE_Task.c    **** /*********FUNCTION FOR SAMPLING HEART RATE DATA***********/
  38:BLE_Task.c    **** /*********************************************************/
  39:BLE_Task.c    **** void fillSampleData(){
  40:BLE_Task.c    ****     printf(">>Collecting Heart Rate Data\r\n");
  41:BLE_Task.c    ****     for(int i = 0; i <= SAMPLE_LENGTH; i++){
  42:BLE_Task.c    ****         sample[i] = 0;
  43:BLE_Task.c    ****         sample[i] = ADC_GetResult16(0);
  44:BLE_Task.c    ****         vTaskDelay(10);
  45:BLE_Task.c    ****     }
  46:BLE_Task.c    **** }
  47:BLE_Task.c    **** 
  48:BLE_Task.c    **** /*********************************************************/
  49:BLE_Task.c    **** /***********FUNCTION FOR CALCULATING THE MEAN*************/
  50:BLE_Task.c    **** /*********************************************************/
  51:BLE_Task.c    **** float mean(float data[], int len) {
  52:BLE_Task.c    ****     float sum = 0.0, mean = 0.0;
  53:BLE_Task.c    ****     int i;
  54:BLE_Task.c    ****     for(i=0; i<len; ++i) {
  55:BLE_Task.c    ****         sum += data[i];
  56:BLE_Task.c    ****     }
  57:BLE_Task.c    ****     mean = sum/len;
  58:BLE_Task.c    ****     return mean;
  59:BLE_Task.c    **** }
  60:BLE_Task.c    **** 
  61:BLE_Task.c    **** /*********************************************************/
  62:BLE_Task.c    **** /******FUNCTION FOR CALCULATING STANDARD DEVIATION********/
  63:BLE_Task.c    **** /*********************************************************/
  64:BLE_Task.c    **** float stddev(float data[], int len) {
  65:BLE_Task.c    ****     float the_mean = mean(data, len);
  66:BLE_Task.c    ****     float standardDeviation = 0.0;
  67:BLE_Task.c    ****     int i;
  68:BLE_Task.c    ****     for(i=0; i<len; ++i) {
  69:BLE_Task.c    ****         standardDeviation += pow(data[i] - the_mean, 2);
  70:BLE_Task.c    ****     }
  71:BLE_Task.c    ****     return sqrt(standardDeviation/len);
  72:BLE_Task.c    **** }
  73:BLE_Task.c    **** 
  74:BLE_Task.c    **** /*********************************************************/
  75:BLE_Task.c    **** /***********FUNCTION FOR MEASURING HEART RATE*************/
  76:BLE_Task.c    **** /*********************************************************/
  77:BLE_Task.c    **** void detectPeaks(){
  78:BLE_Task.c    ****     fillSampleData();
  79:BLE_Task.c    ****     printf(">>Calculating Heart Rate\r\n");
  80:BLE_Task.c    ****     float threshold = 6;
  81:BLE_Task.c    ****     int lag = 3;
  82:BLE_Task.c    ****     bool possible_peak = false;
  83:BLE_Task.c    ****     bool possible_valley = false;
  84:BLE_Task.c    **** 
  85:BLE_Task.c    ****     float value_possible_peak = 0;
  86:BLE_Task.c    ****     float value_possible_valley = 0;
ARM GAS  C:\Users\xhuli\AppData\Local\Temp\ccrNCJrA.s 			page 3


  87:BLE_Task.c    **** 
  88:BLE_Task.c    ****     float value_peak = 0;
  89:BLE_Task.c    ****     float value_valley = 0;
  90:BLE_Task.c    ****     float avgFilter[SAMPLE_LENGTH];
  91:BLE_Task.c    ****     float stdFilter[SAMPLE_LENGTH];
  92:BLE_Task.c    **** 
  93:BLE_Task.c    ****     avgFilter[lag-1] = mean(sample, lag);
  94:BLE_Task.c    ****     stdFilter[lag-1] = stddev(sample, lag);
  95:BLE_Task.c    ****     float filteredY[SAMPLE_LENGTH];
  96:BLE_Task.c    ****     memcpy(filteredY, sample, sizeof(float) * SAMPLE_LENGTH);
  97:BLE_Task.c    ****     for(int i = lag; i<=SAMPLE_LENGTH; i++)
  98:BLE_Task.c    ****     {
  99:BLE_Task.c    ****         avgFilter[i] = mean(filteredY + i-lag+1, lag);
 100:BLE_Task.c    ****         stdFilter[i] = stddev(filteredY + i-lag+1, lag);
 101:BLE_Task.c    **** 	    if(sample[i] > sample[i-1]){
 102:BLE_Task.c    **** 	       num_steps++;
 103:BLE_Task.c    **** 		        //Looking for the valley
 104:BLE_Task.c    **** 		    if(possible_valley == false){
 105:BLE_Task.c    **** 		 	    //Potential valley has been found
 106:BLE_Task.c    **** 		        possible_valley = true; 
 107:BLE_Task.c    **** 		 	    value_possible_valley = sample[i-1];
 108:BLE_Task.c    ****                 possible_val++;
 109:BLE_Task.c    **** 		        }
 110:BLE_Task.c    **** 	    else {
 111:BLE_Task.c    **** 		    //Looking for the peak
 112:BLE_Task.c    **** 		    if(num_steps >= threshold && fabsf(sample[i] - avgFilter[i-1]) > threshold * stdFilter[i-1]){
 113:BLE_Task.c    **** 			    //Potential peak has been found
 114:BLE_Task.c    **** 			    possible_peak = true;
 115:BLE_Task.c    **** 			    value_possible_peak = sample[i-1];
 116:BLE_Task.c    ****                 possible_beat++;
 117:BLE_Task.c    **** 		    } 
 118:BLE_Task.c    **** 
 119:BLE_Task.c    **** 		    else {
 120:BLE_Task.c    **** 			    //Updating potential valley
 121:BLE_Task.c    **** 			    if(possible_valley == true){
 122:BLE_Task.c    **** 				    if(sample[i] <= value_possible_valley){
 123:BLE_Task.c    **** 				    value_possible_valley = sample[i];
 124:BLE_Task.c    ****                     possible_val++;
 125:BLE_Task.c    **** 				    }
 126:BLE_Task.c    **** 			    }
 127:BLE_Task.c    **** 			    //Peak has been found
 128:BLE_Task.c    **** 		        if(possible_peak == true){
 129:BLE_Task.c    **** 				    //Updating peak information
 130:BLE_Task.c    **** 		  	        if(sample[i-1] > value_possible_peak || sample[i] > avgFilter[i-1]){
 131:BLE_Task.c    **** 			        value_peak = sample[i-1];
 132:BLE_Task.c    ****                     beat++;
 133:BLE_Task.c    **** 			    } 
 134:BLE_Task.c    **** 			
 135:BLE_Task.c    **** 			    else {
 136:BLE_Task.c    ****                     beat++;
 137:BLE_Task.c    **** 			        value_peak = value_possible_peak;
 138:BLE_Task.c    **** 			        }
 139:BLE_Task.c    **** 		        }
 140:BLE_Task.c    **** 			    //Valley has been found
 141:BLE_Task.c    **** 		        if(possible_valley == true){
 142:BLE_Task.c    **** 				    //Updating valley information
 143:BLE_Task.c    **** 		            value_valley = value_possible_valley;
ARM GAS  C:\Users\xhuli\AppData\Local\Temp\ccrNCJrA.s 			page 4


 144:BLE_Task.c    **** 		            possible_valley = false;
 145:BLE_Task.c    ****                     valley++;
 146:BLE_Task.c    **** 		        }
 147:BLE_Task.c    **** 			    //Updating threshold
 148:BLE_Task.c    **** 		        threshold = 0.6 * num_steps;
 149:BLE_Task.c    **** 		        possible_peak = false;
 150:BLE_Task.c    ****                 filteredY[i] = 0.1 * sample[i] + (1 - 0.1) * filteredY[i-1];
 151:BLE_Task.c    ****                 avgFilter[i] = mean(filteredY + i-lag+1, lag);
 152:BLE_Task.c    **** 		    }
 153:BLE_Task.c    **** 	    }
 154:BLE_Task.c    **** 	    //Resetting number of steps
 155:BLE_Task.c    **** 	    num_steps = 0;
 156:BLE_Task.c    ****         }
 157:BLE_Task.c    ****         }
 158:BLE_Task.c    ****     
 159:BLE_Task.c    **** printf("Peaks:                  %d \r\n", beat);
 160:BLE_Task.c    **** printf("Possible Peaks:         %d \r\n", possible_beat);
 161:BLE_Task.c    **** printf("Estimated Heart Rate:   %d \r\n", 7*beat);
 162:BLE_Task.c    **** }
 163:BLE_Task.c    **** 
 164:BLE_Task.c    **** /*********************************************************/
 165:BLE_Task.c    **** /*******FUNCTION FOR INITIALIZING PSOC COMPONENTS*********/
 166:BLE_Task.c    **** /*********************************************************/
 167:BLE_Task.c    **** void Init_Components(){
 168:BLE_Task.c    ****     ADC_Start();
 169:BLE_Task.c    ****     UART_Start();
 170:BLE_Task.c    ****     ADC_StartConvert();
 171:BLE_Task.c    ****     I2C_Start();
 172:BLE_Task.c    ****     printf(">>Components Initialized!\r\n");
 173:BLE_Task.c    **** }
 174:BLE_Task.c    **** 
 175:BLE_Task.c    **** /*********************************************************/
 176:BLE_Task.c    **** /*****FUNCTION FOR FETCHING TEMPERATURE THROUGH I2C*******/
 177:BLE_Task.c    **** /*********************************************************/
 178:BLE_Task.c    **** float getTemperature(){
 179:BLE_Task.c    ****     float raw = 0;
 180:BLE_Task.c    ****     float raw2 = 0;
 181:BLE_Task.c    ****     
 182:BLE_Task.c    ****     Cy_SCB_I2C_MasterSendStart(I2C_HW, sensorAddress, CY_SCB_I2C_WRITE_XFER, 0, &I2C_context);
 183:BLE_Task.c    ****     Cy_SCB_I2C_MasterWriteByte(I2C_HW, MAX30205_TEMPERATURE, 0, &I2C_context);
 184:BLE_Task.c    ****     Cy_SCB_I2C_MasterSendReStart(I2C_HW, sensorAddress, CY_SCB_I2C_READ_XFER, 0, &I2C_context);
 185:BLE_Task.c    ****     
 186:BLE_Task.c    ****     for(uint i = 0; i<sizeof(I2C_Data)-1; i++ ){
 187:BLE_Task.c    ****         Cy_SCB_I2C_MasterReadByte(I2C_HW, CY_SCB_I2C_ACK, &I2C_Data[i], 0, &I2C_context);
 188:BLE_Task.c    ****         raw = I2C_Data[0]; 
 189:BLE_Task.c    ****         raw2 = I2C_Data[1] * 0.00390625;
 190:BLE_Task.c    ****         temperature = raw + raw2;
 191:BLE_Task.c    ****     }
 192:BLE_Task.c    ****     
 193:BLE_Task.c    ****     Cy_SCB_I2C_MasterReadByte(I2C_HW, CY_SCB_I2C_NAK, &I2C_Data[sizeof(I2C_Data)], 0, &I2C_context)
 194:BLE_Task.c    ****     Cy_SCB_I2C_MasterSendStop(I2C_HW, 0, &I2C_context);
 195:BLE_Task.c    ****     
 196:BLE_Task.c    ****     return temperature;
 197:BLE_Task.c    **** }
 198:BLE_Task.c    **** 
 199:BLE_Task.c    **** /*********************************************************/
 200:BLE_Task.c    **** /*******FUNCTION FOR TX TEMPERATURE DATA OVER BLE*********/
ARM GAS  C:\Users\xhuli\AppData\Local\Temp\ccrNCJrA.s 			page 5


 201:BLE_Task.c    **** /*********************************************************/
 202:BLE_Task.c    **** void sendTempData()
 203:BLE_Task.c    **** {
 204:BLE_Task.c    ****     cy_stc_ble_gatt_handle_value_pair_t serviceHandle;
 205:BLE_Task.c    ****     serviceHandle.attrHandle = CY_BLE_TEMPERATURE_TEMPERATURE_CHAR_HANDLE;
 206:BLE_Task.c    ****     
 207:BLE_Task.c    ****     char tempChar[5];
 208:BLE_Task.c    ****     
 209:BLE_Task.c    ****     sprintf(tempChar, "%f", getTemperature());
 210:BLE_Task.c    ****     
 211:BLE_Task.c    ****     for(uint i = 0; i<sizeof(I2C_bytes); i++)
 212:BLE_Task.c    ****     {
 213:BLE_Task.c    ****     I2C_bytes[i] = tempChar[i];
 214:BLE_Task.c    ****     }
 215:BLE_Task.c    ****     
 216:BLE_Task.c    ****     serviceHandle.value.len = sizeof(I2C_bytes);
 217:BLE_Task.c    ****     serviceHandle.value.val = (uint8_t*) &I2C_bytes;
 218:BLE_Task.c    ****     
 219:BLE_Task.c    ****     Cy_BLE_GATTS_WriteAttributeValueLocal(&serviceHandle);
 220:BLE_Task.c    **** }
 221:BLE_Task.c    **** 
 222:BLE_Task.c    **** /*********************************************************/
 223:BLE_Task.c    **** /*********FUNCTION FOR ADC DATA TRANSFER OVER BLE*********/
 224:BLE_Task.c    **** /*********************************************************/
 225:BLE_Task.c    **** void writeRefValue(){
 226:BLE_Task.c    ****     //Value pair for the BLE service
 227:BLE_Task.c    ****     cy_stc_ble_gatt_handle_value_pair_t serviceHandle;
 228:BLE_Task.c    ****     
 229:BLE_Task.c    ****     //Attribute to read
 230:BLE_Task.c    ****     serviceHandle.attrHandle = CY_BLE_ADCVAL_ADC_CHAR_HANDLE;
 231:BLE_Task.c    ****     //ADC Value
 232:BLE_Task.c    ****     ADC_Data[0] = ADC_GetResult16(0);
 233:BLE_Task.c    ****     //String for conversion
 234:BLE_Task.c    ****     char charVal[5];
 235:BLE_Task.c    ****     //Conversion of 16 bits decimal number (Decimal to ASCII)
 236:BLE_Task.c    ****     sprintf(charVal, "%d", ADC_Data[0]);
 237:BLE_Task.c    ****     //Passing each ASCII character to 8-bit unsigned integer 
 238:BLE_Task.c    ****     for (int i = 0; i<(int)sizeof(ADC_bytes);i++)
 239:BLE_Task.c    ****     {
 240:BLE_Task.c    ****     ADC_bytes[i] = charVal[i];
 241:BLE_Task.c    ****     }
 242:BLE_Task.c    ****     //Assigning buffer to packet sent over BLE
 243:BLE_Task.c    ****     serviceHandle.value.len = sizeof(ADC_bytes);
 244:BLE_Task.c    ****     serviceHandle.value.val = (uint8_t*) &ADC_bytes;
 245:BLE_Task.c    ****     //Updating local GATT database
 246:BLE_Task.c    ****     Cy_BLE_GATTS_WriteAttributeValueLocal(&serviceHandle);
 247:BLE_Task.c    **** }
 248:BLE_Task.c    **** 
 249:BLE_Task.c    **** /*********************************************************/
 250:BLE_Task.c    **** /************FUNCTION FOR LED SDI SIGNAL SHIFT************/
 251:BLE_Task.c    **** /*********************************************************/
 252:BLE_Task.c    **** void shiftOut(uint16_t ulBitOrder, uint16_t ulVal)
 253:BLE_Task.c    ****     {
 254:BLE_Task.c    ****         uint8_t i;
 255:BLE_Task.c    ****         uint16_t mask_MSB = 0x8000; // 1...(15)0
 256:BLE_Task.c    ****         uint16_t mask_LSB = 0x0001; // 0(15)... 1
 257:BLE_Task.c    ****         
ARM GAS  C:\Users\xhuli\AppData\Local\Temp\ccrNCJrA.s 			page 6


 258:BLE_Task.c    ****         //To keep LEDs off while shifting into register
 259:BLE_Task.c    ****         Cy_GPIO_Set(OE_PORT, OE_NUM);
 260:BLE_Task.c    ****         bool output = false;
 261:BLE_Task.c    ****         for (i = 0; i < 16; i++)
 262:BLE_Task.c    ****         {         
 263:BLE_Task.c    ****             if (ulBitOrder == 1){               
 264:BLE_Task.c    ****                 output = ulVal & mask_MSB;
 265:BLE_Task.c    ****                 ulVal = ulVal << 1;
 266:BLE_Task.c    ****             }
 267:BLE_Task.c    ****             else{               
 268:BLE_Task.c    ****                 output = ulVal & mask_LSB; 
 269:BLE_Task.c    ****                 ulVal = ulVal >> 1;
 270:BLE_Task.c    ****             }
 271:BLE_Task.c    ****             Cy_GPIO_Set(CLK_PORT, CLK_NUM);
 272:BLE_Task.c    ****             Cy_GPIO_Write(SDI_Port, SDI_Num, output);
 273:BLE_Task.c    ****             Cy_SysLib_Delay(1);
 274:BLE_Task.c    ****             Cy_GPIO_Clr(CLK_PORT, CLK_NUM);
 275:BLE_Task.c    ****           }
 276:BLE_Task.c    ****     }
 277:BLE_Task.c    **** 
 278:BLE_Task.c    **** /*********************************************************/
 279:BLE_Task.c    **** /*****FUNCTION FOR ENABLING LEDS OF DIFFERENT COLORS******/
 280:BLE_Task.c    **** /*********************************************************/
 281:BLE_Task.c    **** void enableLED(uint8_t LedNo){
 282:BLE_Task.c    ****         printf(">>Starting LED register shifting! \n\r");
 283:BLE_Task.c    ****         Cy_GPIO_Clr(LE_PORT, LE_NUM);
 284:BLE_Task.c    ****         Cy_GPIO_Clr(CLK_PORT, CLK_NUM);
 285:BLE_Task.c    ****         //To keep LEDs off while shifting into register
 286:BLE_Task.c    ****         Cy_GPIO_Set(OE_PORT, OE_NUM); 
 287:BLE_Task.c    ****         
 288:BLE_Task.c    ****         if(LedNo == 1){
 289:BLE_Task.c    ****             shiftOut(0, RED);
 290:BLE_Task.c    ****         }
 291:BLE_Task.c    ****         else if (LedNo == 2){           
 292:BLE_Task.c    ****             shiftOut(0, GREEN);
 293:BLE_Task.c    ****         }
 294:BLE_Task.c    ****         else if (LedNo == 3){
 295:BLE_Task.c    ****             shiftOut(0, IR);           
 296:BLE_Task.c    ****         }     
 297:BLE_Task.c    ****         Cy_GPIO_Set(LE_PORT, LE_NUM);
 298:BLE_Task.c    ****         Cy_GPIO_Clr(LE_Port, LE_Num);
 299:BLE_Task.c    ****         Cy_GPIO_Clr(OE_PORT, OE_NUM);
 300:BLE_Task.c    ****         
 301:BLE_Task.c    ****         printf(">>LED Enabled Successfully! \n\r");
 302:BLE_Task.c    ****     }
 303:BLE_Task.c    **** 
 304:BLE_Task.c    **** /*********************************************************/
 305:BLE_Task.c    **** /*********CALLBACK FUNCTION BLE SERVICE HANDLING**********/
 306:BLE_Task.c    **** /*********************************************************/
 307:BLE_Task.c    **** void callback(uint32_t event, void *eventParam)
 308:BLE_Task.c    **** {
 309:BLE_Task.c    ****     cy_stc_ble_gatts_write_cmd_req_param_t  *writeReqParameter;
 310:BLE_Task.c    ****     switch (event)
 311:BLE_Task.c    ****     {
 312:BLE_Task.c    ****         case CY_BLE_EVT_STACK_ON:
 313:BLE_Task.c    ****         printf(">>Start advertising\r\n");
 314:BLE_Task.c    ****         Cy_BLE_GAPP_StartAdvertisement(CY_BLE_ADVERTISING_FAST, CY_BLE_PERIPHERAL_CONFIGURATION_0_I
ARM GAS  C:\Users\xhuli\AppData\Local\Temp\ccrNCJrA.s 			page 7


 315:BLE_Task.c    ****         break;
 316:BLE_Task.c    ****         
 317:BLE_Task.c    ****         case CY_BLE_EVT_GAP_DEVICE_DISCONNECTED:
 318:BLE_Task.c    ****             printf(">>Device disconnected!\r\n");
 319:BLE_Task.c    ****             Cy_GPIO_Set(OE_PORT, OE_NUM); //turn off the led when disconnected
 320:BLE_Task.c    ****             Cy_BLE_GAPP_StartAdvertisement(CY_BLE_ADVERTISING_FAST, CY_BLE_PERIPHERAL_CONFIGURATION
 321:BLE_Task.c    ****             printf(">>Start advertising!\r\n");
 322:BLE_Task.c    ****             break;
 323:BLE_Task.c    ****             
 324:BLE_Task.c    ****         case CY_BLE_EVT_GATT_CONNECT_IND:
 325:BLE_Task.c    ****             printf(">>Device connected!\r\n");
 326:BLE_Task.c    ****         break;
 327:BLE_Task.c    ****             
 328:BLE_Task.c    ****         case CY_BLE_EVT_GATTS_WRITE_REQ:
 329:BLE_Task.c    ****             
 330:BLE_Task.c    ****             writeReqParameter = (cy_stc_ble_gatts_write_cmd_req_param_t *)eventParam;
 331:BLE_Task.c    ****             
 332:BLE_Task.c    ****             if(CY_BLE_LED_CHANGE_LED_CHAR_HANDLE == writeReqParameter->handleValPair.attrHandle)
 333:BLE_Task.c    ****             {
 334:BLE_Task.c    ****                 uint8_t val = writeReqParameter->handleValPair.value.val[0];
 335:BLE_Task.c    **** 
 336:BLE_Task.c    ****                 if(val==49) 
 337:BLE_Task.c    ****                 {
 338:BLE_Task.c    ****                     val=1;
 339:BLE_Task.c    ****                     enableLED(val);
 340:BLE_Task.c    ****                     vTaskDelay(100);                
 341:BLE_Task.c    ****                     detectPeaks();
 342:BLE_Task.c    ****                 }
 343:BLE_Task.c    ****                 else if(val==50) 
 344:BLE_Task.c    ****                 {
 345:BLE_Task.c    ****                     val=2;
 346:BLE_Task.c    ****                     enableLED(val); 
 347:BLE_Task.c    ****                     vTaskDelay(100);
 348:BLE_Task.c    ****                     detectPeaks();
 349:BLE_Task.c    ****                 }
 350:BLE_Task.c    ****                 else if (val == 51) {
 351:BLE_Task.c    ****                     val = 3;
 352:BLE_Task.c    ****                     enableLED(val); 
 353:BLE_Task.c    ****                     vTaskDelay(100);
 354:BLE_Task.c    ****                     detectPeaks();
 355:BLE_Task.c    ****                 }
 356:BLE_Task.c    ****                 else writeRefValue();
 357:BLE_Task.c    ****             }
 358:BLE_Task.c    ****             Cy_BLE_GATTS_WriteRsp(writeReqParameter->connHandle);
 359:BLE_Task.c    ****             break;
 360:BLE_Task.c    ****         default:
 361:BLE_Task.c    ****             sendTempData();
 362:BLE_Task.c    ****             writeRefValue();
 363:BLE_Task.c    ****             break;
 364:BLE_Task.c    ****     }
 365:BLE_Task.c    **** 
 366:BLE_Task.c    **** }
 367:BLE_Task.c    ****     
 368:BLE_Task.c    **** void bleInterruptNotify(){
  29              		.loc 1 368 0
  30              		.cfi_startproc
  31              		@ args = 0, pretend = 0, frame = 8
ARM GAS  C:\Users\xhuli\AppData\Local\Temp\ccrNCJrA.s 			page 8


  32              		@ frame_needed = 0, uses_anonymous_args = 0
  33 0000 00B5     		push	{lr}
  34              		.cfi_def_cfa_offset 4
  35              		.cfi_offset 14, -4
  36 0002 83B0     		sub	sp, sp, #12
  37              		.cfi_def_cfa_offset 16
 369:BLE_Task.c    ****     BaseType_t xHigherPriorityTaskWoken;
 370:BLE_Task.c    ****     xHigherPriorityTaskWoken = pdFALSE;
  38              		.loc 1 370 0
  39 0004 02A9     		add	r1, sp, #8
  40 0006 0023     		movs	r3, #0
  41 0008 41F8043D 		str	r3, [r1, #-4]!
 371:BLE_Task.c    ****     xSemaphoreGiveFromISR(bleSemaphore, &xHigherPriorityTaskWoken);
  42              		.loc 1 371 0
  43 000c 084B     		ldr	r3, .L4
  44 000e 1868     		ldr	r0, [r3]
  45 0010 FFF7FEFF 		bl	xQueueGiveFromISR
  46              	.LVL0:
 372:BLE_Task.c    ****     portYIELD_FROM_ISR(xHigherPriorityTaskWoken);
  47              		.loc 1 372 0
  48 0014 019B     		ldr	r3, [sp, #4]
  49 0016 3BB1     		cbz	r3, .L1
  50              		.loc 1 372 0 is_stmt 0 discriminator 1
  51 0018 4FF08052 		mov	r2, #268435456
  52 001c 054B     		ldr	r3, .L4+4
  53 001e 1A60     		str	r2, [r3]
  54              		.syntax unified
  55              	@ 372 "BLE_Task.c" 1
  56 0020 BFF34F8F 		dsb
  57              	@ 0 "" 2
  58              	@ 372 "BLE_Task.c" 1
  59 0024 BFF36F8F 		isb
  60              	@ 0 "" 2
  61              		.thumb
  62              		.syntax unified
  63              	.L1:
 373:BLE_Task.c    **** }
  64              		.loc 1 373 0 is_stmt 1
  65 0028 03B0     		add	sp, sp, #12
  66              		.cfi_def_cfa_offset 4
  67              		@ sp needed
  68 002a 5DF804FB 		ldr	pc, [sp], #4
  69              	.L5:
  70 002e 00BF     		.align	2
  71              	.L4:
  72 0030 00000000 		.word	bleSemaphore
  73 0034 04ED00E0 		.word	-536810236
  74              		.cfi_endproc
  75              	.LFE597:
  76              		.size	bleInterruptNotify, .-bleInterruptNotify
  77              		.section	.text.fillSampleData,"ax",%progbits
  78              		.align	2
  79              		.global	fillSampleData
  80              		.thumb
  81              		.thumb_func
  82              		.type	fillSampleData, %function
  83              	fillSampleData:
ARM GAS  C:\Users\xhuli\AppData\Local\Temp\ccrNCJrA.s 			page 9


  84              	.LFB586:
  39:BLE_Task.c    ****     printf(">>Collecting Heart Rate Data\r\n");
  85              		.loc 1 39 0
  86              		.cfi_startproc
  87              		@ args = 0, pretend = 0, frame = 0
  88              		@ frame_needed = 0, uses_anonymous_args = 0
  89 0000 10B5     		push	{r4, lr}
  90              		.cfi_def_cfa_offset 8
  91              		.cfi_offset 4, -8
  92              		.cfi_offset 14, -4
  40:BLE_Task.c    ****     for(int i = 0; i <= SAMPLE_LENGTH; i++){
  93              		.loc 1 40 0
  94 0002 1648     		ldr	r0, .L11
  95 0004 FFF7FEFF 		bl	puts
  96              	.LVL1:
  97              	.LBB28:
  41:BLE_Task.c    ****         sample[i] = 0;
  98              		.loc 1 41 0
  99 0008 0024     		movs	r4, #0
 100 000a 23E0     		b	.L7
 101              	.LVL2:
 102              	.L9:
  42:BLE_Task.c    ****         sample[i] = ADC_GetResult16(0);
 103              		.loc 1 42 0 discriminator 3
 104 000c 144B     		ldr	r3, .L11+4
 105 000e 03EB8403 		add	r3, r3, r4, lsl #2
 106 0012 0022     		movs	r2, #0
 107 0014 1A60     		str	r2, [r3]	@ float
 108              	.LVL3:
 109              	.LBB29:
 110              	.LBB30:
 111              		.file 2 "Generated_Source\\PSoC6/ADC.h"
   1:Generated_Source\PSoC6/ADC.h **** /***************************************************************************//**
   2:Generated_Source\PSoC6/ADC.h **** * \file     ADC.h
   3:Generated_Source\PSoC6/ADC.h **** * \version  3.10
   4:Generated_Source\PSoC6/ADC.h **** *
   5:Generated_Source\PSoC6/ADC.h **** * \brief
   6:Generated_Source\PSoC6/ADC.h **** * Provides the source code to the API for the ADC Component.
   7:Generated_Source\PSoC6/ADC.h **** *
   8:Generated_Source\PSoC6/ADC.h **** ********************************************************************************
   9:Generated_Source\PSoC6/ADC.h **** * \copyright
  10:Generated_Source\PSoC6/ADC.h **** * (c) 2017-2018, Cypress Semiconductor Corporation. All rights reserved.
  11:Generated_Source\PSoC6/ADC.h **** * This software, including source code, documentation and related
  12:Generated_Source\PSoC6/ADC.h **** * materials ("Software"), is owned by Cypress Semiconductor
  13:Generated_Source\PSoC6/ADC.h **** * Corporation ("Cypress") and is protected by and subject to worldwide
  14:Generated_Source\PSoC6/ADC.h **** * patent protection (United States and foreign), United States copyright
  15:Generated_Source\PSoC6/ADC.h **** * laws and international treaty provisions. Therefore, you may use this
  16:Generated_Source\PSoC6/ADC.h **** * Software only as provided in the license agreement accompanying the
  17:Generated_Source\PSoC6/ADC.h **** * software package from which you obtained this Software ("EULA").
  18:Generated_Source\PSoC6/ADC.h **** * If no EULA applies, Cypress hereby grants you a personal, nonexclusive,
  19:Generated_Source\PSoC6/ADC.h **** * non-transferable license to copy, modify, and compile the
  20:Generated_Source\PSoC6/ADC.h **** * Software source code solely for use in connection with Cypress's
  21:Generated_Source\PSoC6/ADC.h **** * integrated circuit products. Any reproduction, modification, translation,
  22:Generated_Source\PSoC6/ADC.h **** * compilation, or representation of this Software except as specified
  23:Generated_Source\PSoC6/ADC.h **** * above is prohibited without the express written permission of Cypress.
  24:Generated_Source\PSoC6/ADC.h **** * Disclaimer: THIS SOFTWARE IS PROVIDED AS-IS, WITH NO
  25:Generated_Source\PSoC6/ADC.h **** * WARRANTY OF ANY KIND, EXPRESS OR IMPLIED, INCLUDING,
ARM GAS  C:\Users\xhuli\AppData\Local\Temp\ccrNCJrA.s 			page 10


  26:Generated_Source\PSoC6/ADC.h **** * BUT NOT LIMITED TO, NONINFRINGEMENT, IMPLIED
  27:Generated_Source\PSoC6/ADC.h **** * WARRANTIES OF MERCHANTABILITY AND FITNESS FOR A
  28:Generated_Source\PSoC6/ADC.h **** * PARTICULAR PURPOSE. Cypress reserves the right to make
  29:Generated_Source\PSoC6/ADC.h **** * changes to the Software without notice. Cypress does not assume any
  30:Generated_Source\PSoC6/ADC.h **** * liability arising out of the application or use of the Software or any
  31:Generated_Source\PSoC6/ADC.h **** * product or circuit described in the Software. Cypress does not
  32:Generated_Source\PSoC6/ADC.h **** * authorize its products for use in any products where a malfunction or
  33:Generated_Source\PSoC6/ADC.h **** * failure of the Cypress product may reasonably be expected to result in
  34:Generated_Source\PSoC6/ADC.h **** * significant property damage, injury or death ("High Risk Product"). By
  35:Generated_Source\PSoC6/ADC.h **** * including Cypress's product in a High Risk Product, the manufacturer
  36:Generated_Source\PSoC6/ADC.h **** * of such system or application assumes all risk of such use and in doing
  37:Generated_Source\PSoC6/ADC.h **** * so agrees to indemnify Cypress against all liability.
  38:Generated_Source\PSoC6/ADC.h **** *******************************************************************************/
  39:Generated_Source\PSoC6/ADC.h **** #if !defined(CY_ADC_H)
  40:Generated_Source\PSoC6/ADC.h **** #define CY_ADC_H
  41:Generated_Source\PSoC6/ADC.h **** 
  42:Generated_Source\PSoC6/ADC.h **** #include <cy_device_headers.h>
  43:Generated_Source\PSoC6/ADC.h **** #include <sar/cy_sar.h>
  44:Generated_Source\PSoC6/ADC.h **** 
  45:Generated_Source\PSoC6/ADC.h **** #define ADC_VREF_ROUTED                  ((0) == 1u)
  46:Generated_Source\PSoC6/ADC.h **** #if (ADC_VREF_ROUTED)
  47:Generated_Source\PSoC6/ADC.h **** #include "ADC_vrefAMux.h"
  48:Generated_Source\PSoC6/ADC.h **** #endif
  49:Generated_Source\PSoC6/ADC.h **** 
  50:Generated_Source\PSoC6/ADC.h **** #define ADC_CLOCK_INTERNAL               ((1) == 1u)
  51:Generated_Source\PSoC6/ADC.h **** #if (ADC_CLOCK_INTERNAL)
  52:Generated_Source\PSoC6/ADC.h **** #include "ADC_intSarClock.h"
  53:Generated_Source\PSoC6/ADC.h **** #endif /* ADC_CLOCK_INTERNAL */
  54:Generated_Source\PSoC6/ADC.h **** 
  55:Generated_Source\PSoC6/ADC.h **** /**
  56:Generated_Source\PSoC6/ADC.h **** * \addtogroup group_structures
  57:Generated_Source\PSoC6/ADC.h **** *
  58:Generated_Source\PSoC6/ADC.h **** */
  59:Generated_Source\PSoC6/ADC.h **** typedef struct
  60:Generated_Source\PSoC6/ADC.h **** {
  61:Generated_Source\PSoC6/ADC.h ****     uint32_t channelBase;                   /* Start of channels for the configuration */
  62:Generated_Source\PSoC6/ADC.h ****     uint32_t numChannels;                   /* Number of channels in the configuration */
  63:Generated_Source\PSoC6/ADC.h ****     const cy_stc_sar_config_t *hwConfigStc; /* PDL structure */
  64:Generated_Source\PSoC6/ADC.h ****     uint32_t miscConfig;                    /* Miscellaneous configuration bits broken down as foll
  65:Generated_Source\PSoC6/ADC.h ****                                             [0] - Freerunning: Set if the sample mode is freerunnin
  66:Generated_Source\PSoC6/ADC.h ****                                             [2] - Mux Switch 0: Set when VSSA is used for the neg i
  67:Generated_Source\PSoC6/ADC.h ****                                             */
  68:Generated_Source\PSoC6/ADC.h **** #if (ADC_CLOCK_INTERNAL)
  69:Generated_Source\PSoC6/ADC.h ****     uint32_t clkDivider;                    /* Clock divider */
  70:Generated_Source\PSoC6/ADC.h **** #endif /* ADC_CLOCK_INTERNAL */
  71:Generated_Source\PSoC6/ADC.h **** 
  72:Generated_Source\PSoC6/ADC.h **** } ADC_CONFIG_STRUCT;
  73:Generated_Source\PSoC6/ADC.h **** /** @} structures */
  74:Generated_Source\PSoC6/ADC.h **** 
  75:Generated_Source\PSoC6/ADC.h **** /*******************************************************************************
  76:Generated_Source\PSoC6/ADC.h **** * Function Prototypes
  77:Generated_Source\PSoC6/ADC.h **** *******************************************************************************/
  78:Generated_Source\PSoC6/ADC.h **** void ADC_SelectConfig(uint32_t config, uint32_t restart);
  79:Generated_Source\PSoC6/ADC.h **** void ADC_InitConfig(const ADC_CONFIG_STRUCT *config);
  80:Generated_Source\PSoC6/ADC.h **** void ADC_Init(void);
  81:Generated_Source\PSoC6/ADC.h **** __STATIC_INLINE void ADC_Enable(void);
  82:Generated_Source\PSoC6/ADC.h **** 
ARM GAS  C:\Users\xhuli\AppData\Local\Temp\ccrNCJrA.s 			page 11


  83:Generated_Source\PSoC6/ADC.h **** /**
  84:Generated_Source\PSoC6/ADC.h **** * \addtogroup group_general
  85:Generated_Source\PSoC6/ADC.h **** * @{
  86:Generated_Source\PSoC6/ADC.h **** */
  87:Generated_Source\PSoC6/ADC.h **** void ADC_Start(void);
  88:Generated_Source\PSoC6/ADC.h **** void ADC_StartEx(cy_israddress userIsr);
  89:Generated_Source\PSoC6/ADC.h **** __STATIC_INLINE void ADC_Stop(void);
  90:Generated_Source\PSoC6/ADC.h **** void ADC_StartConvert(void);
  91:Generated_Source\PSoC6/ADC.h **** __STATIC_INLINE void ADC_StopConvert(void);
  92:Generated_Source\PSoC6/ADC.h **** void ADC_SetConvertMode(cy_en_sar_start_convert_sel_t mode);
  93:Generated_Source\PSoC6/ADC.h **** void ADC_SetEosMask(uint32_t mask);
  94:Generated_Source\PSoC6/ADC.h **** uint32_t ADC_IsEndConversion(cy_en_sar_return_mode_t retMode);
  95:Generated_Source\PSoC6/ADC.h **** __STATIC_INLINE int16_t ADC_GetResult16(uint32_t chan);
  96:Generated_Source\PSoC6/ADC.h **** __STATIC_INLINE int32_t ADC_GetResult32(uint32_t chan);
  97:Generated_Source\PSoC6/ADC.h **** __STATIC_INLINE void ADC_SetLowLimit(uint32_t lowLimit);
  98:Generated_Source\PSoC6/ADC.h **** __STATIC_INLINE void ADC_SetHighLimit(uint32_t highLimit);
  99:Generated_Source\PSoC6/ADC.h **** __STATIC_INLINE void ADC_SetLimitMask(uint32_t limitMask);
 100:Generated_Source\PSoC6/ADC.h **** __STATIC_INLINE void ADC_SetSatMask(uint32_t satMask);
 101:Generated_Source\PSoC6/ADC.h **** __STATIC_INLINE cy_en_sar_status_t ADC_SetOffset(uint32_t chan, int16_t offset);
 102:Generated_Source\PSoC6/ADC.h **** __STATIC_INLINE cy_en_sar_status_t ADC_SetGain(uint32_t chan, int32_t adcGain);
 103:Generated_Source\PSoC6/ADC.h **** __STATIC_INLINE float32_t ADC_CountsTo_Volts(uint32_t chan, int16_t adcCounts);
 104:Generated_Source\PSoC6/ADC.h **** __STATIC_INLINE int16_t ADC_CountsTo_mVolts(uint32_t chan, int16_t adcCounts);
 105:Generated_Source\PSoC6/ADC.h **** __STATIC_INLINE int32_t ADC_CountsTo_uVolts(uint32_t chan, int16_t adcCounts);
 106:Generated_Source\PSoC6/ADC.h **** 
 107:Generated_Source\PSoC6/ADC.h **** /** @} general */
 108:Generated_Source\PSoC6/ADC.h **** 
 109:Generated_Source\PSoC6/ADC.h **** void ADC_SetChanMask(uint32_t enableMask);
 110:Generated_Source\PSoC6/ADC.h **** 
 111:Generated_Source\PSoC6/ADC.h **** /**
 112:Generated_Source\PSoC6/ADC.h **** * \addtogroup group_power
 113:Generated_Source\PSoC6/ADC.h **** * @{
 114:Generated_Source\PSoC6/ADC.h **** */
 115:Generated_Source\PSoC6/ADC.h **** __STATIC_INLINE void ADC_Sleep(void);
 116:Generated_Source\PSoC6/ADC.h **** __STATIC_INLINE void ADC_Wakeup(void);
 117:Generated_Source\PSoC6/ADC.h **** 
 118:Generated_Source\PSoC6/ADC.h **** /** @} power */
 119:Generated_Source\PSoC6/ADC.h **** 
 120:Generated_Source\PSoC6/ADC.h **** /**
 121:Generated_Source\PSoC6/ADC.h **** * \addtogroup group_interrupt
 122:Generated_Source\PSoC6/ADC.h **** * @{
 123:Generated_Source\PSoC6/ADC.h **** */
 124:Generated_Source\PSoC6/ADC.h **** void ADC_ISR(void);
 125:Generated_Source\PSoC6/ADC.h **** void ADC_IRQ_Enable(void);
 126:Generated_Source\PSoC6/ADC.h **** void ADC_IRQ_Disable(void);
 127:Generated_Source\PSoC6/ADC.h **** 
 128:Generated_Source\PSoC6/ADC.h **** /** @} interrupt */
 129:Generated_Source\PSoC6/ADC.h **** 
 130:Generated_Source\PSoC6/ADC.h **** /*******************************************************************************
 131:Generated_Source\PSoC6/ADC.h ****                                   Parameters
 132:Generated_Source\PSoC6/ADC.h **** The parameters that are set in the customizer are redefined as constants here.
 133:Generated_Source\PSoC6/ADC.h **** *******************************************************************************/
 134:Generated_Source\PSoC6/ADC.h **** 
 135:Generated_Source\PSoC6/ADC.h **** /*  Sample Mode setting constants */
 136:Generated_Source\PSoC6/ADC.h **** #define ADC_TOTAL_CONFIGS                (1ul)
 137:Generated_Source\PSoC6/ADC.h **** 
 138:Generated_Source\PSoC6/ADC.h **** /* ************************************************************************** */
 139:Generated_Source\PSoC6/ADC.h **** /* Begin configuration 0 customizer defines                                   */
ARM GAS  C:\Users\xhuli\AppData\Local\Temp\ccrNCJrA.s 			page 12


 140:Generated_Source\PSoC6/ADC.h **** /* ************************************************************************** */
 141:Generated_Source\PSoC6/ADC.h **** 
 142:Generated_Source\PSoC6/ADC.h **** #define ADC_CFG0_SAMPLE_RATE             (500)
 143:Generated_Source\PSoC6/ADC.h **** #define ADC_CFG0_CHANNEL_BASE            (0u)
 144:Generated_Source\PSoC6/ADC.h **** #define ADC_CFG0_CHANNEL_COUNT           (1u)
 145:Generated_Source\PSoC6/ADC.h **** #define ADC_CFG0_VREF_SEL_MASK           (0x70u)
 146:Generated_Source\PSoC6/ADC.h **** #define ADC_CFG0_NOMINAL_CLOCK_FREQ      (1724137u)
 147:Generated_Source\PSoC6/ADC.h **** #define ADC_CFG0_CHANNEL_EN              (0x1u)
 148:Generated_Source\PSoC6/ADC.h **** 
 149:Generated_Source\PSoC6/ADC.h **** /* Sample Control Register */
 150:Generated_Source\PSoC6/ADC.h **** #define ADC_CFG0_SINGLE_ENDED_FORMAT     (0uL)
 151:Generated_Source\PSoC6/ADC.h **** #define ADC_CFG0_DIFFERENTIAL_FORMAT     (0uL)
 152:Generated_Source\PSoC6/ADC.h **** #define ADC_CFG0_SAMPLES_AVERAGED        (7uL)
 153:Generated_Source\PSoC6/ADC.h **** #define ADC_CFG0_RANGE_INTR_MASK         (0x0u)
 154:Generated_Source\PSoC6/ADC.h **** #define ADC_CFG0_SATURATE_INTR_MASK      (0x0u)
 155:Generated_Source\PSoC6/ADC.h **** #define ADC_CFG0_VNEG_INPUT_SEL          (7)
 156:Generated_Source\PSoC6/ADC.h **** #define ADC_CFG0_SINGLE_PRESENT          (1)
 157:Generated_Source\PSoC6/ADC.h **** #define ADC_CFG0_VREF_MV_VALUE           (3300)
 158:Generated_Source\PSoC6/ADC.h **** #define ADC_CFG0_APERTURE_TIME0          (1023uL)
 159:Generated_Source\PSoC6/ADC.h **** #define ADC_CFG0_APERTURE_TIME1          (2uL)
 160:Generated_Source\PSoC6/ADC.h **** #define ADC_CFG0_APERTURE_TIME2          (2uL)
 161:Generated_Source\PSoC6/ADC.h **** #define ADC_CFG0_APERTURE_TIME3          (2uL)
 162:Generated_Source\PSoC6/ADC.h **** #define ADC_CFG0_FREERUNNING             (1u)
 163:Generated_Source\PSoC6/ADC.h **** #define ADC_CFG0_AVGERAGING_MODE         (1uL)
 164:Generated_Source\PSoC6/ADC.h **** #define ADC_CFG0_LOW_LIMIT               (512u)
 165:Generated_Source\PSoC6/ADC.h **** #define ADC_CFG0_HIGH_LIMIT              (3584u)
 166:Generated_Source\PSoC6/ADC.h **** #define ADC_CFG0_RANGE_COND              (1uL)
 167:Generated_Source\PSoC6/ADC.h **** #define ADC_CFG0_USE_SOC                 (0uL)
 168:Generated_Source\PSoC6/ADC.h **** #define ADC_CFG0_VREF_PWR                (6uL)
 169:Generated_Source\PSoC6/ADC.h **** #define ADC_CFG0_COMP_PWR                (6uL)
 170:Generated_Source\PSoC6/ADC.h **** #define ADC_CFG0_COMP_DLY                (3uL)
 171:Generated_Source\PSoC6/ADC.h **** 
 172:Generated_Source\PSoC6/ADC.h **** /* Clock parameters*/
 173:Generated_Source\PSoC6/ADC.h **** #if (ADC_CLOCK_INTERNAL)
 174:Generated_Source\PSoC6/ADC.h ****     #define ADC_CFG0_CLOCKDIVIDER        (((CYDEV_CLK_PERICLK__HZ) / (ADC_CFG0_NOMINAL_CLOCK_FREQ))
 175:Generated_Source\PSoC6/ADC.h **** #endif /* (ADC_CLOCK_INTERNAL) */
 176:Generated_Source\PSoC6/ADC.h **** 
 177:Generated_Source\PSoC6/ADC.h **** /* ************************************************************************** */
 178:Generated_Source\PSoC6/ADC.h **** /* End configuration 0 customizer defines                                     */
 179:Generated_Source\PSoC6/ADC.h **** /* ************************************************************************** */
 180:Generated_Source\PSoC6/ADC.h **** 
 181:Generated_Source\PSoC6/ADC.h **** /* ************************************************************************** */
 182:Generated_Source\PSoC6/ADC.h **** /* Begin configuration 1 customizer defines                                   */
 183:Generated_Source\PSoC6/ADC.h **** /* ************************************************************************** */
 184:Generated_Source\PSoC6/ADC.h **** 
 185:Generated_Source\PSoC6/ADC.h **** #if(ADC_TOTAL_CONFIGS > 1)
 186:Generated_Source\PSoC6/ADC.h ****     #define ADC_CFG1_SAMPLE_RATE             ()
 187:Generated_Source\PSoC6/ADC.h ****     #define ADC_CFG1_CHANNEL_BASE            (u)
 188:Generated_Source\PSoC6/ADC.h ****     #define ADC_CFG1_CHANNEL_COUNT           (u)
 189:Generated_Source\PSoC6/ADC.h ****     #define ADC_CFG1_VREF_SEL_MASK           (u)
 190:Generated_Source\PSoC6/ADC.h ****     #define ADC_CFG1_NOMINAL_CLOCK_FREQ      (u)
 191:Generated_Source\PSoC6/ADC.h ****     #define ADC_CFG1_CHANNEL_EN              (u)
 192:Generated_Source\PSoC6/ADC.h **** 
 193:Generated_Source\PSoC6/ADC.h ****     /* Sample Control Register */
 194:Generated_Source\PSoC6/ADC.h ****     #define ADC_CFG1_SINGLE_ENDED_FORMAT     (uL)
 195:Generated_Source\PSoC6/ADC.h ****     #define ADC_CFG1_DIFFERENTIAL_FORMAT     (uL)
 196:Generated_Source\PSoC6/ADC.h ****     #define ADC_CFG1_SAMPLES_AVERAGED        (uL)
ARM GAS  C:\Users\xhuli\AppData\Local\Temp\ccrNCJrA.s 			page 13


 197:Generated_Source\PSoC6/ADC.h ****     #define ADC_CFG1_RANGE_INTR_MASK         (u)
 198:Generated_Source\PSoC6/ADC.h ****     #define ADC_CFG1_SATURATE_INTR_MASK      (u)
 199:Generated_Source\PSoC6/ADC.h ****     #define ADC_CFG1_VNEG_INPUT_SEL          ()
 200:Generated_Source\PSoC6/ADC.h ****     #define ADC_CFG1_SINGLE_PRESENT          ()
 201:Generated_Source\PSoC6/ADC.h ****     #define ADC_CFG1_VREF_MV_VALUE           ()
 202:Generated_Source\PSoC6/ADC.h ****     #define ADC_CFG1_APERTURE_TIME0          (uL)
 203:Generated_Source\PSoC6/ADC.h ****     #define ADC_CFG1_APERTURE_TIME1          (uL)
 204:Generated_Source\PSoC6/ADC.h ****     #define ADC_CFG1_APERTURE_TIME2          (uL)
 205:Generated_Source\PSoC6/ADC.h ****     #define ADC_CFG1_APERTURE_TIME3          (uL)
 206:Generated_Source\PSoC6/ADC.h ****     #define ADC_CFG1_FREERUNNING             (u)
 207:Generated_Source\PSoC6/ADC.h ****     #define ADC_CFG1_AVGERAGING_MODE         (uL)
 208:Generated_Source\PSoC6/ADC.h ****     #define ADC_CFG1_LOW_LIMIT               (u)
 209:Generated_Source\PSoC6/ADC.h ****     #define ADC_CFG1_HIGH_LIMIT              (u)
 210:Generated_Source\PSoC6/ADC.h ****     #define ADC_CFG1_RANGE_COND              (uL)
 211:Generated_Source\PSoC6/ADC.h ****     #define ADC_CFG1_USE_SOC                 (0uL)
 212:Generated_Source\PSoC6/ADC.h ****     #define ADC_CFG1_VREF_PWR                (uL)
 213:Generated_Source\PSoC6/ADC.h ****     #define ADC_CFG1_COMP_PWR                (uL)
 214:Generated_Source\PSoC6/ADC.h ****     #define ADC_CFG1_COMP_DLY                (uL)
 215:Generated_Source\PSoC6/ADC.h **** 
 216:Generated_Source\PSoC6/ADC.h ****     /* Clock parameters*/
 217:Generated_Source\PSoC6/ADC.h ****     #if (ADC_CLOCK_INTERNAL)
 218:Generated_Source\PSoC6/ADC.h ****         #define ADC_CFG1_CLOCKDIVIDER        (((CYDEV_CLK_PERICLK__HZ) / (ADC_CFG1_NOMINAL_CLOCK_FR
 219:Generated_Source\PSoC6/ADC.h ****     #endif /* (ADC_CLOCK_INTERNAL) */
 220:Generated_Source\PSoC6/ADC.h **** #endif /* #if(ADC_TOTAL_CONFIGS > 1) */
 221:Generated_Source\PSoC6/ADC.h **** 
 222:Generated_Source\PSoC6/ADC.h **** /* ************************************************************************** */
 223:Generated_Source\PSoC6/ADC.h **** /* End configuration 1 customizer defines                                     */
 224:Generated_Source\PSoC6/ADC.h **** /* ************************************************************************** */
 225:Generated_Source\PSoC6/ADC.h **** 
 226:Generated_Source\PSoC6/ADC.h **** /* ************************************************************************** */
 227:Generated_Source\PSoC6/ADC.h **** /* Begin configuration 2 customizer defines                                         */
 228:Generated_Source\PSoC6/ADC.h **** /* ************************************************************************** */
 229:Generated_Source\PSoC6/ADC.h **** 
 230:Generated_Source\PSoC6/ADC.h **** #if(ADC_TOTAL_CONFIGS > 2)
 231:Generated_Source\PSoC6/ADC.h ****     #define ADC_CFG2_SAMPLE_RATE             ()
 232:Generated_Source\PSoC6/ADC.h ****     #define ADC_CFG2_CHANNEL_BASE            (u)
 233:Generated_Source\PSoC6/ADC.h ****     #define ADC_CFG2_CHANNEL_COUNT           (u)
 234:Generated_Source\PSoC6/ADC.h ****     #define ADC_CFG2_VREF_SEL_MASK           (u)
 235:Generated_Source\PSoC6/ADC.h ****     #define ADC_CFG2_NOMINAL_CLOCK_FREQ      (u)
 236:Generated_Source\PSoC6/ADC.h ****     #define ADC_CFG2_CHANNEL_EN              (u)
 237:Generated_Source\PSoC6/ADC.h **** 
 238:Generated_Source\PSoC6/ADC.h ****     /* Sample Control Register */
 239:Generated_Source\PSoC6/ADC.h ****     #define ADC_CFG2_SINGLE_ENDED_FORMAT     (uL)
 240:Generated_Source\PSoC6/ADC.h ****     #define ADC_CFG2_DIFFERENTIAL_FORMAT     (uL)
 241:Generated_Source\PSoC6/ADC.h ****     #define ADC_CFG2_SAMPLES_AVERAGED        (uL)
 242:Generated_Source\PSoC6/ADC.h ****     #define ADC_CFG2_RANGE_INTR_MASK         (u)
 243:Generated_Source\PSoC6/ADC.h ****     #define ADC_CFG2_SATURATE_INTR_MASK      (u)
 244:Generated_Source\PSoC6/ADC.h ****     #define ADC_CFG2_VNEG_INPUT_SEL          ()
 245:Generated_Source\PSoC6/ADC.h ****     #define ADC_CFG2_SINGLE_PRESENT          ()
 246:Generated_Source\PSoC6/ADC.h ****     #define ADC_CFG2_VREF_MV_VALUE           ()
 247:Generated_Source\PSoC6/ADC.h ****     #define ADC_CFG2_APERTURE_TIME0          (uL)
 248:Generated_Source\PSoC6/ADC.h ****     #define ADC_CFG2_APERTURE_TIME1          (uL)
 249:Generated_Source\PSoC6/ADC.h ****     #define ADC_CFG2_APERTURE_TIME2          (uL)
 250:Generated_Source\PSoC6/ADC.h ****     #define ADC_CFG2_APERTURE_TIME3          (uL)
 251:Generated_Source\PSoC6/ADC.h ****     #define ADC_CFG2_FREERUNNING             (u)
 252:Generated_Source\PSoC6/ADC.h ****     #define ADC_CFG2_AVGERAGING_MODE         (uL)
 253:Generated_Source\PSoC6/ADC.h ****     #define ADC_CFG2_LOW_LIMIT               (u)
ARM GAS  C:\Users\xhuli\AppData\Local\Temp\ccrNCJrA.s 			page 14


 254:Generated_Source\PSoC6/ADC.h ****     #define ADC_CFG2_HIGH_LIMIT              (u)
 255:Generated_Source\PSoC6/ADC.h ****     #define ADC_CFG2_RANGE_COND              (uL)
 256:Generated_Source\PSoC6/ADC.h ****     #define ADC_CFG2_USE_SOC                 (0uL)
 257:Generated_Source\PSoC6/ADC.h ****     #define ADC_CFG2_VREF_PWR                (uL)
 258:Generated_Source\PSoC6/ADC.h ****     #define ADC_CFG2_COMP_PWR                (uL)
 259:Generated_Source\PSoC6/ADC.h ****     #define ADC_CFG2_COMP_DLY                (uL)
 260:Generated_Source\PSoC6/ADC.h **** 
 261:Generated_Source\PSoC6/ADC.h ****     /* Clock parameters*/
 262:Generated_Source\PSoC6/ADC.h ****     #if (ADC_CLOCK_INTERNAL)
 263:Generated_Source\PSoC6/ADC.h ****         #define ADC_CFG2_CLOCKDIVIDER        (((CYDEV_CLK_PERICLK__HZ) / (ADC_CFG2_NOMINAL_CLOCK_FR
 264:Generated_Source\PSoC6/ADC.h ****     #endif /* (ADC_CLOCK_INTERNAL) */
 265:Generated_Source\PSoC6/ADC.h **** #endif /* (ADC_TOTAL_CONFIGS > 2) */
 266:Generated_Source\PSoC6/ADC.h **** 
 267:Generated_Source\PSoC6/ADC.h **** 
 268:Generated_Source\PSoC6/ADC.h **** /* ************************************************************************** */
 269:Generated_Source\PSoC6/ADC.h **** /* End configuration 2 customizer defines                                     */
 270:Generated_Source\PSoC6/ADC.h **** /* ************************************************************************** */
 271:Generated_Source\PSoC6/ADC.h **** 
 272:Generated_Source\PSoC6/ADC.h **** /* ************************************************************************** */
 273:Generated_Source\PSoC6/ADC.h **** /* Begin configuration 3 customizer defines                                   */
 274:Generated_Source\PSoC6/ADC.h **** /* ************************************************************************** */
 275:Generated_Source\PSoC6/ADC.h **** #if(ADC_TOTAL_CONFIGS > 3)
 276:Generated_Source\PSoC6/ADC.h ****     #define ADC_CFG3_SAMPLE_RATE             ()
 277:Generated_Source\PSoC6/ADC.h ****     #define ADC_CFG3_CHANNEL_BASE            (u)
 278:Generated_Source\PSoC6/ADC.h ****     #define ADC_CFG3_CHANNEL_COUNT           (u)
 279:Generated_Source\PSoC6/ADC.h ****     #define ADC_CFG3_VREF_SEL_MASK           (u)
 280:Generated_Source\PSoC6/ADC.h ****     #define ADC_CFG3_NOMINAL_CLOCK_FREQ      (u)
 281:Generated_Source\PSoC6/ADC.h ****     #define ADC_CFG3_CHANNEL_EN              (u)
 282:Generated_Source\PSoC6/ADC.h **** 
 283:Generated_Source\PSoC6/ADC.h ****     /* Sample Control Register */
 284:Generated_Source\PSoC6/ADC.h ****     #define ADC_CFG3_SINGLE_ENDED_FORMAT     (uL)
 285:Generated_Source\PSoC6/ADC.h ****     #define ADC_CFG3_DIFFERENTIAL_FORMAT     (uL)
 286:Generated_Source\PSoC6/ADC.h ****     #define ADC_CFG3_SAMPLES_AVERAGED        (uL)
 287:Generated_Source\PSoC6/ADC.h ****     #define ADC_CFG3_RANGE_INTR_MASK         (u)
 288:Generated_Source\PSoC6/ADC.h ****     #define ADC_CFG3_SATURATE_INTR_MASK      (u)
 289:Generated_Source\PSoC6/ADC.h ****     #define ADC_CFG3_VNEG_INPUT_SEL          ()
 290:Generated_Source\PSoC6/ADC.h ****     #define ADC_CFG3_SINGLE_PRESENT          ()
 291:Generated_Source\PSoC6/ADC.h ****     #define ADC_CFG3_VREF_MV_VALUE           ()
 292:Generated_Source\PSoC6/ADC.h ****     #define ADC_CFG3_APERTURE_TIME0          (uL)
 293:Generated_Source\PSoC6/ADC.h ****     #define ADC_CFG3_APERTURE_TIME1          (uL)
 294:Generated_Source\PSoC6/ADC.h ****     #define ADC_CFG3_APERTURE_TIME2          (uL)
 295:Generated_Source\PSoC6/ADC.h ****     #define ADC_CFG3_APERTURE_TIME3          (uL)
 296:Generated_Source\PSoC6/ADC.h ****     #define ADC_CFG3_FREERUNNING             (u)
 297:Generated_Source\PSoC6/ADC.h ****     #define ADC_CFG3_AVGERAGING_MODE         (uL)
 298:Generated_Source\PSoC6/ADC.h ****     #define ADC_CFG3_LOW_LIMIT               (u)
 299:Generated_Source\PSoC6/ADC.h ****     #define ADC_CFG3_HIGH_LIMIT              (u)
 300:Generated_Source\PSoC6/ADC.h ****     #define ADC_CFG3_RANGE_COND              (uL)
 301:Generated_Source\PSoC6/ADC.h ****     #define ADC_CFG3_USE_SOC                 (0uL)
 302:Generated_Source\PSoC6/ADC.h ****     #define ADC_CFG3_VREF_PWR                (uL)
 303:Generated_Source\PSoC6/ADC.h ****     #define ADC_CFG3_COMP_PWR                (uL)
 304:Generated_Source\PSoC6/ADC.h ****     #define ADC_CFG3_COMP_DLY                (uL)
 305:Generated_Source\PSoC6/ADC.h **** 
 306:Generated_Source\PSoC6/ADC.h ****     /* Clock parameters*/
 307:Generated_Source\PSoC6/ADC.h ****     #if (ADC_CLOCK_INTERNAL)
 308:Generated_Source\PSoC6/ADC.h ****         #define ADC_CFG3_CLOCKDIVIDER        (((CYDEV_CLK_PERICLK__HZ) / (ADC_CFG3_NOMINAL_CLOCK_FR
 309:Generated_Source\PSoC6/ADC.h ****     #endif /* (ADC_CLOCK_INTERNAL) */
 310:Generated_Source\PSoC6/ADC.h **** #endif /* (ADC_TOTAL_CONFIGS > 3) */
ARM GAS  C:\Users\xhuli\AppData\Local\Temp\ccrNCJrA.s 			page 15


 311:Generated_Source\PSoC6/ADC.h **** 
 312:Generated_Source\PSoC6/ADC.h **** /* ************************************************************************** */
 313:Generated_Source\PSoC6/ADC.h **** /* End configuration 3 customizer defines                                     */
 314:Generated_Source\PSoC6/ADC.h **** /* ************************************************************************** */
 315:Generated_Source\PSoC6/ADC.h **** 
 316:Generated_Source\PSoC6/ADC.h **** #define ADC_DEFAULT_SAMPLE_MODE_SEL      (0u)
 317:Generated_Source\PSoC6/ADC.h **** #define ADC_FREERUNNING                  (1u)
 318:Generated_Source\PSoC6/ADC.h **** #define ADC_HARDWARESOC                  (1u)
 319:Generated_Source\PSoC6/ADC.h **** #define ADC_NEG_SEL_VSSA_KELVIN          (0x0uL)
 320:Generated_Source\PSoC6/ADC.h **** #define ADC_NEG_SEL_VREF                 (0x7uL)
 321:Generated_Source\PSoC6/ADC.h **** #define ADC_PWR_CTRL_VREF_NORMAL_PWR     (0x0uL)
 322:Generated_Source\PSoC6/ADC.h **** 
 323:Generated_Source\PSoC6/ADC.h **** /** ADC_TOTAL_CHANNELS_NUM
 324:Generated_Source\PSoC6/ADC.h **** * This constant represents the number of input channels available for scanning.
 325:Generated_Source\PSoC6/ADC.h **** */
 326:Generated_Source\PSoC6/ADC.h **** #define ADC_TOTAL_CHANNELS_NUM           (1u)
 327:Generated_Source\PSoC6/ADC.h **** 
 328:Generated_Source\PSoC6/ADC.h **** /*******************************************************************************
 329:Generated_Source\PSoC6/ADC.h **** *    Variables with External Linkage
 330:Generated_Source\PSoC6/ADC.h **** *******************************************************************************/
 331:Generated_Source\PSoC6/ADC.h **** /**
 332:Generated_Source\PSoC6/ADC.h **** * \addtogroup group_globals
 333:Generated_Source\PSoC6/ADC.h **** * Globals are noted in the descriptions of the functions that use globals.
 334:Generated_Source\PSoC6/ADC.h **** * They are marked with (R), (W), or (RW) noting whether the variable is read,
 335:Generated_Source\PSoC6/ADC.h **** * write, or read/write.
 336:Generated_Source\PSoC6/ADC.h **** * @{
 337:Generated_Source\PSoC6/ADC.h **** */
 338:Generated_Source\PSoC6/ADC.h **** 
 339:Generated_Source\PSoC6/ADC.h **** /** ADC_initVar
 340:Generated_Source\PSoC6/ADC.h **** * The ADC_initVar variable is used to indicate
 341:Generated_Source\PSoC6/ADC.h **** * initial configuration of this component. The variable is initialized to zero and
 342:Generated_Source\PSoC6/ADC.h **** * set to 1 the first time ADC_Start() is called. This allows for
 343:Generated_Source\PSoC6/ADC.h **** * component initialization without reinitialization in all subsequent calls to the
 344:Generated_Source\PSoC6/ADC.h **** * ADC_Start() routine.
 345:Generated_Source\PSoC6/ADC.h **** *
 346:Generated_Source\PSoC6/ADC.h **** * If reinitialization of the component is required, then the ADC_Init() function
 347:Generated_Source\PSoC6/ADC.h **** * can be called before the ADC_Start() or ADC_Enable()
 348:Generated_Source\PSoC6/ADC.h **** * functions.
 349:Generated_Source\PSoC6/ADC.h **** */
 350:Generated_Source\PSoC6/ADC.h **** extern uint8_t ADC_initVar;
 351:Generated_Source\PSoC6/ADC.h **** extern uint8_t ADC_selected;
 352:Generated_Source\PSoC6/ADC.h **** extern uint32_t ADC_currentConfig;
 353:Generated_Source\PSoC6/ADC.h **** 
 354:Generated_Source\PSoC6/ADC.h **** #define ADC_INIT_VAR_INIT_FLAG     (0x01u)
 355:Generated_Source\PSoC6/ADC.h **** 
 356:Generated_Source\PSoC6/ADC.h **** extern const ADC_CONFIG_STRUCT ADC_allConfigs[ADC_TOTAL_CONFIGS];
 357:Generated_Source\PSoC6/ADC.h **** 
 358:Generated_Source\PSoC6/ADC.h **** /* SysPm callback structure for deep sleep entry and exit.
 359:Generated_Source\PSoC6/ADC.h ****  * Call the Cy_SysPm_RegisterCallback function with this
 360:Generated_Source\PSoC6/ADC.h ****  * structure before calling Cy_SysPm_DeepSleep.
 361:Generated_Source\PSoC6/ADC.h **** */
 362:Generated_Source\PSoC6/ADC.h **** extern cy_stc_syspm_callback_t ADC_DeepSleepCallbackStruct;
 363:Generated_Source\PSoC6/ADC.h **** 
 364:Generated_Source\PSoC6/ADC.h **** /** @} globals */
 365:Generated_Source\PSoC6/ADC.h **** 
 366:Generated_Source\PSoC6/ADC.h **** /* ************************************************************************** */
 367:Generated_Source\PSoC6/ADC.h **** /* *******************Global MUX_SWITCH0 Definitions ************************ */
ARM GAS  C:\Users\xhuli\AppData\Local\Temp\ccrNCJrA.s 			page 16


 368:Generated_Source\PSoC6/ADC.h **** /* ************************************************************************** */
 369:Generated_Source\PSoC6/ADC.h **** #if(ADC_CFG0_VNEG_INPUT_SEL == ADC_NEG_SEL_VSSA_KELVIN)
 370:Generated_Source\PSoC6/ADC.h ****     /* Do not connect VSSA to VMINUS when one channel in differential mode used */
 371:Generated_Source\PSoC6/ADC.h ****     #if((ADC_TOTAL_CHANNELS_NUM == 1u) && (ADC_CFG0_SINGLE_PRESENT == 0u))
 372:Generated_Source\PSoC6/ADC.h ****         #define ADC_MUX_SWITCH0_INIT      0u
 373:Generated_Source\PSoC6/ADC.h ****     #else    /* multiple channels or one single ended channel */
 374:Generated_Source\PSoC6/ADC.h ****         #define ADC_MUX_SWITCH0_INIT      1u
 375:Generated_Source\PSoC6/ADC.h ****     #endif /* ((ADC_TOTAL_CHANNELS_NUM == 1u) && (ADC_CFG0_SINGLE_PRESENT == 0u)) */
 376:Generated_Source\PSoC6/ADC.h **** #else
 377:Generated_Source\PSoC6/ADC.h ****     #define ADC_MUX_SWITCH0_INIT          0u
 378:Generated_Source\PSoC6/ADC.h **** #endif /* ADC_CFG0_VNEG_INPUT_SEL == ADC_NEG_SEL_VSSA_KELVIN */
 379:Generated_Source\PSoC6/ADC.h **** 
 380:Generated_Source\PSoC6/ADC.h **** /* ************************************************************************** */
 381:Generated_Source\PSoC6/ADC.h **** /* Begin configuration 0 calculated defines                                   */
 382:Generated_Source\PSoC6/ADC.h **** /* ************************************************************************** */
 383:Generated_Source\PSoC6/ADC.h **** #define ADC_CFG0_SAMPLE_TIME01_INIT \
 384:Generated_Source\PSoC6/ADC.h ****         ((ADC_CFG0_APERTURE_TIME0 \
 385:Generated_Source\PSoC6/ADC.h ****         << SAR_SAMPLE_TIME01_SAMPLE_TIME0_Pos) \
 386:Generated_Source\PSoC6/ADC.h ****         | (ADC_CFG0_APERTURE_TIME1 \
 387:Generated_Source\PSoC6/ADC.h ****         << SAR_SAMPLE_TIME01_SAMPLE_TIME1_Pos))
 388:Generated_Source\PSoC6/ADC.h **** 
 389:Generated_Source\PSoC6/ADC.h **** #define ADC_CFG0_SAMPLE_TIME23_INIT \
 390:Generated_Source\PSoC6/ADC.h ****         ((ADC_CFG0_APERTURE_TIME2 \
 391:Generated_Source\PSoC6/ADC.h ****         << SAR_SAMPLE_TIME23_SAMPLE_TIME2_Pos) \
 392:Generated_Source\PSoC6/ADC.h ****         | (ADC_CFG0_APERTURE_TIME3 \
 393:Generated_Source\PSoC6/ADC.h ****         << SAR_SAMPLE_TIME23_SAMPLE_TIME3_Pos))
 394:Generated_Source\PSoC6/ADC.h **** 
 395:Generated_Source\PSoC6/ADC.h **** /* Enable soc pin if used */
 396:Generated_Source\PSoC6/ADC.h **** #define ADC_CFG0_DSI_TRIGGER_EN_INIT \
 397:Generated_Source\PSoC6/ADC.h ****         (ADC_CFG0_USE_SOC \
 398:Generated_Source\PSoC6/ADC.h ****         << SAR_SAMPLE_CTRL_DSI_TRIGGER_EN_Pos)
 399:Generated_Source\PSoC6/ADC.h **** 
 400:Generated_Source\PSoC6/ADC.h **** /* Set soc operation to edge or level based on sample mode */
 401:Generated_Source\PSoC6/ADC.h **** #if(ADC_CFG0_FREERUNNING == ADC_FREERUNNING)
 402:Generated_Source\PSoC6/ADC.h ****     #define ADC_CFG0_DSI_TRIGGER_LEVEL_INIT    (SAR_SAMPLE_CTRL_DSI_TRIGGER_LEVEL_Msk)
 403:Generated_Source\PSoC6/ADC.h **** #else /* Edge trigger */
 404:Generated_Source\PSoC6/ADC.h ****     #define ADC_CFG0_DSI_TRIGGER_LEVEL_INIT    (0u)
 405:Generated_Source\PSoC6/ADC.h **** #endif /* End ADC_CFG0_FREERUNNING == ADC_FREERUNNING */
 406:Generated_Source\PSoC6/ADC.h **** 
 407:Generated_Source\PSoC6/ADC.h **** /* Set SE_NEG_INPUT */
 408:Generated_Source\PSoC6/ADC.h **** #if(ADC_CFG0_VNEG_INPUT_SEL == ADC_NEG_SEL_VSSA_KELVIN)
 409:Generated_Source\PSoC6/ADC.h ****     #define ADC_CFG0_SE_NEG_INPUT_INIT \
 410:Generated_Source\PSoC6/ADC.h ****             ((uint32)(ADC_NEG_SEL_VSSA_KELVIN \
 411:Generated_Source\PSoC6/ADC.h ****             << SAR_CTRL_NEG_SEL_Pos ))
 412:Generated_Source\PSoC6/ADC.h **** #elif(ADC_CFG0_VNEG_INPUT_SEL == ADC_NEG_SEL_VREF)
 413:Generated_Source\PSoC6/ADC.h **** 
 414:Generated_Source\PSoC6/ADC.h ****     /* Do not connect VNEG to VREF when one channel in differential mode used */
 415:Generated_Source\PSoC6/ADC.h ****     /* Only needed for config 0 since 2+ configs == 2+ channels */
 416:Generated_Source\PSoC6/ADC.h ****     #if((ADC_CFG0_CHANNEL_COUNT == 1u) && (ADC_CFG0_SINGLE_PRESENT == 0u))
 417:Generated_Source\PSoC6/ADC.h ****         #define ADC_CFG0_SE_NEG_INPUT_INIT     0u
 418:Generated_Source\PSoC6/ADC.h ****     #else    /* multiple channels or one single channel */
 419:Generated_Source\PSoC6/ADC.h ****         #define ADC_CFG0_SE_NEG_INPUT_INIT     (ADC_NEG_SEL_VREF \
 420:Generated_Source\PSoC6/ADC.h ****                                                             << SAR_CTRL_NEG_SEL_Pos )
 421:Generated_Source\PSoC6/ADC.h ****     #endif /* (ADC_CFG0_CHANNEL_COUNT == 1u) && (ADC_CFG0_CHANNELS_MODE != 0u) */
 422:Generated_Source\PSoC6/ADC.h **** #elif (ADC_CFG0_SINGLE_PRESENT != 0u)
 423:Generated_Source\PSoC6/ADC.h ****     #define ADC_CFG0_SE_NEG_INPUT_INIT         ADC_CFG0_NEG_OTHER
 424:Generated_Source\PSoC6/ADC.h **** #else
ARM GAS  C:\Users\xhuli\AppData\Local\Temp\ccrNCJrA.s 			page 17


 425:Generated_Source\PSoC6/ADC.h ****     #define ADC_CFG0_SE_NEG_INPUT_INIT         0u
 426:Generated_Source\PSoC6/ADC.h **** #endif /* ADC_CFG0_VNEG_INPUT_SEL == ADC_NEG_SEL_VSSA_KELVIN */
 427:Generated_Source\PSoC6/ADC.h **** 
 428:Generated_Source\PSoC6/ADC.h **** #if(ADC_TOTAL_CHANNELS_NUM > 1u)
 429:Generated_Source\PSoC6/ADC.h ****     #define ADC_CFG0_NEG_OTHER                 (uint16)((uint16)ADC_SARMUX__VNEG0 << SAR_CTRL_NEG_S
 430:Generated_Source\PSoC6/ADC.h ****     #define ADC_CFG0_SWITCH_CONF_INIT          0u
 431:Generated_Source\PSoC6/ADC.h **** #else /* Disable SAR sequencer from enabling routing switches in single channel mode */
 432:Generated_Source\PSoC6/ADC.h ****     #define ADC_CFG0_SWITCH_CONF_INIT          SAR_CTRL_SWITCH_DISABLE_Msk
 433:Generated_Source\PSoC6/ADC.h ****     #define ADC_CFG0_NEG_OTHER                 0u
 434:Generated_Source\PSoC6/ADC.h **** #endif /* ADC_CFG0_CHANNEL_COUNT > 1u */
 435:Generated_Source\PSoC6/ADC.h **** 
 436:Generated_Source\PSoC6/ADC.h **** /* If the SAR is configured for multiple channels, always set SAR_HW_CTRL_NEGVREF to 1 */
 437:Generated_Source\PSoC6/ADC.h **** #if(ADC_TOTAL_CHANNELS_NUM == 1u)
 438:Generated_Source\PSoC6/ADC.h ****     #define ADC_CFG0_HW_CTRL_NEGVREF_INIT      0u
 439:Generated_Source\PSoC6/ADC.h **** #else
 440:Generated_Source\PSoC6/ADC.h ****     #define ADC_CFG0_HW_CTRL_NEGVREF_INIT      SAR_CTRL_SAR_HW_CTRL_NEGVREF_Msk
 441:Generated_Source\PSoC6/ADC.h **** #endif /* ADC_CFG0_CHANNEL_COUNT == 1u */
 442:Generated_Source\PSoC6/ADC.h **** 
 443:Generated_Source\PSoC6/ADC.h **** #define ADC_CFG0_POWER_INIT  (ADC_PWR_CTRL_VREF_NORMAL_PWR)
 444:Generated_Source\PSoC6/ADC.h **** 
 445:Generated_Source\PSoC6/ADC.h **** /* SAMPLE_CTRL initial values */
 446:Generated_Source\PSoC6/ADC.h **** #define ADC_CFG0_SE_RESULT_FORMAT_INIT \
 447:Generated_Source\PSoC6/ADC.h ****         (ADC_CFG0_SINGLE_ENDED_FORMAT \
 448:Generated_Source\PSoC6/ADC.h ****         << SAR_SAMPLE_CTRL_SINGLE_ENDED_SIGNED_Pos)
 449:Generated_Source\PSoC6/ADC.h **** 
 450:Generated_Source\PSoC6/ADC.h **** #define ADC_CFG0_DIFF_RESULT_FORMAT_INIT \
 451:Generated_Source\PSoC6/ADC.h ****         (ADC_CFG0_DIFFERENTIAL_FORMAT \
 452:Generated_Source\PSoC6/ADC.h ****         << SAR_SAMPLE_CTRL_DIFFERENTIAL_SIGNED_Pos)
 453:Generated_Source\PSoC6/ADC.h **** 
 454:Generated_Source\PSoC6/ADC.h **** #define ADC_CFG0_AVG_SAMPLES_NUM_INIT \
 455:Generated_Source\PSoC6/ADC.h ****         (ADC_CFG0_SAMPLES_AVERAGED \
 456:Generated_Source\PSoC6/ADC.h ****         << SAR_SAMPLE_CTRL_AVG_CNT_Pos)
 457:Generated_Source\PSoC6/ADC.h **** 
 458:Generated_Source\PSoC6/ADC.h **** /* Combination of Average Mode and Average Shift */
 459:Generated_Source\PSoC6/ADC.h **** #define ADC_CFG0_AVG_MODE_INIT \
 460:Generated_Source\PSoC6/ADC.h ****         (ADC_CFG0_AVGERAGING_MODE \
 461:Generated_Source\PSoC6/ADC.h ****         << SAR_SAMPLE_CTRL_AVG_SHIFT_Pos)
 462:Generated_Source\PSoC6/ADC.h **** 
 463:Generated_Source\PSoC6/ADC.h **** #define ADC_CFG0_TRIGGER_OUT_INIT      (0u)
 464:Generated_Source\PSoC6/ADC.h **** #define ADC_CFG0_UAB_SCAN_MODE_INIT    (0u)
 465:Generated_Source\PSoC6/ADC.h **** 
 466:Generated_Source\PSoC6/ADC.h **** #define ADC_CFG0_VREF_POWER_INIT  \
 467:Generated_Source\PSoC6/ADC.h ****         (ADC_CFG0_VREF_PWR \
 468:Generated_Source\PSoC6/ADC.h ****         << SAR_CTRL_PWR_CTRL_VREF_Pos)
 469:Generated_Source\PSoC6/ADC.h **** 
 470:Generated_Source\PSoC6/ADC.h **** #define ADC_CFG0_COMP_PWR_INIT  \
 471:Generated_Source\PSoC6/ADC.h ****         (ADC_CFG0_COMP_PWR \
 472:Generated_Source\PSoC6/ADC.h ****         << SAR_CTRL_COMP_PWR_Pos)
 473:Generated_Source\PSoC6/ADC.h **** 
 474:Generated_Source\PSoC6/ADC.h **** #define ADC_CFG0_COMP_DLY_INIT  \
 475:Generated_Source\PSoC6/ADC.h ****         (ADC_CFG0_COMP_DLY \
 476:Generated_Source\PSoC6/ADC.h ****         << SAR_CTRL_COMP_DLY_Pos)
 477:Generated_Source\PSoC6/ADC.h **** 
 478:Generated_Source\PSoC6/ADC.h **** #define ADC_CFG0_CTRL_INIT  \
 479:Generated_Source\PSoC6/ADC.h ****         (ADC_CFG0_VREF_POWER_INIT \
 480:Generated_Source\PSoC6/ADC.h ****         | ADC_CFG0_VREF_SEL_MASK \
 481:Generated_Source\PSoC6/ADC.h ****         | ADC_CFG0_SE_NEG_INPUT_INIT \
ARM GAS  C:\Users\xhuli\AppData\Local\Temp\ccrNCJrA.s 			page 18


 482:Generated_Source\PSoC6/ADC.h ****         | ADC_CFG0_HW_CTRL_NEGVREF_INIT \
 483:Generated_Source\PSoC6/ADC.h ****         | ADC_CFG0_COMP_DLY_INIT \
 484:Generated_Source\PSoC6/ADC.h ****         | SAR_CTRL_REFBUF_EN_Msk \
 485:Generated_Source\PSoC6/ADC.h ****         | ADC_CFG0_COMP_PWR_INIT \
 486:Generated_Source\PSoC6/ADC.h ****         | SAR_CTRL_DSI_SYNC_CONFIG_Msk  \
 487:Generated_Source\PSoC6/ADC.h ****         | ADC_CFG0_SWITCH_CONF_INIT )
 488:Generated_Source\PSoC6/ADC.h **** 
 489:Generated_Source\PSoC6/ADC.h **** #define ADC_CFG0_SAMPLE_CTRL_INIT \
 490:Generated_Source\PSoC6/ADC.h ****         (ADC_CFG0_SE_RESULT_FORMAT_INIT \
 491:Generated_Source\PSoC6/ADC.h ****         | ADC_CFG0_DIFF_RESULT_FORMAT_INIT \
 492:Generated_Source\PSoC6/ADC.h ****         | ADC_CFG0_AVG_SAMPLES_NUM_INIT \
 493:Generated_Source\PSoC6/ADC.h ****         | ADC_CFG0_AVG_MODE_INIT \
 494:Generated_Source\PSoC6/ADC.h ****         | ADC_CFG0_DSI_TRIGGER_LEVEL_INIT \
 495:Generated_Source\PSoC6/ADC.h ****         | ADC_CFG0_DSI_TRIGGER_EN_INIT \
 496:Generated_Source\PSoC6/ADC.h ****         | ADC_CFG0_UAB_SCAN_MODE_INIT \
 497:Generated_Source\PSoC6/ADC.h ****         | SAR_SAMPLE_CTRL_VALID_IGNORE_Msk \
 498:Generated_Source\PSoC6/ADC.h ****         | ADC_CFG0_TRIGGER_OUT_INIT \
 499:Generated_Source\PSoC6/ADC.h ****         | SAR_SAMPLE_CTRL_EOS_DSI_OUT_EN_Msk \
 500:Generated_Source\PSoC6/ADC.h **** )
 501:Generated_Source\PSoC6/ADC.h **** 
 502:Generated_Source\PSoC6/ADC.h **** #define ADC_CFG0_RANGE_THRES_INIT \
 503:Generated_Source\PSoC6/ADC.h ****         (ADC_CFG0_LOW_LIMIT \
 504:Generated_Source\PSoC6/ADC.h ****         | (uint32)((uint32)ADC_CFG0_HIGH_LIMIT \
 505:Generated_Source\PSoC6/ADC.h ****         << SAR_RANGE_THRES_RANGE_HIGH_Pos))
 506:Generated_Source\PSoC6/ADC.h **** 
 507:Generated_Source\PSoC6/ADC.h **** #define ADC_CFG0_RANGE_COND_INIT   (cy_en_sar_range_detect_condition_t)ADC_CFG0_RANGE_COND
 508:Generated_Source\PSoC6/ADC.h **** 
 509:Generated_Source\PSoC6/ADC.h **** /* Misc Config
 510:Generated_Source\PSoC6/ADC.h ****     [0] - Freerunning: Set if the sample mode is freerunning
 511:Generated_Source\PSoC6/ADC.h **** */
 512:Generated_Source\PSoC6/ADC.h **** #define ADC_CFG0_MISC_CONFIG_INIT \
 513:Generated_Source\PSoC6/ADC.h ****         (ADC_CFG0_FREERUNNING)
 514:Generated_Source\PSoC6/ADC.h **** 
 515:Generated_Source\PSoC6/ADC.h **** /* ************************************************************************** */
 516:Generated_Source\PSoC6/ADC.h **** /* End configuration 0 calculated defines                                     */
 517:Generated_Source\PSoC6/ADC.h **** /* ************************************************************************** */
 518:Generated_Source\PSoC6/ADC.h **** 
 519:Generated_Source\PSoC6/ADC.h **** /* ************************************************************************** */
 520:Generated_Source\PSoC6/ADC.h **** /* Begin configuration 1 calculated defines                                   */
 521:Generated_Source\PSoC6/ADC.h **** /* ************************************************************************** */
 522:Generated_Source\PSoC6/ADC.h **** #if(ADC_TOTAL_CONFIGS > 1)
 523:Generated_Source\PSoC6/ADC.h ****     #define ADC_CFG1_SAMPLE_TIME01_INIT \
 524:Generated_Source\PSoC6/ADC.h ****             ((ADC_CFG1_APERTURE_TIME0 \
 525:Generated_Source\PSoC6/ADC.h ****             << SAR_SAMPLE_TIME01_SAMPLE_TIME0_Pos) \
 526:Generated_Source\PSoC6/ADC.h ****             | (ADC_CFG1_APERTURE_TIME1 \
 527:Generated_Source\PSoC6/ADC.h ****             << SAR_SAMPLE_TIME01_SAMPLE_TIME1_Pos))
 528:Generated_Source\PSoC6/ADC.h **** 
 529:Generated_Source\PSoC6/ADC.h ****     #define ADC_CFG1_SAMPLE_TIME23_INIT \
 530:Generated_Source\PSoC6/ADC.h ****             ((ADC_CFG1_APERTURE_TIME2 \
 531:Generated_Source\PSoC6/ADC.h ****             << SAR_SAMPLE_TIME23_SAMPLE_TIME2_Pos) \
 532:Generated_Source\PSoC6/ADC.h ****             | (ADC_CFG1_APERTURE_TIME3 \
 533:Generated_Source\PSoC6/ADC.h ****             << SAR_SAMPLE_TIME23_SAMPLE_TIME3_Pos))
 534:Generated_Source\PSoC6/ADC.h **** 
 535:Generated_Source\PSoC6/ADC.h ****     /* Enable soc pin if used */
 536:Generated_Source\PSoC6/ADC.h ****     #define ADC_CFG1_DSI_TRIGGER_EN_INIT \
 537:Generated_Source\PSoC6/ADC.h ****             (ADC_CFG1_USE_SOC \
 538:Generated_Source\PSoC6/ADC.h ****             << SAR_SAMPLE_CTRL_DSI_TRIGGER_EN_Pos)
ARM GAS  C:\Users\xhuli\AppData\Local\Temp\ccrNCJrA.s 			page 19


 539:Generated_Source\PSoC6/ADC.h **** 
 540:Generated_Source\PSoC6/ADC.h ****     /* Set soc operation to edge or level based on sample mode */
 541:Generated_Source\PSoC6/ADC.h ****     #if(ADC_CFG1_FREERUNNING == ADC_FREERUNNING)
 542:Generated_Source\PSoC6/ADC.h ****         #define ADC_CFG1_DSI_TRIGGER_LEVEL_INIT    (SAR_SAMPLE_CTRL_DSI_TRIGGER_LEVEL_Msk)
 543:Generated_Source\PSoC6/ADC.h ****     #else /* Edge trigger */
 544:Generated_Source\PSoC6/ADC.h ****         #define ADC_CFG1_DSI_TRIGGER_LEVEL_INIT    (0u)
 545:Generated_Source\PSoC6/ADC.h ****     #endif /* End ADC_CFG1_FREERUNNING == ADC_FREERUNNING */
 546:Generated_Source\PSoC6/ADC.h **** 
 547:Generated_Source\PSoC6/ADC.h ****     /* Set SE_NEG_INPUT */
 548:Generated_Source\PSoC6/ADC.h ****     #if(ADC_CFG1_VNEG_INPUT_SEL == ADC_NEG_SEL_VSSA_KELVIN)
 549:Generated_Source\PSoC6/ADC.h ****         #define ADC_CFG1_SE_NEG_INPUT_INIT \
 550:Generated_Source\PSoC6/ADC.h ****             ((uint32)(ADC_NEG_SEL_VSSA_KELVIN \
 551:Generated_Source\PSoC6/ADC.h ****             << SAR_CTRL_NEG_SEL_Pos ))
 552:Generated_Source\PSoC6/ADC.h ****     #elif(ADC_CFG1_VNEG_INPUT_SEL == ADC_NEG_SEL_VREF)
 553:Generated_Source\PSoC6/ADC.h ****         #define ADC_CFG1_SE_NEG_INPUT_INIT     (ADC_NEG_SEL_VREF \
 554:Generated_Source\PSoC6/ADC.h ****                                                             << SAR_CTRL_NEG_SEL_Pos )
 555:Generated_Source\PSoC6/ADC.h ****     #elif (ADC_CFG1_SINGLE_PRESENT != 0u)
 556:Generated_Source\PSoC6/ADC.h ****         #define ADC_CFG1_SE_NEG_INPUT_INIT         ADC_CFG1_NEG_OTHER
 557:Generated_Source\PSoC6/ADC.h ****     #else
 558:Generated_Source\PSoC6/ADC.h ****         #define ADC_CFG1_SE_NEG_INPUT_INIT         0u
 559:Generated_Source\PSoC6/ADC.h ****     #endif /* ADC_CFG1_VNEG_INPUT_SEL == ADC_NEG_SEL_VSSA_KELVIN */
 560:Generated_Source\PSoC6/ADC.h **** 
 561:Generated_Source\PSoC6/ADC.h ****     #define ADC_CFG1_NEG_OTHER                 (uint16)((uint16)ADC_SARMUX__VNEG1 << SAR_CTRL_NEG_S
 562:Generated_Source\PSoC6/ADC.h ****     #define ADC_CFG1_SWITCH_CONF_INIT          0u
 563:Generated_Source\PSoC6/ADC.h **** 
 564:Generated_Source\PSoC6/ADC.h ****     /* If the SAR is configured for multiple channels, always set SAR_HW_CTRL_NEGVREF to 1 */
 565:Generated_Source\PSoC6/ADC.h ****     #define ADC_CFG1_HW_CTRL_NEGVREF_INIT      SAR_CTRL_SAR_HW_CTRL_NEGVREF_Msk
 566:Generated_Source\PSoC6/ADC.h **** 
 567:Generated_Source\PSoC6/ADC.h ****     #define ADC_CFG1_POWER_INIT  (ADC_PWR_CTRL_VREF_NORMAL_PWR)
 568:Generated_Source\PSoC6/ADC.h **** 
 569:Generated_Source\PSoC6/ADC.h ****     /* SAMPLE_CTRL initial values */
 570:Generated_Source\PSoC6/ADC.h ****     #define ADC_CFG1_SE_RESULT_FORMAT_INIT \
 571:Generated_Source\PSoC6/ADC.h ****             (ADC_CFG1_SINGLE_ENDED_FORMAT \
 572:Generated_Source\PSoC6/ADC.h ****             << SAR_SAMPLE_CTRL_SINGLE_ENDED_SIGNED_Pos)
 573:Generated_Source\PSoC6/ADC.h **** 
 574:Generated_Source\PSoC6/ADC.h ****     #define ADC_CFG1_DIFF_RESULT_FORMAT_INIT \
 575:Generated_Source\PSoC6/ADC.h ****             (ADC_CFG1_DIFFERENTIAL_FORMAT \
 576:Generated_Source\PSoC6/ADC.h ****             << SAR_SAMPLE_CTRL_DIFFERENTIAL_SIGNED_Pos)
 577:Generated_Source\PSoC6/ADC.h **** 
 578:Generated_Source\PSoC6/ADC.h ****     #define ADC_CFG1_AVG_SAMPLES_NUM_INIT \
 579:Generated_Source\PSoC6/ADC.h ****             (ADC_CFG1_SAMPLES_AVERAGED \
 580:Generated_Source\PSoC6/ADC.h ****             << SAR_SAMPLE_CTRL_AVG_CNT_Pos)
 581:Generated_Source\PSoC6/ADC.h **** 
 582:Generated_Source\PSoC6/ADC.h ****     /* Combination of Average Mode and Average Shift */
 583:Generated_Source\PSoC6/ADC.h ****     #define ADC_CFG1_AVG_MODE_INIT \
 584:Generated_Source\PSoC6/ADC.h ****             (ADC_CFG1_AVGERAGING_MODE \
 585:Generated_Source\PSoC6/ADC.h ****             << SAR_SAMPLE_CTRL_AVG_SHIFT_Pos)
 586:Generated_Source\PSoC6/ADC.h **** 
 587:Generated_Source\PSoC6/ADC.h ****     #define ADC_CFG1_TRIGGER_OUT_INIT      (0u)
 588:Generated_Source\PSoC6/ADC.h ****     #define ADC_CFG1_UAB_SCAN_MODE_INIT    (0u)
 589:Generated_Source\PSoC6/ADC.h **** 
 590:Generated_Source\PSoC6/ADC.h ****     #define ADC_CFG1_VREF_POWER_INIT  \
 591:Generated_Source\PSoC6/ADC.h ****             (ADC_CFG1_VREF_PWR \
 592:Generated_Source\PSoC6/ADC.h ****             << SAR_CTRL_PWR_CTRL_VREF_Pos)
 593:Generated_Source\PSoC6/ADC.h **** 
 594:Generated_Source\PSoC6/ADC.h ****     #define ADC_CFG1_COMP_PWR_INIT  \
 595:Generated_Source\PSoC6/ADC.h ****             (ADC_CFG1_COMP_PWR \
ARM GAS  C:\Users\xhuli\AppData\Local\Temp\ccrNCJrA.s 			page 20


 596:Generated_Source\PSoC6/ADC.h ****             << SAR_CTRL_COMP_PWR_Pos)
 597:Generated_Source\PSoC6/ADC.h **** 
 598:Generated_Source\PSoC6/ADC.h ****     #define ADC_CFG1_COMP_DLY_INIT  \
 599:Generated_Source\PSoC6/ADC.h ****             (ADC_CFG1_COMP_DLY \
 600:Generated_Source\PSoC6/ADC.h ****             << SAR_CTRL_COMP_DLY_Pos)
 601:Generated_Source\PSoC6/ADC.h **** 
 602:Generated_Source\PSoC6/ADC.h ****     #define ADC_CFG1_CTRL_INIT  \
 603:Generated_Source\PSoC6/ADC.h ****             (ADC_CFG1_VREF_POWER_INIT \
 604:Generated_Source\PSoC6/ADC.h ****             | ADC_CFG1_VREF_SEL_MASK \
 605:Generated_Source\PSoC6/ADC.h ****             | ADC_CFG1_SE_NEG_INPUT_INIT \
 606:Generated_Source\PSoC6/ADC.h ****             | ADC_CFG1_HW_CTRL_NEGVREF_INIT \
 607:Generated_Source\PSoC6/ADC.h ****             | ADC_CFG1_COMP_DLY_INIT \
 608:Generated_Source\PSoC6/ADC.h ****             | SAR_CTRL_REFBUF_EN_Msk \
 609:Generated_Source\PSoC6/ADC.h ****             | ADC_CFG1_COMP_PWR_INIT \
 610:Generated_Source\PSoC6/ADC.h ****             | SAR_CTRL_DSI_SYNC_CONFIG_Msk  \
 611:Generated_Source\PSoC6/ADC.h ****             | ADC_CFG1_SWITCH_CONF_INIT )
 612:Generated_Source\PSoC6/ADC.h **** 
 613:Generated_Source\PSoC6/ADC.h ****     #define ADC_CFG1_SAMPLE_CTRL_INIT \
 614:Generated_Source\PSoC6/ADC.h ****             (ADC_CFG1_SE_RESULT_FORMAT_INIT \
 615:Generated_Source\PSoC6/ADC.h ****             | ADC_CFG1_DIFF_RESULT_FORMAT_INIT \
 616:Generated_Source\PSoC6/ADC.h ****             | ADC_CFG1_AVG_SAMPLES_NUM_INIT \
 617:Generated_Source\PSoC6/ADC.h ****             | ADC_CFG1_AVG_MODE_INIT \
 618:Generated_Source\PSoC6/ADC.h ****             | ADC_CFG1_DSI_TRIGGER_LEVEL_INIT \
 619:Generated_Source\PSoC6/ADC.h ****             | ADC_CFG1_DSI_TRIGGER_EN_INIT \
 620:Generated_Source\PSoC6/ADC.h ****             | ADC_CFG1_UAB_SCAN_MODE_INIT \
 621:Generated_Source\PSoC6/ADC.h ****             | SAR_SAMPLE_CTRL_VALID_IGNORE_Msk \
 622:Generated_Source\PSoC6/ADC.h ****             | ADC_CFG1_TRIGGER_OUT_INIT \
 623:Generated_Source\PSoC6/ADC.h ****             | SAR_SAMPLE_CTRL_EOS_DSI_OUT_EN_Msk \
 624:Generated_Source\PSoC6/ADC.h ****     )
 625:Generated_Source\PSoC6/ADC.h **** 
 626:Generated_Source\PSoC6/ADC.h ****     #define ADC_CFG1_RANGE_THRES_INIT \
 627:Generated_Source\PSoC6/ADC.h ****             (ADC_CFG1_LOW_LIMIT \
 628:Generated_Source\PSoC6/ADC.h ****             | (uint32)((uint32)ADC_CFG1_HIGH_LIMIT \
 629:Generated_Source\PSoC6/ADC.h ****             << SAR_RANGE_THRES_RANGE_HIGH_Pos))
 630:Generated_Source\PSoC6/ADC.h **** 
 631:Generated_Source\PSoC6/ADC.h ****     #define ADC_CFG1_RANGE_COND_INIT   (cy_en_sar_range_detect_condition_t)ADC_CFG1_RANGE_COND
 632:Generated_Source\PSoC6/ADC.h **** 
 633:Generated_Source\PSoC6/ADC.h ****     /* Misc Config
 634:Generated_Source\PSoC6/ADC.h ****         [0] - Freerunning: Set if the sample mode is freerunning
 635:Generated_Source\PSoC6/ADC.h ****     */
 636:Generated_Source\PSoC6/ADC.h ****     #define ADC_CFG1_MISC_CONFIG_INIT \
 637:Generated_Source\PSoC6/ADC.h ****             (ADC_CFG1_FREERUNNING)
 638:Generated_Source\PSoC6/ADC.h **** #endif /* ADC_TOTAL_CONFIGS > 1 */
 639:Generated_Source\PSoC6/ADC.h **** 
 640:Generated_Source\PSoC6/ADC.h **** /* ************************************************************************** */
 641:Generated_Source\PSoC6/ADC.h **** /* End configuration 1 calculated defines                                     */
 642:Generated_Source\PSoC6/ADC.h **** /* ************************************************************************** */
 643:Generated_Source\PSoC6/ADC.h **** 
 644:Generated_Source\PSoC6/ADC.h **** /* ************************************************************************** */
 645:Generated_Source\PSoC6/ADC.h **** /* Begin configuration 2 calculated defines                                   */
 646:Generated_Source\PSoC6/ADC.h **** /* ************************************************************************** */
 647:Generated_Source\PSoC6/ADC.h **** #if(ADC_TOTAL_CONFIGS > 2)
 648:Generated_Source\PSoC6/ADC.h ****     #define ADC_CFG2_SAMPLE_TIME01_INIT \
 649:Generated_Source\PSoC6/ADC.h ****             ((ADC_CFG2_APERTURE_TIME0 \
 650:Generated_Source\PSoC6/ADC.h ****             << SAR_SAMPLE_TIME01_SAMPLE_TIME0_Pos) \
 651:Generated_Source\PSoC6/ADC.h ****             | (ADC_CFG2_APERTURE_TIME1 \
 652:Generated_Source\PSoC6/ADC.h ****             << SAR_SAMPLE_TIME01_SAMPLE_TIME1_Pos))
ARM GAS  C:\Users\xhuli\AppData\Local\Temp\ccrNCJrA.s 			page 21


 653:Generated_Source\PSoC6/ADC.h **** 
 654:Generated_Source\PSoC6/ADC.h ****     #define ADC_CFG2_SAMPLE_TIME23_INIT \
 655:Generated_Source\PSoC6/ADC.h ****             ((ADC_CFG2_APERTURE_TIME2 \
 656:Generated_Source\PSoC6/ADC.h ****             << SAR_SAMPLE_TIME23_SAMPLE_TIME2_Pos) \
 657:Generated_Source\PSoC6/ADC.h ****             | (ADC_CFG2_APERTURE_TIME3 \
 658:Generated_Source\PSoC6/ADC.h ****             << SAR_SAMPLE_TIME23_SAMPLE_TIME3_Pos))
 659:Generated_Source\PSoC6/ADC.h **** 
 660:Generated_Source\PSoC6/ADC.h ****     /* Enable soc pin if used */
 661:Generated_Source\PSoC6/ADC.h ****     #define ADC_CFG2_DSI_TRIGGER_EN_INIT \
 662:Generated_Source\PSoC6/ADC.h ****             (ADC_CFG2_USE_SOC \
 663:Generated_Source\PSoC6/ADC.h ****             << SAR_SAMPLE_CTRL_DSI_TRIGGER_EN_Pos)
 664:Generated_Source\PSoC6/ADC.h **** 
 665:Generated_Source\PSoC6/ADC.h ****     /* Set soc operation to edge or level based on sample mode */
 666:Generated_Source\PSoC6/ADC.h ****     #if(ADC_CFG2_FREERUNNING == ADC_FREERUNNING)
 667:Generated_Source\PSoC6/ADC.h ****         #define ADC_CFG2_DSI_TRIGGER_LEVEL_INIT    (SAR_SAMPLE_CTRL_DSI_TRIGGER_LEVEL_Msk)
 668:Generated_Source\PSoC6/ADC.h ****     #else /* Edge trigger */
 669:Generated_Source\PSoC6/ADC.h ****         #define ADC_CFG2_DSI_TRIGGER_LEVEL_INIT    (0u)
 670:Generated_Source\PSoC6/ADC.h ****     #endif /* End ADC_CFG2_FREERUNNING == ADC_FREERUNNING */
 671:Generated_Source\PSoC6/ADC.h **** 
 672:Generated_Source\PSoC6/ADC.h ****     /* Set SE_NEG_INPUT */
 673:Generated_Source\PSoC6/ADC.h ****     #if(ADC_CFG2_VNEG_INPUT_SEL == ADC_NEG_SEL_VSSA_KELVIN)
 674:Generated_Source\PSoC6/ADC.h ****         #define ADC_CFG2_SE_NEG_INPUT_INIT \
 675:Generated_Source\PSoC6/ADC.h ****             ((uint32)(ADC_NEG_SEL_VSSA_KELVIN \
 676:Generated_Source\PSoC6/ADC.h ****             << SAR_CTRL_NEG_SEL_Pos ))
 677:Generated_Source\PSoC6/ADC.h ****     #elif(ADC_CFG2_VNEG_INPUT_SEL == ADC_NEG_SEL_VREF)
 678:Generated_Source\PSoC6/ADC.h ****         #define ADC_CFG2_SE_NEG_INPUT_INIT     (ADC_NEG_SEL_VREF \
 679:Generated_Source\PSoC6/ADC.h ****                                                                 << SAR_CTRL_NEG_SEL_Pos )
 680:Generated_Source\PSoC6/ADC.h ****     #elif (ADC_CFG2_SINGLE_PRESENT != 0u)
 681:Generated_Source\PSoC6/ADC.h ****         #define ADC_CFG2_SE_NEG_INPUT_INIT         ADC_CFG2_NEG_OTHER
 682:Generated_Source\PSoC6/ADC.h ****     #else
 683:Generated_Source\PSoC6/ADC.h ****         #define ADC_CFG2_SE_NEG_INPUT_INIT         0u
 684:Generated_Source\PSoC6/ADC.h ****     #endif /* ADC_CFG2_VNEG_INPUT_SEL == ADC_NEG_SEL_VSSA_KELVIN */
 685:Generated_Source\PSoC6/ADC.h **** 
 686:Generated_Source\PSoC6/ADC.h ****    #define ADC_CFG2_NEG_OTHER                 (uint16)((uint16)ADC_SARMUX__VNEG2 << SAR_CTRL_NEG_SE
 687:Generated_Source\PSoC6/ADC.h **** 
 688:Generated_Source\PSoC6/ADC.h ****     #define ADC_CFG2_SWITCH_CONF_INIT          0u
 689:Generated_Source\PSoC6/ADC.h **** 
 690:Generated_Source\PSoC6/ADC.h ****     /* If the SAR is configured for multiple channels, always set SAR_HW_CTRL_NEGVREF to 1 */
 691:Generated_Source\PSoC6/ADC.h ****     #define ADC_CFG2_HW_CTRL_NEGVREF_INIT      SAR_CTRL_SAR_HW_CTRL_NEGVREF_Msk
 692:Generated_Source\PSoC6/ADC.h **** 
 693:Generated_Source\PSoC6/ADC.h ****     #define ADC_CFG2_POWER_INIT  (ADC_PWR_CTRL_VREF_NORMAL_PWR)
 694:Generated_Source\PSoC6/ADC.h **** 
 695:Generated_Source\PSoC6/ADC.h ****     /* SAMPLE_CTRL initial values */
 696:Generated_Source\PSoC6/ADC.h ****     #define ADC_CFG2_SE_RESULT_FORMAT_INIT \
 697:Generated_Source\PSoC6/ADC.h ****             (ADC_CFG2_SINGLE_ENDED_FORMAT \
 698:Generated_Source\PSoC6/ADC.h ****             << SAR_SAMPLE_CTRL_SINGLE_ENDED_SIGNED_Pos)
 699:Generated_Source\PSoC6/ADC.h **** 
 700:Generated_Source\PSoC6/ADC.h ****     #define ADC_CFG2_DIFF_RESULT_FORMAT_INIT \
 701:Generated_Source\PSoC6/ADC.h ****             (ADC_CFG2_DIFFERENTIAL_FORMAT \
 702:Generated_Source\PSoC6/ADC.h ****             << SAR_SAMPLE_CTRL_DIFFERENTIAL_SIGNED_Pos)
 703:Generated_Source\PSoC6/ADC.h **** 
 704:Generated_Source\PSoC6/ADC.h ****     #define ADC_CFG2_AVG_SAMPLES_NUM_INIT \
 705:Generated_Source\PSoC6/ADC.h ****             (ADC_CFG2_SAMPLES_AVERAGED \
 706:Generated_Source\PSoC6/ADC.h ****             << SAR_SAMPLE_CTRL_AVG_CNT_Pos)
 707:Generated_Source\PSoC6/ADC.h **** 
 708:Generated_Source\PSoC6/ADC.h ****     /* Combination of Average Mode and Average Shift */
 709:Generated_Source\PSoC6/ADC.h ****     #define ADC_CFG2_AVG_MODE_INIT \
ARM GAS  C:\Users\xhuli\AppData\Local\Temp\ccrNCJrA.s 			page 22


 710:Generated_Source\PSoC6/ADC.h ****             (ADC_CFG2_AVGERAGING_MODE \
 711:Generated_Source\PSoC6/ADC.h ****             << SAR_SAMPLE_CTRL_AVG_SHIFT_Pos)
 712:Generated_Source\PSoC6/ADC.h **** 
 713:Generated_Source\PSoC6/ADC.h ****     #define ADC_CFG2_TRIGGER_OUT_INIT      (0u)
 714:Generated_Source\PSoC6/ADC.h ****     #define ADC_CFG2_UAB_SCAN_MODE_INIT    (0u)
 715:Generated_Source\PSoC6/ADC.h **** 
 716:Generated_Source\PSoC6/ADC.h **** 
 717:Generated_Source\PSoC6/ADC.h ****     #define ADC_CFG2_VREF_POWER_INIT  \
 718:Generated_Source\PSoC6/ADC.h ****             (ADC_CFG2_VREF_PWR \
 719:Generated_Source\PSoC6/ADC.h ****             << SAR_CTRL_PWR_CTRL_VREF_Pos)
 720:Generated_Source\PSoC6/ADC.h **** 
 721:Generated_Source\PSoC6/ADC.h ****     #define ADC_CFG2_COMP_PWR_INIT  \
 722:Generated_Source\PSoC6/ADC.h ****             (ADC_CFG2_COMP_PWR \
 723:Generated_Source\PSoC6/ADC.h ****             << SAR_CTRL_COMP_PWR_Pos)
 724:Generated_Source\PSoC6/ADC.h **** 
 725:Generated_Source\PSoC6/ADC.h ****     #define ADC_CFG2_COMP_DLY_INIT  \
 726:Generated_Source\PSoC6/ADC.h ****             (ADC_CFG2_COMP_DLY \
 727:Generated_Source\PSoC6/ADC.h ****             << SAR_CTRL_COMP_DLY_Pos)
 728:Generated_Source\PSoC6/ADC.h **** 
 729:Generated_Source\PSoC6/ADC.h ****     #define ADC_CFG2_CTRL_INIT  \
 730:Generated_Source\PSoC6/ADC.h ****             (ADC_CFG2_VREF_POWER_INIT \
 731:Generated_Source\PSoC6/ADC.h ****             | ADC_CFG2_VREF_SEL_MASK \
 732:Generated_Source\PSoC6/ADC.h ****             | ADC_CFG2_SE_NEG_INPUT_INIT \
 733:Generated_Source\PSoC6/ADC.h ****             | ADC_CFG2_HW_CTRL_NEGVREF_INIT \
 734:Generated_Source\PSoC6/ADC.h ****             | ADC_CFG2_COMP_DLY_INIT \
 735:Generated_Source\PSoC6/ADC.h ****             | SAR_CTRL_REFBUF_EN_Msk \
 736:Generated_Source\PSoC6/ADC.h ****             | ADC_CFG2_COMP_PWR_INIT \
 737:Generated_Source\PSoC6/ADC.h ****             | SAR_CTRL_DSI_SYNC_CONFIG_Msk  \
 738:Generated_Source\PSoC6/ADC.h ****             | ADC_CFG2_SWITCH_CONF_INIT )
 739:Generated_Source\PSoC6/ADC.h **** 
 740:Generated_Source\PSoC6/ADC.h **** 
 741:Generated_Source\PSoC6/ADC.h ****     #define ADC_CFG2_SAMPLE_CTRL_INIT \
 742:Generated_Source\PSoC6/ADC.h ****             (ADC_CFG2_SE_RESULT_FORMAT_INIT \
 743:Generated_Source\PSoC6/ADC.h ****             | ADC_CFG2_DIFF_RESULT_FORMAT_INIT \
 744:Generated_Source\PSoC6/ADC.h ****             | ADC_CFG2_AVG_SAMPLES_NUM_INIT \
 745:Generated_Source\PSoC6/ADC.h ****             | ADC_CFG2_AVG_MODE_INIT \
 746:Generated_Source\PSoC6/ADC.h ****             | ADC_CFG2_DSI_TRIGGER_LEVEL_INIT \
 747:Generated_Source\PSoC6/ADC.h ****             | ADC_CFG2_DSI_TRIGGER_EN_INIT \
 748:Generated_Source\PSoC6/ADC.h ****             | ADC_CFG2_UAB_SCAN_MODE_INIT \
 749:Generated_Source\PSoC6/ADC.h ****             | SAR_SAMPLE_CTRL_VALID_IGNORE_Msk \
 750:Generated_Source\PSoC6/ADC.h ****             | ADC_CFG2_TRIGGER_OUT_INIT \
 751:Generated_Source\PSoC6/ADC.h ****             | SAR_SAMPLE_CTRL_EOS_DSI_OUT_EN_Msk \
 752:Generated_Source\PSoC6/ADC.h ****     )
 753:Generated_Source\PSoC6/ADC.h **** 
 754:Generated_Source\PSoC6/ADC.h ****     #define ADC_CFG2_RANGE_THRES_INIT \
 755:Generated_Source\PSoC6/ADC.h ****             (ADC_CFG2_LOW_LIMIT \
 756:Generated_Source\PSoC6/ADC.h ****             | (uint32)((uint32)ADC_CFG2_HIGH_LIMIT \
 757:Generated_Source\PSoC6/ADC.h ****             << SAR_RANGE_THRES_RANGE_HIGH_Pos))
 758:Generated_Source\PSoC6/ADC.h **** 
 759:Generated_Source\PSoC6/ADC.h ****     #define ADC_CFG2_RANGE_COND_INIT   (cy_en_sar_range_detect_condition_t)ADC_CFG2_RANGE_COND
 760:Generated_Source\PSoC6/ADC.h **** 
 761:Generated_Source\PSoC6/ADC.h ****     /* Misc Config
 762:Generated_Source\PSoC6/ADC.h ****         [0] - Freerunning: Set if the sample mode is freerunning
 763:Generated_Source\PSoC6/ADC.h ****     */
 764:Generated_Source\PSoC6/ADC.h ****     #define ADC_CFG2_MISC_CONFIG_INIT \
 765:Generated_Source\PSoC6/ADC.h ****             (ADC_CFG2_FREERUNNING)
 766:Generated_Source\PSoC6/ADC.h **** #endif /* ADC_TOTAL_CONFIGS > 2 */
ARM GAS  C:\Users\xhuli\AppData\Local\Temp\ccrNCJrA.s 			page 23


 767:Generated_Source\PSoC6/ADC.h **** 
 768:Generated_Source\PSoC6/ADC.h **** /* ************************************************************************** */
 769:Generated_Source\PSoC6/ADC.h **** /* End configuration 2 calculated defines                                     */
 770:Generated_Source\PSoC6/ADC.h **** /* ************************************************************************** */
 771:Generated_Source\PSoC6/ADC.h **** 
 772:Generated_Source\PSoC6/ADC.h **** /* ************************************************************************** */
 773:Generated_Source\PSoC6/ADC.h **** /* Begin configuration 3 calculated defines                                   */
 774:Generated_Source\PSoC6/ADC.h **** /* ************************************************************************** */
 775:Generated_Source\PSoC6/ADC.h **** #if(ADC_TOTAL_CONFIGS > 3)
 776:Generated_Source\PSoC6/ADC.h ****     #define ADC_CFG3_SAMPLE_TIME01_INIT \
 777:Generated_Source\PSoC6/ADC.h ****             ((ADC_CFG3_APERTURE_TIME0 \
 778:Generated_Source\PSoC6/ADC.h ****             << SAR_SAMPLE_TIME01_SAMPLE_TIME0_Pos) \
 779:Generated_Source\PSoC6/ADC.h ****             | (ADC_CFG3_APERTURE_TIME1 \
 780:Generated_Source\PSoC6/ADC.h ****             << SAR_SAMPLE_TIME01_SAMPLE_TIME1_Pos))
 781:Generated_Source\PSoC6/ADC.h **** 
 782:Generated_Source\PSoC6/ADC.h ****     #define ADC_CFG3_SAMPLE_TIME23_INIT \
 783:Generated_Source\PSoC6/ADC.h ****             ((ADC_CFG3_APERTURE_TIME2 \
 784:Generated_Source\PSoC6/ADC.h ****             << SAR_SAMPLE_TIME23_SAMPLE_TIME2_Pos) \
 785:Generated_Source\PSoC6/ADC.h ****             | (ADC_CFG3_APERTURE_TIME3 \
 786:Generated_Source\PSoC6/ADC.h ****             << SAR_SAMPLE_TIME23_SAMPLE_TIME3_Pos))
 787:Generated_Source\PSoC6/ADC.h **** 
 788:Generated_Source\PSoC6/ADC.h ****     /* Enable soc pin if used */
 789:Generated_Source\PSoC6/ADC.h ****     #define ADC_CFG3_DSI_TRIGGER_EN_INIT \
 790:Generated_Source\PSoC6/ADC.h ****             (ADC_CFG3_USE_SOC \
 791:Generated_Source\PSoC6/ADC.h ****              << SAR_SAMPLE_CTRL_DSI_TRIGGER_EN_Pos)
 792:Generated_Source\PSoC6/ADC.h **** 
 793:Generated_Source\PSoC6/ADC.h ****     /* Set soc operation to edge or level based on sample mode */
 794:Generated_Source\PSoC6/ADC.h ****     #if(ADC_CFG3_FREERUNNING == ADC_FREERUNNING)
 795:Generated_Source\PSoC6/ADC.h ****         #define ADC_CFG3_DSI_TRIGGER_LEVEL_INIT    (SAR_SAMPLE_CTRL_DSI_TRIGGER_LEVEL_Msk)
 796:Generated_Source\PSoC6/ADC.h ****     #else /* Edge trigger */
 797:Generated_Source\PSoC6/ADC.h ****         #define ADC_CFG3_DSI_TRIGGER_LEVEL_INIT    (0u)
 798:Generated_Source\PSoC6/ADC.h ****     #endif /* End ADC_CFG3_FREERUNNING == ADC_FREERUNNING */
 799:Generated_Source\PSoC6/ADC.h **** 
 800:Generated_Source\PSoC6/ADC.h ****     /* Set SE_NEG_INPUT  */
 801:Generated_Source\PSoC6/ADC.h ****     #if(ADC_CFG3_VNEG_INPUT_SEL == ADC_NEG_SEL_VSSA_KELVIN)
 802:Generated_Source\PSoC6/ADC.h ****         #define ADC_CFG3_SE_NEG_INPUT_INIT \
 803:Generated_Source\PSoC6/ADC.h ****             ((uint32)(ADC_NEG_SEL_VSSA_KELVIN \
 804:Generated_Source\PSoC6/ADC.h ****             << SAR_CTRL_NEG_SEL_Pos ))
 805:Generated_Source\PSoC6/ADC.h ****     #elif(ADC_CFG3_VNEG_INPUT_SEL == ADC_NEG_SEL_VREF)
 806:Generated_Source\PSoC6/ADC.h ****         #define ADC_CFG3_SE_NEG_INPUT_INIT     (ADC_NEG_SEL_VREF \
 807:Generated_Source\PSoC6/ADC.h ****                                                                 << SAR_CTRL_NEG_SEL_Pos )
 808:Generated_Source\PSoC6/ADC.h ****     #elif (ADC_CFG3_SINGLE_PRESENT != 0u)
 809:Generated_Source\PSoC6/ADC.h ****         #define ADC_CFG3_SE_NEG_INPUT_INIT         ADC_CFG3_NEG_OTHER
 810:Generated_Source\PSoC6/ADC.h ****     #else
 811:Generated_Source\PSoC6/ADC.h ****         #define ADC_CFG3_SE_NEG_INPUT_INIT         0u
 812:Generated_Source\PSoC6/ADC.h ****     #endif /* ADC_CFG3_VNEG_INPUT_SEL == ADC_NEG_SEL_VSSA_KELVIN */
 813:Generated_Source\PSoC6/ADC.h **** 
 814:Generated_Source\PSoC6/ADC.h ****     #define ADC_CFG3_NEG_OTHER                 (uint16)((uint16)ADC_SARMUX__VNEG3 << SAR_CTRL_NEG_S
 815:Generated_Source\PSoC6/ADC.h **** 
 816:Generated_Source\PSoC6/ADC.h ****     #define ADC_CFG3_SWITCH_CONF_INIT          0u
 817:Generated_Source\PSoC6/ADC.h **** 
 818:Generated_Source\PSoC6/ADC.h ****     /* If the SAR is configured for multiple channels, always set SAR_HW_CTRL_NEGVREF to 1 */
 819:Generated_Source\PSoC6/ADC.h ****     #define ADC_CFG3_HW_CTRL_NEGVREF_INIT      SAR_CTRL_SAR_HW_CTRL_NEGVREF_Msk
 820:Generated_Source\PSoC6/ADC.h **** 
 821:Generated_Source\PSoC6/ADC.h ****     #define ADC_CFG3_POWER_INIT  (ADC_PWR_CTRL_VREF_NORMAL_PWR)
 822:Generated_Source\PSoC6/ADC.h **** 
 823:Generated_Source\PSoC6/ADC.h ****     /* SAMPLE_CTRL initial values */
ARM GAS  C:\Users\xhuli\AppData\Local\Temp\ccrNCJrA.s 			page 24


 824:Generated_Source\PSoC6/ADC.h ****     #define ADC_CFG3_SE_RESULT_FORMAT_INIT \
 825:Generated_Source\PSoC6/ADC.h ****             (ADC_CFG3_SINGLE_ENDED_FORMAT \
 826:Generated_Source\PSoC6/ADC.h ****             << SAR_SAMPLE_CTRL_SINGLE_ENDED_SIGNED_Pos)
 827:Generated_Source\PSoC6/ADC.h **** 
 828:Generated_Source\PSoC6/ADC.h ****     #define ADC_CFG3_DIFF_RESULT_FORMAT_INIT \
 829:Generated_Source\PSoC6/ADC.h ****             (ADC_CFG3_DIFFERENTIAL_FORMAT \
 830:Generated_Source\PSoC6/ADC.h ****             << SAR_SAMPLE_CTRL_DIFFERENTIAL_SIGNED_Pos)
 831:Generated_Source\PSoC6/ADC.h **** 
 832:Generated_Source\PSoC6/ADC.h ****     #define ADC_CFG3_AVG_SAMPLES_NUM_INIT \
 833:Generated_Source\PSoC6/ADC.h ****             (ADC_CFG3_SAMPLES_AVERAGED \
 834:Generated_Source\PSoC6/ADC.h ****             << SAR_SAMPLE_CTRL_AVG_CNT_Pos)
 835:Generated_Source\PSoC6/ADC.h **** 
 836:Generated_Source\PSoC6/ADC.h ****     /* Combination of Average Mode and Average Shift */
 837:Generated_Source\PSoC6/ADC.h ****     #define ADC_CFG3_AVG_MODE_INIT \
 838:Generated_Source\PSoC6/ADC.h ****             (ADC_CFG3_AVGERAGING_MODE \
 839:Generated_Source\PSoC6/ADC.h ****             << SAR_SAMPLE_CTRL_AVG_SHIFT_Pos)
 840:Generated_Source\PSoC6/ADC.h **** 
 841:Generated_Source\PSoC6/ADC.h ****     #define ADC_CFG3_TRIGGER_OUT_INIT      (0u)
 842:Generated_Source\PSoC6/ADC.h ****     #define ADC_CFG3_UAB_SCAN_MODE_INIT    (0u)
 843:Generated_Source\PSoC6/ADC.h **** 
 844:Generated_Source\PSoC6/ADC.h ****     #define ADC_CFG3_VREF_POWER_INIT  \
 845:Generated_Source\PSoC6/ADC.h ****             (ADC_CFG3_VREF_PWR \
 846:Generated_Source\PSoC6/ADC.h ****             << SAR_CTRL_PWR_CTRL_VREF_Pos)
 847:Generated_Source\PSoC6/ADC.h **** 
 848:Generated_Source\PSoC6/ADC.h ****     #define ADC_CFG3_COMP_PWR_INIT  \
 849:Generated_Source\PSoC6/ADC.h ****             (ADC_CFG3_COMP_PWR \
 850:Generated_Source\PSoC6/ADC.h ****             << SAR_CTRL_COMP_PWR_Pos)
 851:Generated_Source\PSoC6/ADC.h **** 
 852:Generated_Source\PSoC6/ADC.h ****     #define ADC_CFG3_COMP_DLY_INIT  \
 853:Generated_Source\PSoC6/ADC.h ****             (ADC_CFG3_COMP_DLY \
 854:Generated_Source\PSoC6/ADC.h ****             << SAR_CTRL_COMP_DLY_Pos)
 855:Generated_Source\PSoC6/ADC.h **** 
 856:Generated_Source\PSoC6/ADC.h ****     #define ADC_CFG3_CTRL_INIT  \
 857:Generated_Source\PSoC6/ADC.h ****             (ADC_CFG3_VREF_POWER_INIT \
 858:Generated_Source\PSoC6/ADC.h ****             | ADC_CFG3_VREF_SEL_MASK \
 859:Generated_Source\PSoC6/ADC.h ****             | ADC_CFG3_SE_NEG_INPUT_INIT \
 860:Generated_Source\PSoC6/ADC.h ****             | ADC_CFG3_HW_CTRL_NEGVREF_INIT \
 861:Generated_Source\PSoC6/ADC.h ****             | ADC_CFG3_COMP_DLY_INIT \
 862:Generated_Source\PSoC6/ADC.h ****             | SAR_CTRL_REFBUF_EN_Msk \
 863:Generated_Source\PSoC6/ADC.h ****             | ADC_CFG3_COMP_PWR_INIT \
 864:Generated_Source\PSoC6/ADC.h ****             | SAR_CTRL_DSI_SYNC_CONFIG_Msk  \
 865:Generated_Source\PSoC6/ADC.h ****             | ADC_CFG3_SWITCH_CONF_INIT )
 866:Generated_Source\PSoC6/ADC.h **** 
 867:Generated_Source\PSoC6/ADC.h **** 
 868:Generated_Source\PSoC6/ADC.h ****     #define ADC_CFG3_SAMPLE_CTRL_INIT \
 869:Generated_Source\PSoC6/ADC.h ****             (ADC_CFG3_SE_RESULT_FORMAT_INIT \
 870:Generated_Source\PSoC6/ADC.h ****             | ADC_CFG3_DIFF_RESULT_FORMAT_INIT \
 871:Generated_Source\PSoC6/ADC.h ****             | ADC_CFG3_AVG_SAMPLES_NUM_INIT \
 872:Generated_Source\PSoC6/ADC.h ****             | ADC_CFG3_AVG_MODE_INIT \
 873:Generated_Source\PSoC6/ADC.h ****             | ADC_CFG3_DSI_TRIGGER_LEVEL_INIT \
 874:Generated_Source\PSoC6/ADC.h ****             | ADC_CFG3_DSI_TRIGGER_EN_INIT \
 875:Generated_Source\PSoC6/ADC.h ****             | ADC_CFG3_UAB_SCAN_MODE_INIT \
 876:Generated_Source\PSoC6/ADC.h ****             | SAR_SAMPLE_CTRL_VALID_IGNORE_Msk \
 877:Generated_Source\PSoC6/ADC.h ****             | ADC_CFG3_TRIGGER_OUT_INIT \
 878:Generated_Source\PSoC6/ADC.h ****             | SAR_SAMPLE_CTRL_EOS_DSI_OUT_EN_Msk \
 879:Generated_Source\PSoC6/ADC.h ****     )
 880:Generated_Source\PSoC6/ADC.h **** 
ARM GAS  C:\Users\xhuli\AppData\Local\Temp\ccrNCJrA.s 			page 25


 881:Generated_Source\PSoC6/ADC.h ****     #define ADC_CFG3_RANGE_THRES_INIT \
 882:Generated_Source\PSoC6/ADC.h ****             (ADC_CFG3_LOW_LIMIT \
 883:Generated_Source\PSoC6/ADC.h ****             | (uint32)((uint32)ADC_CFG3_HIGH_LIMIT \
 884:Generated_Source\PSoC6/ADC.h ****             << SAR_RANGE_THRES_RANGE_HIGH_Pos))
 885:Generated_Source\PSoC6/ADC.h **** 
 886:Generated_Source\PSoC6/ADC.h ****     #define ADC_CFG3_RANGE_COND_INIT   (cy_en_sar_range_detect_condition_t)ADC_CFG3_RANGE_COND
 887:Generated_Source\PSoC6/ADC.h **** 
 888:Generated_Source\PSoC6/ADC.h ****     /* Misc Config
 889:Generated_Source\PSoC6/ADC.h ****         [0] - Freerunning: Set if the sample mode is freerunning
 890:Generated_Source\PSoC6/ADC.h ****     */
 891:Generated_Source\PSoC6/ADC.h ****     #define ADC_CFG3_MISC_CONFIG_INIT \
 892:Generated_Source\PSoC6/ADC.h ****             (ADC_CFG3_FREERUNNING )
 893:Generated_Source\PSoC6/ADC.h **** 
 894:Generated_Source\PSoC6/ADC.h **** #endif /* ADC_TOTAL_CONFIGS > 3 */
 895:Generated_Source\PSoC6/ADC.h **** 
 896:Generated_Source\PSoC6/ADC.h **** /* ************************************************************************** */
 897:Generated_Source\PSoC6/ADC.h **** /* End configuration 3 calculated defines                                     */
 898:Generated_Source\PSoC6/ADC.h **** /* ************************************************************************** */
 899:Generated_Source\PSoC6/ADC.h **** 
 900:Generated_Source\PSoC6/ADC.h **** /******************************************************************************
 901:Generated_Source\PSoC6/ADC.h **** * Function Name: ADC_Enable
 902:Generated_Source\PSoC6/ADC.h **** ****************************************************************************//*
 903:Generated_Source\PSoC6/ADC.h **** *
 904:Generated_Source\PSoC6/ADC.h **** * \brief Enables the component.
 905:Generated_Source\PSoC6/ADC.h **** *
 906:Generated_Source\PSoC6/ADC.h **** * \param None
 907:Generated_Source\PSoC6/ADC.h **** *
 908:Generated_Source\PSoC6/ADC.h **** * \return None
 909:Generated_Source\PSoC6/ADC.h **** *
 910:Generated_Source\PSoC6/ADC.h **** * \sideeffect
 911:Generated_Source\PSoC6/ADC.h **** *  None
 912:Generated_Source\PSoC6/ADC.h **** *
 913:Generated_Source\PSoC6/ADC.h **** *******************************************************************************/
 914:Generated_Source\PSoC6/ADC.h **** __STATIC_INLINE void ADC_Enable(void)
 915:Generated_Source\PSoC6/ADC.h **** {
 916:Generated_Source\PSoC6/ADC.h ****     Cy_SAR_Enable(ADC_SAR__HW);
 917:Generated_Source\PSoC6/ADC.h **** }
 918:Generated_Source\PSoC6/ADC.h **** 
 919:Generated_Source\PSoC6/ADC.h **** /*******************************************************************************
 920:Generated_Source\PSoC6/ADC.h **** * Function Name: ADC_Stop
 921:Generated_Source\PSoC6/ADC.h **** ****************************************************************************//**
 922:Generated_Source\PSoC6/ADC.h **** *
 923:Generated_Source\PSoC6/ADC.h **** * \brief This function stops ADC conversions and puts the ADC into its lowest
 924:Generated_Source\PSoC6/ADC.h **** * power mode.
 925:Generated_Source\PSoC6/ADC.h **** *
 926:Generated_Source\PSoC6/ADC.h **** * \param None
 927:Generated_Source\PSoC6/ADC.h **** *
 928:Generated_Source\PSoC6/ADC.h **** * \return None
 929:Generated_Source\PSoC6/ADC.h **** *
 930:Generated_Source\PSoC6/ADC.h **** * \sideeffect
 931:Generated_Source\PSoC6/ADC.h **** * Do not use the ADC_Stop() API to halt conversions. Instead use the
 932:Generated_Source\PSoC6/ADC.h **** * ADC_StopConvert() API. If you use the ADC_Stop() API
 933:Generated_Source\PSoC6/ADC.h **** * to halt conversions then later use the ADC_Start() and
 934:Generated_Source\PSoC6/ADC.h **** * ADC_StartConvert() APIs to resume conversions, the first channel
 935:Generated_Source\PSoC6/ADC.h **** * of the scan may be corrupt. The ADC_StopConvert() API will enable
 936:Generated_Source\PSoC6/ADC.h **** * the ADC to complete the current scan of channels. After the
 937:Generated_Source\PSoC6/ADC.h **** * channel scan is complete, the ADC will stop all conversions, which
ARM GAS  C:\Users\xhuli\AppData\Local\Temp\ccrNCJrA.s 			page 26


 938:Generated_Source\PSoC6/ADC.h **** * can be detected by the use of an ISR or the ADC_IsEndConversion()
 939:Generated_Source\PSoC6/ADC.h **** * function.
 940:Generated_Source\PSoC6/ADC.h **** *
 941:Generated_Source\PSoC6/ADC.h **** *******************************************************************************/
 942:Generated_Source\PSoC6/ADC.h **** __STATIC_INLINE void ADC_Stop(void)
 943:Generated_Source\PSoC6/ADC.h **** {
 944:Generated_Source\PSoC6/ADC.h ****     Cy_SAR_Disable(ADC_SAR__HW);
 945:Generated_Source\PSoC6/ADC.h **** }
 946:Generated_Source\PSoC6/ADC.h **** 
 947:Generated_Source\PSoC6/ADC.h **** /*******************************************************************************
 948:Generated_Source\PSoC6/ADC.h **** * Function Name: ADC_StopConvert
 949:Generated_Source\PSoC6/ADC.h **** ****************************************************************************//**
 950:Generated_Source\PSoC6/ADC.h **** *
 951:Generated_Source\PSoC6/ADC.h **** * \brief Forces the ADC to stop conversions. If a conversion is
 952:Generated_Source\PSoC6/ADC.h **** * currently executing, that conversion will complete, but no further conversions
 953:Generated_Source\PSoC6/ADC.h **** * will occur.
 954:Generated_Source\PSoC6/ADC.h **** *
 955:Generated_Source\PSoC6/ADC.h **** * \param None
 956:Generated_Source\PSoC6/ADC.h **** *
 957:Generated_Source\PSoC6/ADC.h **** * \return None
 958:Generated_Source\PSoC6/ADC.h **** *
 959:Generated_Source\PSoC6/ADC.h **** * \sideeffect None
 960:Generated_Source\PSoC6/ADC.h **** *
 961:Generated_Source\PSoC6/ADC.h **** *******************************************************************************/
 962:Generated_Source\PSoC6/ADC.h **** __STATIC_INLINE void ADC_StopConvert(void)
 963:Generated_Source\PSoC6/ADC.h **** {
 964:Generated_Source\PSoC6/ADC.h ****     Cy_SAR_StopConvert(ADC_SAR__HW);
 965:Generated_Source\PSoC6/ADC.h **** }
 966:Generated_Source\PSoC6/ADC.h **** 
 967:Generated_Source\PSoC6/ADC.h **** /*******************************************************************************
 968:Generated_Source\PSoC6/ADC.h **** * Function Name: ADC_GetResult16
 969:Generated_Source\PSoC6/ADC.h **** ****************************************************************************//**
 970:Generated_Source\PSoC6/ADC.h **** *
 971:Generated_Source\PSoC6/ADC.h **** * \brief Gets the data available in the channel result data register
 972:Generated_Source\PSoC6/ADC.h **** *
 973:Generated_Source\PSoC6/ADC.h **** * \param chan The ADC channel to read the result from. The first
 974:Generated_Source\PSoC6/ADC.h **** * channel is 0.
 975:Generated_Source\PSoC6/ADC.h **** *
 976:Generated_Source\PSoC6/ADC.h **** * \return Returns converted data as a signed 16-bit integer.
 977:Generated_Source\PSoC6/ADC.h **** *
 978:Generated_Source\PSoC6/ADC.h **** * \sideeffect None
 979:Generated_Source\PSoC6/ADC.h **** *
 980:Generated_Source\PSoC6/ADC.h **** *******************************************************************************/
 981:Generated_Source\PSoC6/ADC.h **** __STATIC_INLINE int16_t ADC_GetResult16(uint32_t chan)
 982:Generated_Source\PSoC6/ADC.h **** {
 983:Generated_Source\PSoC6/ADC.h ****     /* Halt CPU in debug mode if channel is out of valid range */
 984:Generated_Source\PSoC6/ADC.h ****     CY_ASSERT(chan < ADC_allConfigs[ADC_currentConfig].numChannels);
 112              		.loc 2 984 0 discriminator 3
 113 0016 134B     		ldr	r3, .L11+8
 114 0018 1B68     		ldr	r3, [r3]
 115 001a 03EB8303 		add	r3, r3, r3, lsl #2
 116 001e 9A00     		lsls	r2, r3, #2
 117 0020 114B     		ldr	r3, .L11+12
 118 0022 1A44     		add	r2, r2, r3
 119 0024 5368     		ldr	r3, [r2, #4]
 120 0026 23B9     		cbnz	r3, .L8
 121              		.loc 2 984 0 is_stmt 0
ARM GAS  C:\Users\xhuli\AppData\Local\Temp\ccrNCJrA.s 			page 27


 122 0028 4FF47671 		mov	r1, #984
 123 002c 0F48     		ldr	r0, .L11+16
 124 002e FFF7FEFF 		bl	Cy_SysLib_AssertFailed
 125              	.LVL4:
 126              	.L8:
 985:Generated_Source\PSoC6/ADC.h **** 
 986:Generated_Source\PSoC6/ADC.h ****     return Cy_SAR_GetResult16(ADC_SAR__HW, chan);
 127              		.loc 2 986 0 is_stmt 1
 128 0032 0021     		movs	r1, #0
 129 0034 0E48     		ldr	r0, .L11+20
 130 0036 FFF7FEFF 		bl	Cy_SAR_GetResult16
 131              	.LVL5:
 132              	.LBE30:
 133              	.LBE29:
  43:BLE_Task.c    ****         vTaskDelay(10);
 134              		.loc 1 43 0
 135 003a 094B     		ldr	r3, .L11+4
 136 003c 03EB8403 		add	r3, r3, r4, lsl #2
 137 0040 07EE900A 		vmov	s15, r0	@ int
 138 0044 F8EEE77A 		vcvt.f32.s32	s15, s15
 139 0048 C3ED007A 		vstr.32	s15, [r3]
  44:BLE_Task.c    ****     }
 140              		.loc 1 44 0
 141 004c 0A20     		movs	r0, #10
 142 004e FFF7FEFF 		bl	vTaskDelay
 143              	.LVL6:
  41:BLE_Task.c    ****         sample[i] = 0;
 144              		.loc 1 41 0
 145 0052 0134     		adds	r4, r4, #1
 146              	.LVL7:
 147              	.L7:
  41:BLE_Task.c    ****         sample[i] = 0;
 148              		.loc 1 41 0 is_stmt 0 discriminator 1
 149 0054 C82C     		cmp	r4, #200
 150 0056 D9DD     		ble	.L9
 151              	.LBE28:
  46:BLE_Task.c    **** 
 152              		.loc 1 46 0 is_stmt 1
 153 0058 10BD     		pop	{r4, pc}
 154              	.LVL8:
 155              	.L12:
 156 005a 00BF     		.align	2
 157              	.L11:
 158 005c 00000000 		.word	.LC0
 159 0060 00000000 		.word	.LANCHOR0
 160 0064 00000000 		.word	ADC_currentConfig
 161 0068 00000000 		.word	ADC_allConfigs
 162 006c 20000000 		.word	.LC1
 163 0070 00001D41 		.word	1092419584
 164              		.cfi_endproc
 165              	.LFE586:
 166              		.size	fillSampleData, .-fillSampleData
 167              		.section	.text.mean,"ax",%progbits
 168              		.align	2
 169              		.global	mean
 170              		.thumb
 171              		.thumb_func
ARM GAS  C:\Users\xhuli\AppData\Local\Temp\ccrNCJrA.s 			page 28


 172              		.type	mean, %function
 173              	mean:
 174              	.LFB587:
  51:BLE_Task.c    ****     float sum = 0.0, mean = 0.0;
 175              		.loc 1 51 0
 176              		.cfi_startproc
 177              		@ args = 0, pretend = 0, frame = 0
 178              		@ frame_needed = 0, uses_anonymous_args = 0
 179              		@ link register save eliminated.
 180              	.LVL9:
  54:BLE_Task.c    ****         sum += data[i];
 181              		.loc 1 54 0
 182 0000 0023     		movs	r3, #0
  52:BLE_Task.c    ****     int i;
 183              		.loc 1 52 0
 184 0002 DFED0A7A 		vldr.32	s15, .L16
  54:BLE_Task.c    ****         sum += data[i];
 185              		.loc 1 54 0
 186 0006 06E0     		b	.L14
 187              	.LVL10:
 188              	.L15:
  55:BLE_Task.c    ****     }
 189              		.loc 1 55 0 discriminator 3
 190 0008 00EB8302 		add	r2, r0, r3, lsl #2
 191 000c 92ED007A 		vldr.32	s14, [r2]
 192 0010 77EE877A 		vadd.f32	s15, s15, s14
 193              	.LVL11:
  54:BLE_Task.c    ****         sum += data[i];
 194              		.loc 1 54 0 discriminator 3
 195 0014 0133     		adds	r3, r3, #1
 196              	.LVL12:
 197              	.L14:
  54:BLE_Task.c    ****         sum += data[i];
 198              		.loc 1 54 0 is_stmt 0 discriminator 1
 199 0016 8B42     		cmp	r3, r1
 200 0018 F6DB     		blt	.L15
  57:BLE_Task.c    ****     return mean;
 201              		.loc 1 57 0 is_stmt 1
 202 001a 07EE101A 		vmov	s14, r1	@ int
 203 001e B8EEC77A 		vcvt.f32.s32	s14, s14
 204              	.LVL13:
  59:BLE_Task.c    **** 
 205              		.loc 1 59 0
 206 0022 C7EE876A 		vdiv.f32	s13, s15, s14
 207              	.LVL14:
 208 0026 16EE900A 		vmov	r0, s13
 209              	.LVL15:
 210 002a 7047     		bx	lr
 211              	.L17:
 212              		.align	2
 213              	.L16:
 214 002c 00000000 		.word	0
 215              		.cfi_endproc
 216              	.LFE587:
 217              		.size	mean, .-mean
 218              		.global	__aeabi_f2d
 219              		.global	__aeabi_dadd
ARM GAS  C:\Users\xhuli\AppData\Local\Temp\ccrNCJrA.s 			page 29


 220              		.global	__aeabi_d2f
 221              		.section	.text.stddev,"ax",%progbits
 222              		.align	2
 223              		.global	stddev
 224              		.thumb
 225              		.thumb_func
 226              		.type	stddev, %function
 227              	stddev:
 228              	.LFB588:
  64:BLE_Task.c    ****     float the_mean = mean(data, len);
 229              		.loc 1 64 0
 230              		.cfi_startproc
 231              		@ args = 0, pretend = 0, frame = 0
 232              		@ frame_needed = 0, uses_anonymous_args = 0
 233              	.LVL16:
 234 0000 2DE9F843 		push	{r3, r4, r5, r6, r7, r8, r9, lr}
 235              		.cfi_def_cfa_offset 32
 236              		.cfi_offset 3, -32
 237              		.cfi_offset 4, -28
 238              		.cfi_offset 5, -24
 239              		.cfi_offset 6, -20
 240              		.cfi_offset 7, -16
 241              		.cfi_offset 8, -12
 242              		.cfi_offset 9, -8
 243              		.cfi_offset 14, -4
 244 0004 2DED028B 		vpush.64	{d8}
 245              		.cfi_def_cfa_offset 40
 246              		.cfi_offset 80, -40
 247              		.cfi_offset 81, -36
 248 0008 8146     		mov	r9, r0
 249 000a 8846     		mov	r8, r1
  65:BLE_Task.c    ****     float standardDeviation = 0.0;
 250              		.loc 1 65 0
 251 000c FFF7FEFF 		bl	mean
 252              	.LVL17:
 253 0010 08EE100A 		vmov	s16, r0
 254              	.LVL18:
  68:BLE_Task.c    ****         standardDeviation += pow(data[i] - the_mean, 2);
 255              		.loc 1 68 0
 256 0014 0024     		movs	r4, #0
  66:BLE_Task.c    ****     int i;
 257              		.loc 1 66 0
 258 0016 0025     		movs	r5, #0
  68:BLE_Task.c    ****         standardDeviation += pow(data[i] - the_mean, 2);
 259              		.loc 1 68 0
 260 0018 1BE0     		b	.L19
 261              	.LVL19:
 262              	.L20:
  69:BLE_Task.c    ****     }
 263              		.loc 1 69 0 discriminator 3
 264 001a 09EB8403 		add	r3, r9, r4, lsl #2
 265 001e D3ED007A 		vldr.32	s15, [r3]
 266 0022 77EEC87A 		vsub.f32	s15, s15, s16
 267 0026 17EE900A 		vmov	r0, s15
 268 002a FFF7FEFF 		bl	__aeabi_f2d
 269              	.LVL20:
 270 002e 0022     		movs	r2, #0
ARM GAS  C:\Users\xhuli\AppData\Local\Temp\ccrNCJrA.s 			page 30


 271 0030 4FF08043 		mov	r3, #1073741824
 272 0034 FFF7FEFF 		bl	pow
 273              	.LVL21:
 274 0038 0646     		mov	r6, r0
 275 003a 0F46     		mov	r7, r1
 276 003c 2846     		mov	r0, r5	@ float
 277 003e FFF7FEFF 		bl	__aeabi_f2d
 278              	.LVL22:
 279 0042 3246     		mov	r2, r6
 280 0044 3B46     		mov	r3, r7
 281 0046 FFF7FEFF 		bl	__aeabi_dadd
 282              	.LVL23:
 283 004a FFF7FEFF 		bl	__aeabi_d2f
 284              	.LVL24:
 285 004e 0546     		mov	r5, r0	@ float
 286              	.LVL25:
  68:BLE_Task.c    ****         standardDeviation += pow(data[i] - the_mean, 2);
 287              		.loc 1 68 0 discriminator 3
 288 0050 0134     		adds	r4, r4, #1
 289              	.LVL26:
 290              	.L19:
  68:BLE_Task.c    ****         standardDeviation += pow(data[i] - the_mean, 2);
 291              		.loc 1 68 0 is_stmt 0 discriminator 1
 292 0052 4445     		cmp	r4, r8
 293 0054 E1DB     		blt	.L20
  71:BLE_Task.c    **** }
 294              		.loc 1 71 0 is_stmt 1
 295 0056 07EE908A 		vmov	s15, r8	@ int
 296 005a F8EEE77A 		vcvt.f32.s32	s15, s15
 297 005e 07EE105A 		vmov	s14, r5
 298 0062 87EE278A 		vdiv.f32	s16, s14, s15
 299              	.LVL27:
 300 0066 18EE100A 		vmov	r0, s16
 301 006a FFF7FEFF 		bl	__aeabi_f2d
 302              	.LVL28:
 303 006e FFF7FEFF 		bl	sqrt
 304              	.LVL29:
 305 0072 FFF7FEFF 		bl	__aeabi_d2f
 306              	.LVL30:
  72:BLE_Task.c    **** 
 307              		.loc 1 72 0
 308 0076 BDEC028B 		vldm	sp!, {d8}
 309              		.cfi_restore 80
 310              		.cfi_restore 81
 311              		.cfi_def_cfa_offset 32
 312 007a BDE8F883 		pop	{r3, r4, r5, r6, r7, r8, r9, pc}
 313              		.cfi_endproc
 314              	.LFE588:
 315              		.size	stddev, .-stddev
 316              		.global	__aeabi_i2d
 317              		.global	__aeabi_dmul
 318 007e 00BF     		.section	.text.detectPeaks,"ax",%progbits
 319              		.align	2
 320              		.global	detectPeaks
 321              		.thumb
 322              		.thumb_func
 323              		.type	detectPeaks, %function
ARM GAS  C:\Users\xhuli\AppData\Local\Temp\ccrNCJrA.s 			page 31


 324              	detectPeaks:
 325              	.LFB589:
  77:BLE_Task.c    ****     fillSampleData();
 326              		.loc 1 77 0
 327              		.cfi_startproc
 328              		@ args = 0, pretend = 0, frame = 2400
 329              		@ frame_needed = 0, uses_anonymous_args = 0
 330 0000 2DE9F043 		push	{r4, r5, r6, r7, r8, r9, lr}
 331              		.cfi_def_cfa_offset 28
 332              		.cfi_offset 4, -28
 333              		.cfi_offset 5, -24
 334              		.cfi_offset 6, -20
 335              		.cfi_offset 7, -16
 336              		.cfi_offset 8, -12
 337              		.cfi_offset 9, -8
 338              		.cfi_offset 14, -4
 339 0004 2DED048B 		vpush.64	{d8, d9}
 340              		.cfi_def_cfa_offset 44
 341              		.cfi_offset 80, -44
 342              		.cfi_offset 81, -40
 343              		.cfi_offset 82, -36
 344              		.cfi_offset 83, -32
 345 0008 ADF6641D 		subw	sp, sp, #2404
 346              		.cfi_def_cfa_offset 2448
  78:BLE_Task.c    ****     printf(">>Calculating Heart Rate\r\n");
 347              		.loc 1 78 0
 348 000c FFF7FEFF 		bl	fillSampleData
 349              	.LVL31:
  79:BLE_Task.c    ****     float threshold = 6;
 350              		.loc 1 79 0
 351 0010 8B48     		ldr	r0, .L45+24
 352 0012 FFF7FEFF 		bl	puts
 353              	.LVL32:
  93:BLE_Task.c    ****     stdFilter[lag-1] = stddev(sample, lag);
 354              		.loc 1 93 0
 355 0016 8B4C     		ldr	r4, .L45+28
 356 0018 0321     		movs	r1, #3
 357 001a 2046     		mov	r0, r4
 358 001c FFF7FEFF 		bl	mean
 359              	.LVL33:
 360 0020 0DF5C863 		add	r3, sp, #1600
 361 0024 9860     		str	r0, [r3, #8]	@ float
  94:BLE_Task.c    ****     float filteredY[SAMPLE_LENGTH];
 362              		.loc 1 94 0
 363 0026 0321     		movs	r1, #3
 364 0028 2046     		mov	r0, r4
 365 002a FFF7FEFF 		bl	stddev
 366              	.LVL34:
 367 002e CA90     		str	r0, [sp, #808]	@ float
  96:BLE_Task.c    ****     for(int i = lag; i<=SAMPLE_LENGTH; i++)
 368              		.loc 1 96 0
 369 0030 4FF44872 		mov	r2, #800
 370 0034 2146     		mov	r1, r4
 371 0036 6846     		mov	r0, sp
 372 0038 FFF7FEFF 		bl	memcpy
 373              	.LVL35:
 374              	.LBB31:
ARM GAS  C:\Users\xhuli\AppData\Local\Temp\ccrNCJrA.s 			page 32


  97:BLE_Task.c    ****     {
 375              		.loc 1 97 0
 376 003c 0324     		movs	r4, #3
 377              	.LBE31:
  86:BLE_Task.c    **** 
 378              		.loc 1 86 0
 379 003e 9FED829A 		vldr.32	s18, .L45+32
  85:BLE_Task.c    ****     float value_possible_valley = 0;
 380              		.loc 1 85 0
 381 0042 F0EE499A 		vmov.f32	s19, s18
  83:BLE_Task.c    **** 
 382              		.loc 1 83 0
 383 0046 0027     		movs	r7, #0
  82:BLE_Task.c    ****     bool possible_valley = false;
 384              		.loc 1 82 0
 385 0048 B846     		mov	r8, r7
  80:BLE_Task.c    ****     int lag = 3;
 386              		.loc 1 80 0
 387 004a F1EE088A 		vmov.f32	s17, #6.0e+0
 388              	.LBB32:
  97:BLE_Task.c    ****     {
 389              		.loc 1 97 0
 390 004e CDE0     		b	.L23
 391              	.LVL36:
 392              	.L38:
  99:BLE_Task.c    ****         stdFilter[i] = stddev(filteredY + i-lag+1, lag);
 393              		.loc 1 99 0
 394 0050 A61E     		subs	r6, r4, #2
 395 0052 0DEB8606 		add	r6, sp, r6, lsl #2
 396 0056 0321     		movs	r1, #3
 397 0058 3046     		mov	r0, r6
 398 005a FFF7FEFF 		bl	mean
 399              	.LVL37:
 400 005e A500     		lsls	r5, r4, #2
 401 0060 0DF5C863 		add	r3, sp, #1600
 402 0064 2B44     		add	r3, r3, r5
 403 0066 1860     		str	r0, [r3]	@ float
 100:BLE_Task.c    **** 	    if(sample[i] > sample[i-1]){
 404              		.loc 1 100 0
 405 0068 0321     		movs	r1, #3
 406 006a 3046     		mov	r0, r6
 407 006c FFF7FEFF 		bl	stddev
 408              	.LVL38:
 409 0070 C8AB     		add	r3, sp, #800
 410 0072 2B44     		add	r3, r3, r5
 411 0074 1860     		str	r0, [r3]	@ float
 101:BLE_Task.c    **** 	       num_steps++;
 412              		.loc 1 101 0
 413 0076 734B     		ldr	r3, .L45+28
 414 0078 1D44     		add	r5, r5, r3
 415 007a 95ED008A 		vldr.32	s16, [r5]
 416 007e 651E     		subs	r5, r4, #1
 417 0080 03EB8503 		add	r3, r3, r5, lsl #2
 418 0084 D3ED007A 		vldr.32	s15, [r3]
 419 0088 B4EEE78A 		vcmpe.f32	s16, s15
 420 008c F1EE10FA 		vmrs	APSR_nzcv, FPSCR
 421 0090 40F3AB80 		ble	.L24
ARM GAS  C:\Users\xhuli\AppData\Local\Temp\ccrNCJrA.s 			page 33


 102:BLE_Task.c    **** 		        //Looking for the valley
 422              		.loc 1 102 0
 423 0094 6B4B     		ldr	r3, .L45+28
 424 0096 D3F82003 		ldr	r0, [r3, #800]
 425 009a 0130     		adds	r0, r0, #1
 426 009c C3F82003 		str	r0, [r3, #800]
 104:BLE_Task.c    **** 		 	    //Potential valley has been found
 427              		.loc 1 104 0
 428 00a0 4FB9     		cbnz	r7, .L26
 429              	.LVL39:
 108:BLE_Task.c    **** 		        }
 430              		.loc 1 108 0
 431 00a2 1A46     		mov	r2, r3
 432 00a4 D3F82433 		ldr	r3, [r3, #804]
 433 00a8 0133     		adds	r3, r3, #1
 434 00aa C2F82433 		str	r3, [r2, #804]
 107:BLE_Task.c    ****                 possible_val++;
 435              		.loc 1 107 0
 436 00ae B0EE679A 		vmov.f32	s18, s15
 106:BLE_Task.c    **** 		 	    value_possible_valley = sample[i-1];
 437              		.loc 1 106 0
 438 00b2 0127     		movs	r7, #1
 439 00b4 95E0     		b	.L27
 440              	.LVL40:
 441              	.L26:
 112:BLE_Task.c    **** 			    //Potential peak has been found
 442              		.loc 1 112 0
 443 00b6 07EE100A 		vmov	s14, r0	@ int
 444 00ba B8EEC77A 		vcvt.f32.s32	s14, s14
 445 00be F4EEC78A 		vcmpe.f32	s17, s14
 446 00c2 F1EE10FA 		vmrs	APSR_nzcv, FPSCR
 447 00c6 1FD8     		bhi	.L28
 112:BLE_Task.c    **** 			    //Potential peak has been found
 448              		.loc 1 112 0 is_stmt 0 discriminator 1
 449 00c8 AB00     		lsls	r3, r5, #2
 450 00ca 0DF5C862 		add	r2, sp, #1600
 451 00ce 1A44     		add	r2, r2, r3
 452 00d0 92ED007A 		vldr.32	s14, [r2]
 453 00d4 38EE477A 		vsub.f32	s14, s16, s14
 454 00d8 B0EEC77A 		vabs.f32	s14, s14
 455 00dc C8AA     		add	r2, sp, #800
 456 00de 1344     		add	r3, r3, r2
 457 00e0 D3ED006A 		vldr.32	s13, [r3]
 458 00e4 68EEA66A 		vmul.f32	s13, s17, s13
 459 00e8 B4EEE67A 		vcmpe.f32	s14, s13
 460 00ec F1EE10FA 		vmrs	APSR_nzcv, FPSCR
 461 00f0 0ADD     		ble	.L28
 462              	.LVL41:
 116:BLE_Task.c    **** 		    } 
 463              		.loc 1 116 0 is_stmt 1
 464 00f2 544A     		ldr	r2, .L45+28
 465 00f4 D2F82833 		ldr	r3, [r2, #808]
 466 00f8 0133     		adds	r3, r3, #1
 467 00fa C2F82833 		str	r3, [r2, #808]
 115:BLE_Task.c    ****                 possible_beat++;
 468              		.loc 1 115 0
 469 00fe F0EE679A 		vmov.f32	s19, s15
ARM GAS  C:\Users\xhuli\AppData\Local\Temp\ccrNCJrA.s 			page 34


 114:BLE_Task.c    **** 			    value_possible_peak = sample[i-1];
 470              		.loc 1 114 0
 471 0102 4FF00108 		mov	r8, #1
 116:BLE_Task.c    **** 		    } 
 472              		.loc 1 116 0
 473 0106 6CE0     		b	.L27
 474              	.LVL42:
 475              	.L28:
 121:BLE_Task.c    **** 				    if(sample[i] <= value_possible_valley){
 476              		.loc 1 121 0
 477 0108 67B1     		cbz	r7, .L31
 122:BLE_Task.c    **** 				    value_possible_valley = sample[i];
 478              		.loc 1 122 0
 479 010a B4EEC89A 		vcmpe.f32	s18, s16
 480 010e F1EE10FA 		vmrs	APSR_nzcv, FPSCR
 481 0112 07DB     		blt	.L31
 482              	.LVL43:
 124:BLE_Task.c    **** 				    }
 483              		.loc 1 124 0
 484 0114 4B4A     		ldr	r2, .L45+28
 485 0116 D2F82433 		ldr	r3, [r2, #804]
 486 011a 0133     		adds	r3, r3, #1
 487 011c C2F82433 		str	r3, [r2, #804]
 123:BLE_Task.c    ****                     possible_val++;
 488              		.loc 1 123 0
 489 0120 B0EE489A 		vmov.f32	s18, s16
 490              	.LVL44:
 491              	.L31:
 128:BLE_Task.c    **** 				    //Updating peak information
 492              		.loc 1 128 0
 493 0124 B8F1000F 		cmp	r8, #0
 494 0128 1CD0     		beq	.L33
 130:BLE_Task.c    **** 			        value_peak = sample[i-1];
 495              		.loc 1 130 0
 496 012a F4EEE79A 		vcmpe.f32	s19, s15
 497 012e F1EE10FA 		vmrs	APSR_nzcv, FPSCR
 498 0132 0AD4     		bmi	.L34
 130:BLE_Task.c    **** 			        value_peak = sample[i-1];
 499              		.loc 1 130 0 is_stmt 0 discriminator 1
 500 0134 0DF5C863 		add	r3, sp, #1600
 501 0138 03EB8503 		add	r3, r3, r5, lsl #2
 502 013c D3ED007A 		vldr.32	s15, [r3]
 503 0140 B4EEE78A 		vcmpe.f32	s16, s15
 504 0144 F1EE10FA 		vmrs	APSR_nzcv, FPSCR
 505 0148 06DD     		ble	.L43
 506              	.L34:
 507              	.LVL45:
 132:BLE_Task.c    **** 			    } 
 508              		.loc 1 132 0 is_stmt 1
 509 014a 3E4A     		ldr	r2, .L45+28
 510 014c D2F82C33 		ldr	r3, [r2, #812]
 511 0150 0133     		adds	r3, r3, #1
 512 0152 C2F82C33 		str	r3, [r2, #812]
 513 0156 05E0     		b	.L33
 514              	.LVL46:
 515              	.L43:
 136:BLE_Task.c    **** 			        value_peak = value_possible_peak;
ARM GAS  C:\Users\xhuli\AppData\Local\Temp\ccrNCJrA.s 			page 35


 516              		.loc 1 136 0
 517 0158 3A4A     		ldr	r2, .L45+28
 518 015a D2F82C33 		ldr	r3, [r2, #812]
 519 015e 0133     		adds	r3, r3, #1
 520 0160 C2F82C33 		str	r3, [r2, #812]
 521              	.LVL47:
 522              	.L33:
 141:BLE_Task.c    **** 				    //Updating valley information
 523              		.loc 1 141 0
 524 0164 37B1     		cbz	r7, .L37
 525              	.LVL48:
 145:BLE_Task.c    **** 		        }
 526              		.loc 1 145 0
 527 0166 374A     		ldr	r2, .L45+28
 528 0168 D2F83033 		ldr	r3, [r2, #816]
 529 016c 0133     		adds	r3, r3, #1
 530 016e C2F83033 		str	r3, [r2, #816]
 144:BLE_Task.c    ****                     valley++;
 531              		.loc 1 144 0
 532 0172 0027     		movs	r7, #0
 533              	.LVL49:
 534              	.L37:
 148:BLE_Task.c    **** 		        possible_peak = false;
 535              		.loc 1 148 0
 536 0174 FFF7FEFF 		bl	__aeabi_i2d
 537              	.LVL50:
 538 0178 2BA3     		adr	r3, .L45
 539 017a D3E90023 		ldrd	r2, [r3]
 540 017e FFF7FEFF 		bl	__aeabi_dmul
 541              	.LVL51:
 542 0182 FFF7FEFF 		bl	__aeabi_d2f
 543              	.LVL52:
 544 0186 08EE900A 		vmov	s17, r0
 545              	.LVL53:
 150:BLE_Task.c    ****                 avgFilter[i] = mean(filteredY + i-lag+1, lag);
 546              		.loc 1 150 0
 547 018a 18EE100A 		vmov	r0, s16
 548              	.LVL54:
 549 018e FFF7FEFF 		bl	__aeabi_f2d
 550              	.LVL55:
 551 0192 27A3     		adr	r3, .L45+8
 552 0194 D3E90023 		ldrd	r2, [r3]
 553 0198 FFF7FEFF 		bl	__aeabi_dmul
 554              	.LVL56:
 555 019c 8046     		mov	r8, r0
 556 019e 8946     		mov	r9, r1
 557 01a0 0DEB8505 		add	r5, sp, r5, lsl #2
 558 01a4 2868     		ldr	r0, [r5]	@ float
 559 01a6 FFF7FEFF 		bl	__aeabi_f2d
 560              	.LVL57:
 561 01aa 23A3     		adr	r3, .L45+16
 562 01ac D3E90023 		ldrd	r2, [r3]
 563 01b0 FFF7FEFF 		bl	__aeabi_dmul
 564              	.LVL58:
 565 01b4 0246     		mov	r2, r0
 566 01b6 0B46     		mov	r3, r1
 567 01b8 4046     		mov	r0, r8
ARM GAS  C:\Users\xhuli\AppData\Local\Temp\ccrNCJrA.s 			page 36


 568 01ba 4946     		mov	r1, r9
 569 01bc FFF7FEFF 		bl	__aeabi_dadd
 570              	.LVL59:
 571 01c0 A500     		lsls	r5, r4, #2
 572 01c2 0DEB0508 		add	r8, sp, r5
 573 01c6 FFF7FEFF 		bl	__aeabi_d2f
 574              	.LVL60:
 575 01ca C8F80000 		str	r0, [r8]	@ float
 151:BLE_Task.c    **** 		    }
 576              		.loc 1 151 0
 577 01ce 0321     		movs	r1, #3
 578 01d0 3046     		mov	r0, r6
 579 01d2 FFF7FEFF 		bl	mean
 580              	.LVL61:
 581 01d6 0DF5C863 		add	r3, sp, #1600
 582 01da 1D44     		add	r5, r5, r3
 583 01dc 2860     		str	r0, [r5]	@ float
 149:BLE_Task.c    ****                 filteredY[i] = 0.1 * sample[i] + (1 - 0.1) * filteredY[i-1];
 584              		.loc 1 149 0
 585 01de 4FF00008 		mov	r8, #0
 586              	.LVL62:
 587              	.L27:
 155:BLE_Task.c    ****         }
 588              		.loc 1 155 0
 589 01e2 0022     		movs	r2, #0
 590 01e4 174B     		ldr	r3, .L45+28
 591 01e6 C3F82023 		str	r2, [r3, #800]
 592              	.L24:
  97:BLE_Task.c    ****     {
 593              		.loc 1 97 0 discriminator 2
 594 01ea 0134     		adds	r4, r4, #1
 595              	.LVL63:
 596              	.L23:
  97:BLE_Task.c    ****     {
 597              		.loc 1 97 0 is_stmt 0 discriminator 1
 598 01ec C82C     		cmp	r4, #200
 599 01ee 7FF72FAF 		ble	.L38
 600              	.LBE32:
 159:BLE_Task.c    **** printf("Possible Peaks:         %d \r\n", possible_beat);
 601              		.loc 1 159 0 is_stmt 1
 602 01f2 144C     		ldr	r4, .L45+28
 603              	.LVL64:
 604 01f4 D4F82C13 		ldr	r1, [r4, #812]
 605 01f8 1448     		ldr	r0, .L45+36
 606 01fa FFF7FEFF 		bl	printf
 607              	.LVL65:
 160:BLE_Task.c    **** printf("Estimated Heart Rate:   %d \r\n", 7*beat);
 608              		.loc 1 160 0
 609 01fe D4F82813 		ldr	r1, [r4, #808]
 610 0202 1348     		ldr	r0, .L45+40
 611 0204 FFF7FEFF 		bl	printf
 612              	.LVL66:
 161:BLE_Task.c    **** }
 613              		.loc 1 161 0
 614 0208 D4F82C13 		ldr	r1, [r4, #812]
 615 020c C1EBC101 		rsb	r1, r1, r1, lsl #3
 616 0210 1048     		ldr	r0, .L45+44
ARM GAS  C:\Users\xhuli\AppData\Local\Temp\ccrNCJrA.s 			page 37


 617 0212 FFF7FEFF 		bl	printf
 618              	.LVL67:
 162:BLE_Task.c    **** 
 619              		.loc 1 162 0
 620 0216 0DF6641D 		addw	sp, sp, #2404
 621              		.cfi_def_cfa_offset 44
 622              		@ sp needed
 623 021a BDEC048B 		vldm	sp!, {d8-d9}
 624              		.cfi_restore 82
 625              		.cfi_restore 83
 626              		.cfi_restore 80
 627              		.cfi_restore 81
 628              		.cfi_def_cfa_offset 28
 629              	.LVL68:
 630 021e BDE8F083 		pop	{r4, r5, r6, r7, r8, r9, pc}
 631              	.LVL69:
 632              	.L46:
 633 0222 00BFAFF3 		.align	3
 633      0080
 634              	.L45:
 635 0228 33333333 		.word	858993459
 636 022c 3333E33F 		.word	1071854387
 637 0230 9A999999 		.word	-1717986918
 638 0234 9999B93F 		.word	1069128089
 639 0238 CDCCCCCC 		.word	-858993459
 640 023c CCCCEC3F 		.word	1072483532
 641 0240 40000000 		.word	.LC2
 642 0244 00000000 		.word	.LANCHOR0
 643 0248 00000000 		.word	0
 644 024c 5C000000 		.word	.LC3
 645 0250 7C000000 		.word	.LC4
 646 0254 9C000000 		.word	.LC5
 647              		.cfi_endproc
 648              	.LFE589:
 649              		.size	detectPeaks, .-detectPeaks
 650              		.section	.text.Init_Components,"ax",%progbits
 651              		.align	2
 652              		.global	Init_Components
 653              		.thumb
 654              		.thumb_func
 655              		.type	Init_Components, %function
 656              	Init_Components:
 657              	.LFB590:
 167:BLE_Task.c    ****     ADC_Start();
 658              		.loc 1 167 0
 659              		.cfi_startproc
 660              		@ args = 0, pretend = 0, frame = 0
 661              		@ frame_needed = 0, uses_anonymous_args = 0
 662 0000 08B5     		push	{r3, lr}
 663              		.cfi_def_cfa_offset 8
 664              		.cfi_offset 3, -8
 665              		.cfi_offset 14, -4
 168:BLE_Task.c    ****     UART_Start();
 666              		.loc 1 168 0
 667 0002 FFF7FEFF 		bl	ADC_Start
 668              	.LVL70:
 169:BLE_Task.c    ****     ADC_StartConvert();
ARM GAS  C:\Users\xhuli\AppData\Local\Temp\ccrNCJrA.s 			page 38


 669              		.loc 1 169 0
 670 0006 FFF7FEFF 		bl	UART_Start
 671              	.LVL71:
 170:BLE_Task.c    ****     I2C_Start();
 672              		.loc 1 170 0
 673 000a FFF7FEFF 		bl	ADC_StartConvert
 674              	.LVL72:
 171:BLE_Task.c    ****     printf(">>Components Initialized!\r\n");
 675              		.loc 1 171 0
 676 000e FFF7FEFF 		bl	I2C_Start
 677              	.LVL73:
 172:BLE_Task.c    **** }
 678              		.loc 1 172 0
 679 0012 0248     		ldr	r0, .L49
 680 0014 FFF7FEFF 		bl	puts
 681              	.LVL74:
 682 0018 08BD     		pop	{r3, pc}
 683              	.L50:
 684 001a 00BF     		.align	2
 685              	.L49:
 686 001c BC000000 		.word	.LC6
 687              		.cfi_endproc
 688              	.LFE590:
 689              		.size	Init_Components, .-Init_Components
 690              		.section	.text.getTemperature,"ax",%progbits
 691              		.align	2
 692              		.global	getTemperature
 693              		.thumb
 694              		.thumb_func
 695              		.type	getTemperature, %function
 696              	getTemperature:
 697              	.LFB591:
 178:BLE_Task.c    ****     float raw = 0;
 698              		.loc 1 178 0
 699              		.cfi_startproc
 700              		@ args = 0, pretend = 0, frame = 0
 701              		@ frame_needed = 0, uses_anonymous_args = 0
 702 0000 70B5     		push	{r4, r5, r6, lr}
 703              		.cfi_def_cfa_offset 16
 704              		.cfi_offset 4, -16
 705              		.cfi_offset 5, -12
 706              		.cfi_offset 6, -8
 707              		.cfi_offset 14, -4
 708 0002 2DED028B 		vpush.64	{d8}
 709              		.cfi_def_cfa_offset 24
 710              		.cfi_offset 80, -24
 711              		.cfi_offset 81, -20
 712 0006 82B0     		sub	sp, sp, #8
 713              		.cfi_def_cfa_offset 32
 714              	.LVL75:
 182:BLE_Task.c    ****     Cy_SCB_I2C_MasterWriteByte(I2C_HW, MAX30205_TEMPERATURE, 0, &I2C_context);
 715              		.loc 1 182 0
 716 0008 294E     		ldr	r6, .L55
 717 000a 3178     		ldrb	r1, [r6]	@ zero_extendqisi2
 718 000c 294C     		ldr	r4, .L55+4
 719 000e 2A4D     		ldr	r5, .L55+8
 720 0010 0095     		str	r5, [sp]
ARM GAS  C:\Users\xhuli\AppData\Local\Temp\ccrNCJrA.s 			page 39


 721 0012 0023     		movs	r3, #0
 722 0014 1A46     		mov	r2, r3
 723 0016 2046     		mov	r0, r4
 724 0018 FFF7FEFF 		bl	Cy_SCB_I2C_MasterSendStart
 725              	.LVL76:
 183:BLE_Task.c    ****     Cy_SCB_I2C_MasterSendReStart(I2C_HW, sensorAddress, CY_SCB_I2C_READ_XFER, 0, &I2C_context);
 726              		.loc 1 183 0
 727 001c 2B46     		mov	r3, r5
 728 001e 0022     		movs	r2, #0
 729 0020 1146     		mov	r1, r2
 730 0022 2046     		mov	r0, r4
 731 0024 FFF7FEFF 		bl	Cy_SCB_I2C_MasterWriteByte
 732              	.LVL77:
 184:BLE_Task.c    ****     
 733              		.loc 1 184 0
 734 0028 3178     		ldrb	r1, [r6]	@ zero_extendqisi2
 735 002a 0095     		str	r5, [sp]
 736 002c 0023     		movs	r3, #0
 737 002e 0122     		movs	r2, #1
 738 0030 2046     		mov	r0, r4
 739 0032 FFF7FEFF 		bl	Cy_SCB_I2C_MasterSendReStart
 740              	.LVL78:
 741              	.LBB33:
 186:BLE_Task.c    ****         Cy_SCB_I2C_MasterReadByte(I2C_HW, CY_SCB_I2C_ACK, &I2C_Data[i], 0, &I2C_context);
 742              		.loc 1 186 0
 743 0036 0024     		movs	r4, #0
 744 0038 21E0     		b	.L52
 745              	.LVL79:
 746              	.L53:
 187:BLE_Task.c    ****         raw = I2C_Data[0]; 
 747              		.loc 1 187 0 discriminator 3
 748 003a 204D     		ldr	r5, .L55+12
 749 003c 05F54D72 		add	r2, r5, #820
 750 0040 1D4B     		ldr	r3, .L55+8
 751 0042 0093     		str	r3, [sp]
 752 0044 0023     		movs	r3, #0
 753 0046 2244     		add	r2, r2, r4
 754 0048 1946     		mov	r1, r3
 755 004a 1A48     		ldr	r0, .L55+4
 756 004c FFF7FEFF 		bl	Cy_SCB_I2C_MasterReadByte
 757              	.LVL80:
 188:BLE_Task.c    ****         raw2 = I2C_Data[1] * 0.00390625;
 758              		.loc 1 188 0 discriminator 3
 759 0050 95F83433 		ldrb	r3, [r5, #820]	@ zero_extendqisi2
 760 0054 08EE103A 		vmov	s16, r3	@ int
 761 0058 B8EE488A 		vcvt.f32.u32	s16, s16
 762              	.LVL81:
 189:BLE_Task.c    ****         temperature = raw + raw2;
 763              		.loc 1 189 0 discriminator 3
 764 005c 95F83503 		ldrb	r0, [r5, #821]	@ zero_extendqisi2
 765 0060 FFF7FEFF 		bl	__aeabi_i2d
 766              	.LVL82:
 767 0064 0022     		movs	r2, #0
 768 0066 164B     		ldr	r3, .L55+16
 769 0068 FFF7FEFF 		bl	__aeabi_dmul
 770              	.LVL83:
 771 006c FFF7FEFF 		bl	__aeabi_d2f
ARM GAS  C:\Users\xhuli\AppData\Local\Temp\ccrNCJrA.s 			page 40


 772              	.LVL84:
 190:BLE_Task.c    ****     }
 773              		.loc 1 190 0 discriminator 3
 774 0070 07EE900A 		vmov	s15, r0
 775 0074 38EE278A 		vadd.f32	s16, s16, s15
 776              	.LVL85:
 777 0078 85EDCE8A 		vstr.32	s16, [r5, #824]
 186:BLE_Task.c    ****         Cy_SCB_I2C_MasterReadByte(I2C_HW, CY_SCB_I2C_ACK, &I2C_Data[i], 0, &I2C_context);
 778              		.loc 1 186 0 discriminator 3
 779 007c 0134     		adds	r4, r4, #1
 780              	.LVL86:
 781              	.L52:
 186:BLE_Task.c    ****         Cy_SCB_I2C_MasterReadByte(I2C_HW, CY_SCB_I2C_ACK, &I2C_Data[i], 0, &I2C_context);
 782              		.loc 1 186 0 is_stmt 0 discriminator 1
 783 007e 012C     		cmp	r4, #1
 784 0080 DBD9     		bls	.L53
 785              	.LBE33:
 193:BLE_Task.c    ****     Cy_SCB_I2C_MasterSendStop(I2C_HW, 0, &I2C_context);
 786              		.loc 1 193 0 is_stmt 1
 787 0082 0E4C     		ldr	r4, .L55+12
 788              	.LVL87:
 789 0084 0B4D     		ldr	r5, .L55+4
 790 0086 0C4E     		ldr	r6, .L55+8
 791 0088 0096     		str	r6, [sp]
 792 008a 0023     		movs	r3, #0
 793 008c 04F23732 		addw	r2, r4, #823
 794 0090 0121     		movs	r1, #1
 795 0092 2846     		mov	r0, r5
 796 0094 FFF7FEFF 		bl	Cy_SCB_I2C_MasterReadByte
 797              	.LVL88:
 194:BLE_Task.c    ****     
 798              		.loc 1 194 0
 799 0098 3246     		mov	r2, r6
 800 009a 0021     		movs	r1, #0
 801 009c 2846     		mov	r0, r5
 802 009e FFF7FEFF 		bl	Cy_SCB_I2C_MasterSendStop
 803              	.LVL89:
 197:BLE_Task.c    **** 
 804              		.loc 1 197 0
 805 00a2 D4F83803 		ldr	r0, [r4, #824]	@ float
 806 00a6 02B0     		add	sp, sp, #8
 807              		.cfi_def_cfa_offset 24
 808              		@ sp needed
 809 00a8 BDEC028B 		vldm	sp!, {d8}
 810              		.cfi_restore 80
 811              		.cfi_restore 81
 812              		.cfi_def_cfa_offset 16
 813 00ac 70BD     		pop	{r4, r5, r6, pc}
 814              	.L56:
 815 00ae 00BF     		.align	2
 816              	.L55:
 817 00b0 00000000 		.word	.LANCHOR1
 818 00b4 00006740 		.word	1080492032
 819 00b8 00000000 		.word	I2C_context
 820 00bc 00000000 		.word	.LANCHOR0
 821 00c0 0000703F 		.word	1064304640
 822              		.cfi_endproc
ARM GAS  C:\Users\xhuli\AppData\Local\Temp\ccrNCJrA.s 			page 41


 823              	.LFE591:
 824              		.size	getTemperature, .-getTemperature
 825              		.section	.text.sendTempData,"ax",%progbits
 826              		.align	2
 827              		.global	sendTempData
 828              		.thumb
 829              		.thumb_func
 830              		.type	sendTempData, %function
 831              	sendTempData:
 832              	.LFB592:
 203:BLE_Task.c    ****     cy_stc_ble_gatt_handle_value_pair_t serviceHandle;
 833              		.loc 1 203 0
 834              		.cfi_startproc
 835              		@ args = 0, pretend = 0, frame = 24
 836              		@ frame_needed = 0, uses_anonymous_args = 0
 837 0000 00B5     		push	{lr}
 838              		.cfi_def_cfa_offset 4
 839              		.cfi_offset 14, -4
 840 0002 87B0     		sub	sp, sp, #28
 841              		.cfi_def_cfa_offset 32
 205:BLE_Task.c    ****     
 842              		.loc 1 205 0
 843 0004 1A23     		movs	r3, #26
 844 0006 ADF81430 		strh	r3, [sp, #20]	@ movhi
 209:BLE_Task.c    ****     
 845              		.loc 1 209 0
 846 000a FFF7FEFF 		bl	getTemperature
 847              	.LVL90:
 848 000e FFF7FEFF 		bl	__aeabi_f2d
 849              	.LVL91:
 850 0012 0246     		mov	r2, r0
 851 0014 0B46     		mov	r3, r1
 852 0016 0E49     		ldr	r1, .L61
 853 0018 01A8     		add	r0, sp, #4
 854 001a FFF7FEFF 		bl	sprintf
 855              	.LVL92:
 856              	.LBB34:
 211:BLE_Task.c    ****     {
 857              		.loc 1 211 0
 858 001e 0023     		movs	r3, #0
 859 0020 08E0     		b	.L58
 860              	.LVL93:
 861              	.L59:
 213:BLE_Task.c    ****     }
 862              		.loc 1 213 0 discriminator 3
 863 0022 06AA     		add	r2, sp, #24
 864 0024 1A44     		add	r2, r2, r3
 865 0026 12F8141C 		ldrb	r1, [r2, #-20]	@ zero_extendqisi2
 866 002a 0A4A     		ldr	r2, .L61+4
 867 002c 1A44     		add	r2, r2, r3
 868 002e 82F83C13 		strb	r1, [r2, #828]
 211:BLE_Task.c    ****     {
 869              		.loc 1 211 0 discriminator 3
 870 0032 0133     		adds	r3, r3, #1
 871              	.LVL94:
 872              	.L58:
 211:BLE_Task.c    ****     {
ARM GAS  C:\Users\xhuli\AppData\Local\Temp\ccrNCJrA.s 			page 42


 873              		.loc 1 211 0 is_stmt 0 discriminator 1
 874 0034 042B     		cmp	r3, #4
 875 0036 F4D9     		bls	.L59
 876              	.LBE34:
 216:BLE_Task.c    ****     serviceHandle.value.val = (uint8_t*) &I2C_bytes;
 877              		.loc 1 216 0 is_stmt 1
 878 0038 0523     		movs	r3, #5
 879              	.LVL95:
 880 003a ADF81030 		strh	r3, [sp, #16]	@ movhi
 217:BLE_Task.c    ****     
 881              		.loc 1 217 0
 882 003e 06A8     		add	r0, sp, #24
 883 0040 054B     		ldr	r3, .L61+8
 884 0042 40F80C3D 		str	r3, [r0, #-12]!
 219:BLE_Task.c    **** }
 885              		.loc 1 219 0
 886 0046 FFF7FEFF 		bl	Cy_BLE_GATTS_WriteAttributeValueLocal
 887              	.LVL96:
 220:BLE_Task.c    **** 
 888              		.loc 1 220 0
 889 004a 07B0     		add	sp, sp, #28
 890              		.cfi_def_cfa_offset 4
 891              		@ sp needed
 892 004c 5DF804FB 		ldr	pc, [sp], #4
 893              	.L62:
 894              		.align	2
 895              	.L61:
 896 0050 D8000000 		.word	.LC7
 897 0054 00000000 		.word	.LANCHOR0
 898 0058 3C030000 		.word	.LANCHOR0+828
 899              		.cfi_endproc
 900              	.LFE592:
 901              		.size	sendTempData, .-sendTempData
 902              		.section	.text.writeRefValue,"ax",%progbits
 903              		.align	2
 904              		.global	writeRefValue
 905              		.thumb
 906              		.thumb_func
 907              		.type	writeRefValue, %function
 908              	writeRefValue:
 909              	.LFB593:
 225:BLE_Task.c    ****     //Value pair for the BLE service
 910              		.loc 1 225 0
 911              		.cfi_startproc
 912              		@ args = 0, pretend = 0, frame = 24
 913              		@ frame_needed = 0, uses_anonymous_args = 0
 914 0000 00B5     		push	{lr}
 915              		.cfi_def_cfa_offset 4
 916              		.cfi_offset 14, -4
 917 0002 87B0     		sub	sp, sp, #28
 918              		.cfi_def_cfa_offset 32
 230:BLE_Task.c    ****     //ADC Value
 919              		.loc 1 230 0
 920 0004 1623     		movs	r3, #22
 921 0006 ADF81430 		strh	r3, [sp, #20]	@ movhi
 922              	.LVL97:
 923              	.LBB38:
ARM GAS  C:\Users\xhuli\AppData\Local\Temp\ccrNCJrA.s 			page 43


 924              	.LBB39:
 984:Generated_Source\PSoC6/ADC.h **** 
 925              		.loc 2 984 0
 926 000a 184B     		ldr	r3, .L68
 927 000c 1B68     		ldr	r3, [r3]
 928 000e 03EB8303 		add	r3, r3, r3, lsl #2
 929 0012 9A00     		lsls	r2, r3, #2
 930 0014 164B     		ldr	r3, .L68+4
 931 0016 1A44     		add	r2, r2, r3
 932 0018 5368     		ldr	r3, [r2, #4]
 933 001a 23B9     		cbnz	r3, .L64
 934 001c 4FF47671 		mov	r1, #984
 935 0020 1448     		ldr	r0, .L68+8
 936 0022 FFF7FEFF 		bl	Cy_SysLib_AssertFailed
 937              	.LVL98:
 938              	.L64:
 939              		.loc 2 986 0
 940 0026 0021     		movs	r1, #0
 941 0028 1348     		ldr	r0, .L68+12
 942 002a FFF7FEFF 		bl	Cy_SAR_GetResult16
 943              	.LVL99:
 944              	.LBE39:
 945              	.LBE38:
 236:BLE_Task.c    ****     //Passing each ASCII character to 8-bit unsigned integer 
 946              		.loc 1 236 0
 947 002e 82B2     		uxth	r2, r0
 948 0030 1249     		ldr	r1, .L68+16
 949 0032 01A8     		add	r0, sp, #4
 950 0034 FFF7FEFF 		bl	sprintf
 951              	.LVL100:
 952              	.LBB40:
 238:BLE_Task.c    ****     {
 953              		.loc 1 238 0
 954 0038 0023     		movs	r3, #0
 955 003a 08E0     		b	.L65
 956              	.LVL101:
 957              	.L66:
 240:BLE_Task.c    ****     }
 958              		.loc 1 240 0 discriminator 3
 959 003c 06AA     		add	r2, sp, #24
 960 003e 1A44     		add	r2, r2, r3
 961 0040 12F8141C 		ldrb	r1, [r2, #-20]	@ zero_extendqisi2
 962 0044 0E4A     		ldr	r2, .L68+20
 963 0046 1A44     		add	r2, r2, r3
 964 0048 82F84413 		strb	r1, [r2, #836]
 238:BLE_Task.c    ****     {
 965              		.loc 1 238 0 discriminator 3
 966 004c 0133     		adds	r3, r3, #1
 967              	.LVL102:
 968              	.L65:
 238:BLE_Task.c    ****     {
 969              		.loc 1 238 0 is_stmt 0 discriminator 1
 970 004e 032B     		cmp	r3, #3
 971 0050 F4DD     		ble	.L66
 972              	.LBE40:
 243:BLE_Task.c    ****     serviceHandle.value.val = (uint8_t*) &ADC_bytes;
 973              		.loc 1 243 0 is_stmt 1
ARM GAS  C:\Users\xhuli\AppData\Local\Temp\ccrNCJrA.s 			page 44


 974 0052 0423     		movs	r3, #4
 975              	.LVL103:
 976 0054 ADF81030 		strh	r3, [sp, #16]	@ movhi
 244:BLE_Task.c    ****     //Updating local GATT database
 977              		.loc 1 244 0
 978 0058 06A8     		add	r0, sp, #24
 979 005a 0A4B     		ldr	r3, .L68+24
 980 005c 40F80C3D 		str	r3, [r0, #-12]!
 246:BLE_Task.c    **** }
 981              		.loc 1 246 0
 982 0060 FFF7FEFF 		bl	Cy_BLE_GATTS_WriteAttributeValueLocal
 983              	.LVL104:
 247:BLE_Task.c    **** 
 984              		.loc 1 247 0
 985 0064 07B0     		add	sp, sp, #28
 986              		.cfi_def_cfa_offset 4
 987              		@ sp needed
 988 0066 5DF804FB 		ldr	pc, [sp], #4
 989              	.L69:
 990 006a 00BF     		.align	2
 991              	.L68:
 992 006c 00000000 		.word	ADC_currentConfig
 993 0070 00000000 		.word	ADC_allConfigs
 994 0074 20000000 		.word	.LC1
 995 0078 00001D41 		.word	1092419584
 996 007c DC000000 		.word	.LC8
 997 0080 00000000 		.word	.LANCHOR0
 998 0084 44030000 		.word	.LANCHOR0+836
 999              		.cfi_endproc
 1000              	.LFE593:
 1001              		.size	writeRefValue, .-writeRefValue
 1002              		.section	.text.shiftOut,"ax",%progbits
 1003              		.align	2
 1004              		.global	shiftOut
 1005              		.thumb
 1006              		.thumb_func
 1007              		.type	shiftOut, %function
 1008              	shiftOut:
 1009              	.LFB594:
 253:BLE_Task.c    ****         uint8_t i;
 1010              		.loc 1 253 0
 1011              		.cfi_startproc
 1012              		@ args = 0, pretend = 0, frame = 0
 1013              		@ frame_needed = 0, uses_anonymous_args = 0
 1014              	.LVL105:
 1015 0000 70B5     		push	{r4, r5, r6, lr}
 1016              		.cfi_def_cfa_offset 16
 1017              		.cfi_offset 4, -16
 1018              		.cfi_offset 5, -12
 1019              		.cfi_offset 6, -8
 1020              		.cfi_offset 14, -4
 1021 0002 0646     		mov	r6, r0
 1022 0004 0D46     		mov	r5, r1
 1023              	.LVL106:
 1024              	.LBB41:
 1025              	.LBB42:
 1026              		.file 3 "Generated_Source\\PSoC6\\pdl\\drivers/peripheral/gpio/cy_gpio.h"
ARM GAS  C:\Users\xhuli\AppData\Local\Temp\ccrNCJrA.s 			page 45


   1:Generated_Source\PSoC6\pdl\drivers/peripheral/gpio/cy_gpio.h **** /***************************************************************************//**
   2:Generated_Source\PSoC6\pdl\drivers/peripheral/gpio/cy_gpio.h **** * \file cy_gpio.h
   3:Generated_Source\PSoC6\pdl\drivers/peripheral/gpio/cy_gpio.h **** * \version 1.20
   4:Generated_Source\PSoC6\pdl\drivers/peripheral/gpio/cy_gpio.h **** *
   5:Generated_Source\PSoC6\pdl\drivers/peripheral/gpio/cy_gpio.h **** * Provides an API declaration of the GPIO driver
   6:Generated_Source\PSoC6\pdl\drivers/peripheral/gpio/cy_gpio.h **** *
   7:Generated_Source\PSoC6\pdl\drivers/peripheral/gpio/cy_gpio.h **** ********************************************************************************
   8:Generated_Source\PSoC6\pdl\drivers/peripheral/gpio/cy_gpio.h **** * \copyright
   9:Generated_Source\PSoC6\pdl\drivers/peripheral/gpio/cy_gpio.h **** * Copyright 2016-2018, Cypress Semiconductor Corporation. All rights reserved.
  10:Generated_Source\PSoC6\pdl\drivers/peripheral/gpio/cy_gpio.h **** * You may use this file only in accordance with the license, terms, conditions,
  11:Generated_Source\PSoC6\pdl\drivers/peripheral/gpio/cy_gpio.h **** * disclaimers, and limitations in the end user license agreement accompanying
  12:Generated_Source\PSoC6\pdl\drivers/peripheral/gpio/cy_gpio.h **** * the software package with which this file was provided.
  13:Generated_Source\PSoC6\pdl\drivers/peripheral/gpio/cy_gpio.h **** *******************************************************************************/
  14:Generated_Source\PSoC6\pdl\drivers/peripheral/gpio/cy_gpio.h **** 
  15:Generated_Source\PSoC6\pdl\drivers/peripheral/gpio/cy_gpio.h **** /**
  16:Generated_Source\PSoC6\pdl\drivers/peripheral/gpio/cy_gpio.h **** * \addtogroup group_gpio
  17:Generated_Source\PSoC6\pdl\drivers/peripheral/gpio/cy_gpio.h **** * \{
  18:Generated_Source\PSoC6\pdl\drivers/peripheral/gpio/cy_gpio.h **** * The GPIO driver provides an API to configure and access device Input/Output pins.
  19:Generated_Source\PSoC6\pdl\drivers/peripheral/gpio/cy_gpio.h **** *
  20:Generated_Source\PSoC6\pdl\drivers/peripheral/gpio/cy_gpio.h **** * The functions and other declarations used in this driver are in cy_gpio.h. 
  21:Generated_Source\PSoC6\pdl\drivers/peripheral/gpio/cy_gpio.h **** * You can include cy_pdl.h (ModusToolbox only) to get access to all functions 
  22:Generated_Source\PSoC6\pdl\drivers/peripheral/gpio/cy_gpio.h **** * and declarations in the PDL.
  23:Generated_Source\PSoC6\pdl\drivers/peripheral/gpio/cy_gpio.h **** *
  24:Generated_Source\PSoC6\pdl\drivers/peripheral/gpio/cy_gpio.h **** * IO pins include all general purpose types such as GPIO, SIO, HSIO, AUXIO, and
  25:Generated_Source\PSoC6\pdl\drivers/peripheral/gpio/cy_gpio.h **** * their variants.
  26:Generated_Source\PSoC6\pdl\drivers/peripheral/gpio/cy_gpio.h **** *
  27:Generated_Source\PSoC6\pdl\drivers/peripheral/gpio/cy_gpio.h **** * Initialization can be performed either at the port level or by configuring the
  28:Generated_Source\PSoC6\pdl\drivers/peripheral/gpio/cy_gpio.h **** * individual pins. For efficient use of code space, port
  29:Generated_Source\PSoC6\pdl\drivers/peripheral/gpio/cy_gpio.h **** * configuration should be used in the field. Refer to the product device header files 
  30:Generated_Source\PSoC6\pdl\drivers/peripheral/gpio/cy_gpio.h **** * for the list of supported ports and pins.
  31:Generated_Source\PSoC6\pdl\drivers/peripheral/gpio/cy_gpio.h **** * 
  32:Generated_Source\PSoC6\pdl\drivers/peripheral/gpio/cy_gpio.h **** * - Single pin configuration is performed by using \ref Cy_GPIO_Pin_FastInit 
  33:Generated_Source\PSoC6\pdl\drivers/peripheral/gpio/cy_gpio.h **** *   (provide specific values) or \ref Cy_GPIO_Pin_Init (provide a filled
  34:Generated_Source\PSoC6\pdl\drivers/peripheral/gpio/cy_gpio.h **** *   cy_stc_gpio_pin_config_t structure).
  35:Generated_Source\PSoC6\pdl\drivers/peripheral/gpio/cy_gpio.h **** * - An entire port can be configured using \ref Cy_GPIO_Port_Init. Provide a filled 
  36:Generated_Source\PSoC6\pdl\drivers/peripheral/gpio/cy_gpio.h **** *   cy_stc_gpio_prt_config_t structure. The values in the structure are 
  37:Generated_Source\PSoC6\pdl\drivers/peripheral/gpio/cy_gpio.h **** *   bitfields representing the desired value for each pin in the port.
  38:Generated_Source\PSoC6\pdl\drivers/peripheral/gpio/cy_gpio.h **** * - Pin configuration and management is based on the port address and pin number.
  39:Generated_Source\PSoC6\pdl\drivers/peripheral/gpio/cy_gpio.h **** *   \ref Cy_GPIO_PortToAddr function can optionally be used to calculate the port
  40:Generated_Source\PSoC6\pdl\drivers/peripheral/gpio/cy_gpio.h **** *   address from the port number at run-time.
  41:Generated_Source\PSoC6\pdl\drivers/peripheral/gpio/cy_gpio.h **** *
  42:Generated_Source\PSoC6\pdl\drivers/peripheral/gpio/cy_gpio.h **** * Once the pin/port initialization is complete, each pin can be accessed by 
  43:Generated_Source\PSoC6\pdl\drivers/peripheral/gpio/cy_gpio.h **** * specifying the port (GPIO_PRT_Type) and the pin (0-7) in the provided API 
  44:Generated_Source\PSoC6\pdl\drivers/peripheral/gpio/cy_gpio.h **** * functions.
  45:Generated_Source\PSoC6\pdl\drivers/peripheral/gpio/cy_gpio.h **** *
  46:Generated_Source\PSoC6\pdl\drivers/peripheral/gpio/cy_gpio.h **** * \section group_gpio_configuration Configuration Considerations
  47:Generated_Source\PSoC6\pdl\drivers/peripheral/gpio/cy_gpio.h **** *
  48:Generated_Source\PSoC6\pdl\drivers/peripheral/gpio/cy_gpio.h **** * 1. Pin multiplexing is controlled through the High-Speed IO Matrix (HSIOM) selection.
  49:Generated_Source\PSoC6\pdl\drivers/peripheral/gpio/cy_gpio.h **** *    This allows the pin to connect to signal sources/sinks throughout the device,
  50:Generated_Source\PSoC6\pdl\drivers/peripheral/gpio/cy_gpio.h **** *    as defined by the pin HSIOM selection options (en_hsiom_sel_t).
  51:Generated_Source\PSoC6\pdl\drivers/peripheral/gpio/cy_gpio.h **** * 2. All pins are initialized to High-Z drive mode with HSIOM connected to CPU (SW
  52:Generated_Source\PSoC6\pdl\drivers/peripheral/gpio/cy_gpio.h **** *    control digital pin only) at Power-On-Reset(POR).
  53:Generated_Source\PSoC6\pdl\drivers/peripheral/gpio/cy_gpio.h **** * 3. Some API functions perform read-modify-write operations on shared port
  54:Generated_Source\PSoC6\pdl\drivers/peripheral/gpio/cy_gpio.h **** *    registers. These functions are not thread safe and care must be taken when
  55:Generated_Source\PSoC6\pdl\drivers/peripheral/gpio/cy_gpio.h **** *    called by the application.
  56:Generated_Source\PSoC6\pdl\drivers/peripheral/gpio/cy_gpio.h **** * 4. Digital input buffer provides a high-impedance buffer for the external 
  57:Generated_Source\PSoC6\pdl\drivers/peripheral/gpio/cy_gpio.h **** *    digital input. The input buffer is connected to the HSIOM for routing to 
ARM GAS  C:\Users\xhuli\AppData\Local\Temp\ccrNCJrA.s 			page 46


  58:Generated_Source\PSoC6\pdl\drivers/peripheral/gpio/cy_gpio.h **** *    the CPU port registers and selected peripheral. Enabling the input 
  59:Generated_Source\PSoC6\pdl\drivers/peripheral/gpio/cy_gpio.h **** *    buffer provides possibility to read the pin state via the CPU.
  60:Generated_Source\PSoC6\pdl\drivers/peripheral/gpio/cy_gpio.h **** *    If pin is connected to an analog signal, the input buffer should be 
  61:Generated_Source\PSoC6\pdl\drivers/peripheral/gpio/cy_gpio.h **** *    disabled to avoid crowbar currents. For more information refer to device 
  62:Generated_Source\PSoC6\pdl\drivers/peripheral/gpio/cy_gpio.h **** *    TRM and the device datasheet.
  63:Generated_Source\PSoC6\pdl\drivers/peripheral/gpio/cy_gpio.h **** *
  64:Generated_Source\PSoC6\pdl\drivers/peripheral/gpio/cy_gpio.h **** * Multiple pins on a port can be updated using direct port register writes with an
  65:Generated_Source\PSoC6\pdl\drivers/peripheral/gpio/cy_gpio.h **** * appropriate port mask. An example is shown below, highlighting the different ways of 
  66:Generated_Source\PSoC6\pdl\drivers/peripheral/gpio/cy_gpio.h **** * configuring Port 1 pins using:
  67:Generated_Source\PSoC6\pdl\drivers/peripheral/gpio/cy_gpio.h **** * 
  68:Generated_Source\PSoC6\pdl\drivers/peripheral/gpio/cy_gpio.h **** * - Port output data register
  69:Generated_Source\PSoC6\pdl\drivers/peripheral/gpio/cy_gpio.h **** * - Port output data set register
  70:Generated_Source\PSoC6\pdl\drivers/peripheral/gpio/cy_gpio.h **** * - Port output data clear register
  71:Generated_Source\PSoC6\pdl\drivers/peripheral/gpio/cy_gpio.h **** *
  72:Generated_Source\PSoC6\pdl\drivers/peripheral/gpio/cy_gpio.h **** * \snippet gpio/gpio_v1_10_sut_01.cydsn/main_cm4.c Cy_GPIO_Snippet
  73:Generated_Source\PSoC6\pdl\drivers/peripheral/gpio/cy_gpio.h **** *
  74:Generated_Source\PSoC6\pdl\drivers/peripheral/gpio/cy_gpio.h **** * \section group_gpio_more_information More Information
  75:Generated_Source\PSoC6\pdl\drivers/peripheral/gpio/cy_gpio.h **** *
  76:Generated_Source\PSoC6\pdl\drivers/peripheral/gpio/cy_gpio.h **** * Refer to the technical reference manual (TRM) and the device datasheet.
  77:Generated_Source\PSoC6\pdl\drivers/peripheral/gpio/cy_gpio.h **** *
  78:Generated_Source\PSoC6\pdl\drivers/peripheral/gpio/cy_gpio.h **** * \section group_gpio_MISRA MISRA-C Compliance
  79:Generated_Source\PSoC6\pdl\drivers/peripheral/gpio/cy_gpio.h **** * The GPIO driver has the following specific deviations:
  80:Generated_Source\PSoC6\pdl\drivers/peripheral/gpio/cy_gpio.h **** *
  81:Generated_Source\PSoC6\pdl\drivers/peripheral/gpio/cy_gpio.h **** * <table class="doxtable">
  82:Generated_Source\PSoC6\pdl\drivers/peripheral/gpio/cy_gpio.h **** *   <tr>
  83:Generated_Source\PSoC6\pdl\drivers/peripheral/gpio/cy_gpio.h **** *     <th>MISRA Rule</th>
  84:Generated_Source\PSoC6\pdl\drivers/peripheral/gpio/cy_gpio.h **** *     <th>Rule Class (Required/Advisory)</th>
  85:Generated_Source\PSoC6\pdl\drivers/peripheral/gpio/cy_gpio.h **** *     <th>Rule Description</th>
  86:Generated_Source\PSoC6\pdl\drivers/peripheral/gpio/cy_gpio.h **** *     <th>Description of Deviation(s)</th>
  87:Generated_Source\PSoC6\pdl\drivers/peripheral/gpio/cy_gpio.h **** *   </tr>
  88:Generated_Source\PSoC6\pdl\drivers/peripheral/gpio/cy_gpio.h **** *   <tr>
  89:Generated_Source\PSoC6\pdl\drivers/peripheral/gpio/cy_gpio.h **** *     <td>11.4</td>
  90:Generated_Source\PSoC6\pdl\drivers/peripheral/gpio/cy_gpio.h **** *     <td>A</td>
  91:Generated_Source\PSoC6\pdl\drivers/peripheral/gpio/cy_gpio.h **** *     <td>A cast should not be performed between a pointer to object type and
  92:Generated_Source\PSoC6\pdl\drivers/peripheral/gpio/cy_gpio.h **** *         a different pointer to object type.</td>
  93:Generated_Source\PSoC6\pdl\drivers/peripheral/gpio/cy_gpio.h **** *     <td> This code is safe because the elements of both GPIO_PRT_V1_Type and GPIO_PRT_V2_Type 
  94:Generated_Source\PSoC6\pdl\drivers/peripheral/gpio/cy_gpio.h **** *          types have identical alignment.</td>
  95:Generated_Source\PSoC6\pdl\drivers/peripheral/gpio/cy_gpio.h **** *   </tr>
  96:Generated_Source\PSoC6\pdl\drivers/peripheral/gpio/cy_gpio.h **** *   <tr>
  97:Generated_Source\PSoC6\pdl\drivers/peripheral/gpio/cy_gpio.h **** *     <td>16.7</td>
  98:Generated_Source\PSoC6\pdl\drivers/peripheral/gpio/cy_gpio.h **** *     <td>A</td>
  99:Generated_Source\PSoC6\pdl\drivers/peripheral/gpio/cy_gpio.h **** *     <td>A pointer parameter in a function prototype should be declared as pointer 
 100:Generated_Source\PSoC6\pdl\drivers/peripheral/gpio/cy_gpio.h **** *         to const if the pointer is not used to modify the addressed object.</td>
 101:Generated_Source\PSoC6\pdl\drivers/peripheral/gpio/cy_gpio.h **** *     <td>The objects pointed to by the base addresses of the GPIO port are not always modified.
 102:Generated_Source\PSoC6\pdl\drivers/peripheral/gpio/cy_gpio.h **** *         While a const qualifier can be used in select scenarios, it brings little benefit
 103:Generated_Source\PSoC6\pdl\drivers/peripheral/gpio/cy_gpio.h **** *         in adding this to the affected functions. </td>
 104:Generated_Source\PSoC6\pdl\drivers/peripheral/gpio/cy_gpio.h **** *   </tr>
 105:Generated_Source\PSoC6\pdl\drivers/peripheral/gpio/cy_gpio.h **** * </table>
 106:Generated_Source\PSoC6\pdl\drivers/peripheral/gpio/cy_gpio.h **** *
 107:Generated_Source\PSoC6\pdl\drivers/peripheral/gpio/cy_gpio.h **** * \section group_gpio_changelog Changelog
 108:Generated_Source\PSoC6\pdl\drivers/peripheral/gpio/cy_gpio.h **** * <table class="doxtable">
 109:Generated_Source\PSoC6\pdl\drivers/peripheral/gpio/cy_gpio.h **** *   <tr><th>Version</th><th>Changes</th><th>Reason for Change</th></tr>
 110:Generated_Source\PSoC6\pdl\drivers/peripheral/gpio/cy_gpio.h **** *   <tr>
 111:Generated_Source\PSoC6\pdl\drivers/peripheral/gpio/cy_gpio.h **** *     <td rowspan="3">1.20</td>
 112:Generated_Source\PSoC6\pdl\drivers/peripheral/gpio/cy_gpio.h **** *     <td>Flattened the organization of the driver source code into the single source directory and
 113:Generated_Source\PSoC6\pdl\drivers/peripheral/gpio/cy_gpio.h **** *     <td>Driver library directory-structure simplification.</td>
 114:Generated_Source\PSoC6\pdl\drivers/peripheral/gpio/cy_gpio.h **** *   </tr>
ARM GAS  C:\Users\xhuli\AppData\Local\Temp\ccrNCJrA.s 			page 47


 115:Generated_Source\PSoC6\pdl\drivers/peripheral/gpio/cy_gpio.h **** *   <tr>
 116:Generated_Source\PSoC6\pdl\drivers/peripheral/gpio/cy_gpio.h **** *     <td>Added the functions for configuring the AMux bus splitter switch cells:
 117:Generated_Source\PSoC6\pdl\drivers/peripheral/gpio/cy_gpio.h **** *     - \ref Cy_GPIO_SetAmuxSplit
 118:Generated_Source\PSoC6\pdl\drivers/peripheral/gpio/cy_gpio.h **** *     - \ref Cy_GPIO_GetAmuxSplit
 119:Generated_Source\PSoC6\pdl\drivers/peripheral/gpio/cy_gpio.h **** *     </td>
 120:Generated_Source\PSoC6\pdl\drivers/peripheral/gpio/cy_gpio.h **** *     <td>Added a new functionality related to AMux bus.</td>
 121:Generated_Source\PSoC6\pdl\drivers/peripheral/gpio/cy_gpio.h **** *   </tr>
 122:Generated_Source\PSoC6\pdl\drivers/peripheral/gpio/cy_gpio.h **** *   <tr>
 123:Generated_Source\PSoC6\pdl\drivers/peripheral/gpio/cy_gpio.h **** *     <td>Added register access layer. Use register access macros instead
 124:Generated_Source\PSoC6\pdl\drivers/peripheral/gpio/cy_gpio.h **** *         of direct register access using dereferenced pointers.</td>
 125:Generated_Source\PSoC6\pdl\drivers/peripheral/gpio/cy_gpio.h **** *     <td>Makes register access device-independent, so that the PDL does 
 126:Generated_Source\PSoC6\pdl\drivers/peripheral/gpio/cy_gpio.h **** *         not need to be recompiled for each supported part number.</td>
 127:Generated_Source\PSoC6\pdl\drivers/peripheral/gpio/cy_gpio.h **** *   </tr>
 128:Generated_Source\PSoC6\pdl\drivers/peripheral/gpio/cy_gpio.h **** *   <tr>
 129:Generated_Source\PSoC6\pdl\drivers/peripheral/gpio/cy_gpio.h **** *     <td>1.10.1</td>
 130:Generated_Source\PSoC6\pdl\drivers/peripheral/gpio/cy_gpio.h **** *     <td>Updated description for the functions: \ref Cy_GPIO_GetInterruptStatus, 
 131:Generated_Source\PSoC6\pdl\drivers/peripheral/gpio/cy_gpio.h **** *         \ref Cy_GPIO_GetInterruptMask, \ref Cy_GPIO_GetInterruptStatusMasked.
 132:Generated_Source\PSoC6\pdl\drivers/peripheral/gpio/cy_gpio.h **** *
 133:Generated_Source\PSoC6\pdl\drivers/peripheral/gpio/cy_gpio.h **** *         Minor documentation edits.
 134:Generated_Source\PSoC6\pdl\drivers/peripheral/gpio/cy_gpio.h **** *     </td>
 135:Generated_Source\PSoC6\pdl\drivers/peripheral/gpio/cy_gpio.h **** *     <td>Documentation update and clarification</td>
 136:Generated_Source\PSoC6\pdl\drivers/peripheral/gpio/cy_gpio.h **** *   </tr>
 137:Generated_Source\PSoC6\pdl\drivers/peripheral/gpio/cy_gpio.h **** *   <tr>
 138:Generated_Source\PSoC6\pdl\drivers/peripheral/gpio/cy_gpio.h **** *     <td>1.10</td>
 139:Generated_Source\PSoC6\pdl\drivers/peripheral/gpio/cy_gpio.h **** *     <td>Added input parameter validation to the API functions</td>
 140:Generated_Source\PSoC6\pdl\drivers/peripheral/gpio/cy_gpio.h **** *     <td></td>
 141:Generated_Source\PSoC6\pdl\drivers/peripheral/gpio/cy_gpio.h **** *   </tr>
 142:Generated_Source\PSoC6\pdl\drivers/peripheral/gpio/cy_gpio.h **** *   <tr>
 143:Generated_Source\PSoC6\pdl\drivers/peripheral/gpio/cy_gpio.h **** *     <td>1.0</td>
 144:Generated_Source\PSoC6\pdl\drivers/peripheral/gpio/cy_gpio.h **** *     <td>Initial version</td>
 145:Generated_Source\PSoC6\pdl\drivers/peripheral/gpio/cy_gpio.h **** *     <td></td>
 146:Generated_Source\PSoC6\pdl\drivers/peripheral/gpio/cy_gpio.h **** *   </tr>
 147:Generated_Source\PSoC6\pdl\drivers/peripheral/gpio/cy_gpio.h **** * </table>
 148:Generated_Source\PSoC6\pdl\drivers/peripheral/gpio/cy_gpio.h **** *
 149:Generated_Source\PSoC6\pdl\drivers/peripheral/gpio/cy_gpio.h **** * \defgroup group_gpio_macros Macros
 150:Generated_Source\PSoC6\pdl\drivers/peripheral/gpio/cy_gpio.h **** * \defgroup group_gpio_functions Functions
 151:Generated_Source\PSoC6\pdl\drivers/peripheral/gpio/cy_gpio.h **** * \{
 152:Generated_Source\PSoC6\pdl\drivers/peripheral/gpio/cy_gpio.h **** *   \defgroup group_gpio_functions_init       Initialization Functions
 153:Generated_Source\PSoC6\pdl\drivers/peripheral/gpio/cy_gpio.h **** *   \defgroup group_gpio_functions_gpio       GPIO Functions
 154:Generated_Source\PSoC6\pdl\drivers/peripheral/gpio/cy_gpio.h **** *   \defgroup group_gpio_functions_sio        SIO Functions
 155:Generated_Source\PSoC6\pdl\drivers/peripheral/gpio/cy_gpio.h **** *   \defgroup group_gpio_functions_interrupt  Port Interrupt Functions
 156:Generated_Source\PSoC6\pdl\drivers/peripheral/gpio/cy_gpio.h **** * \}
 157:Generated_Source\PSoC6\pdl\drivers/peripheral/gpio/cy_gpio.h **** * \defgroup group_gpio_data_structures Data Structures
 158:Generated_Source\PSoC6\pdl\drivers/peripheral/gpio/cy_gpio.h **** * \defgroup group_gpio_enums Enumerated Types
 159:Generated_Source\PSoC6\pdl\drivers/peripheral/gpio/cy_gpio.h **** */
 160:Generated_Source\PSoC6\pdl\drivers/peripheral/gpio/cy_gpio.h **** 
 161:Generated_Source\PSoC6\pdl\drivers/peripheral/gpio/cy_gpio.h **** #if !defined(CY_GPIO_H)
 162:Generated_Source\PSoC6\pdl\drivers/peripheral/gpio/cy_gpio.h **** #define CY_GPIO_H
 163:Generated_Source\PSoC6\pdl\drivers/peripheral/gpio/cy_gpio.h **** 
 164:Generated_Source\PSoC6\pdl\drivers/peripheral/gpio/cy_gpio.h **** #include <stddef.h>
 165:Generated_Source\PSoC6\pdl\drivers/peripheral/gpio/cy_gpio.h **** #include "cy_device.h"
 166:Generated_Source\PSoC6\pdl\drivers/peripheral/gpio/cy_gpio.h **** #include "cy_device_headers.h"
 167:Generated_Source\PSoC6\pdl\drivers/peripheral/gpio/cy_gpio.h **** #include "cy_syslib.h"
 168:Generated_Source\PSoC6\pdl\drivers/peripheral/gpio/cy_gpio.h **** 
 169:Generated_Source\PSoC6\pdl\drivers/peripheral/gpio/cy_gpio.h **** #if defined(__cplusplus)
 170:Generated_Source\PSoC6\pdl\drivers/peripheral/gpio/cy_gpio.h **** extern "C" {
 171:Generated_Source\PSoC6\pdl\drivers/peripheral/gpio/cy_gpio.h **** #endif
ARM GAS  C:\Users\xhuli\AppData\Local\Temp\ccrNCJrA.s 			page 48


 172:Generated_Source\PSoC6\pdl\drivers/peripheral/gpio/cy_gpio.h **** 
 173:Generated_Source\PSoC6\pdl\drivers/peripheral/gpio/cy_gpio.h **** /** \addtogroup group_gpio_macros
 174:Generated_Source\PSoC6\pdl\drivers/peripheral/gpio/cy_gpio.h **** * \{
 175:Generated_Source\PSoC6\pdl\drivers/peripheral/gpio/cy_gpio.h **** */
 176:Generated_Source\PSoC6\pdl\drivers/peripheral/gpio/cy_gpio.h **** 
 177:Generated_Source\PSoC6\pdl\drivers/peripheral/gpio/cy_gpio.h **** /** Driver major version */
 178:Generated_Source\PSoC6\pdl\drivers/peripheral/gpio/cy_gpio.h **** #define CY_GPIO_DRV_VERSION_MAJOR       1
 179:Generated_Source\PSoC6\pdl\drivers/peripheral/gpio/cy_gpio.h **** 
 180:Generated_Source\PSoC6\pdl\drivers/peripheral/gpio/cy_gpio.h **** /** Driver minor version */
 181:Generated_Source\PSoC6\pdl\drivers/peripheral/gpio/cy_gpio.h **** #define CY_GPIO_DRV_VERSION_MINOR       20
 182:Generated_Source\PSoC6\pdl\drivers/peripheral/gpio/cy_gpio.h **** 
 183:Generated_Source\PSoC6\pdl\drivers/peripheral/gpio/cy_gpio.h **** /** GPIO driver ID */
 184:Generated_Source\PSoC6\pdl\drivers/peripheral/gpio/cy_gpio.h **** #define CY_GPIO_ID CY_PDL_DRV_ID(0x16U)
 185:Generated_Source\PSoC6\pdl\drivers/peripheral/gpio/cy_gpio.h **** 
 186:Generated_Source\PSoC6\pdl\drivers/peripheral/gpio/cy_gpio.h **** /** \} group_gpio_macros */
 187:Generated_Source\PSoC6\pdl\drivers/peripheral/gpio/cy_gpio.h **** 
 188:Generated_Source\PSoC6\pdl\drivers/peripheral/gpio/cy_gpio.h **** 
 189:Generated_Source\PSoC6\pdl\drivers/peripheral/gpio/cy_gpio.h **** /***************************************
 190:Generated_Source\PSoC6\pdl\drivers/peripheral/gpio/cy_gpio.h **** *       Enumerations
 191:Generated_Source\PSoC6\pdl\drivers/peripheral/gpio/cy_gpio.h **** ***************************************/
 192:Generated_Source\PSoC6\pdl\drivers/peripheral/gpio/cy_gpio.h **** /**
 193:Generated_Source\PSoC6\pdl\drivers/peripheral/gpio/cy_gpio.h **** * \addtogroup group_gpio_enums
 194:Generated_Source\PSoC6\pdl\drivers/peripheral/gpio/cy_gpio.h **** * \{
 195:Generated_Source\PSoC6\pdl\drivers/peripheral/gpio/cy_gpio.h **** */
 196:Generated_Source\PSoC6\pdl\drivers/peripheral/gpio/cy_gpio.h **** 
 197:Generated_Source\PSoC6\pdl\drivers/peripheral/gpio/cy_gpio.h **** /** GPIO Driver error codes */
 198:Generated_Source\PSoC6\pdl\drivers/peripheral/gpio/cy_gpio.h **** typedef enum 
 199:Generated_Source\PSoC6\pdl\drivers/peripheral/gpio/cy_gpio.h **** {
 200:Generated_Source\PSoC6\pdl\drivers/peripheral/gpio/cy_gpio.h ****     CY_GPIO_SUCCESS   = 0x00U,                                    /**< Returned successful */
 201:Generated_Source\PSoC6\pdl\drivers/peripheral/gpio/cy_gpio.h ****     CY_GPIO_BAD_PARAM = CY_GPIO_ID | CY_PDL_STATUS_ERROR | 0x01U, /**< Bad parameter was passed */
 202:Generated_Source\PSoC6\pdl\drivers/peripheral/gpio/cy_gpio.h **** } cy_en_gpio_status_t;
 203:Generated_Source\PSoC6\pdl\drivers/peripheral/gpio/cy_gpio.h **** 
 204:Generated_Source\PSoC6\pdl\drivers/peripheral/gpio/cy_gpio.h **** /** AMux switch open/close config */
 205:Generated_Source\PSoC6\pdl\drivers/peripheral/gpio/cy_gpio.h **** typedef enum
 206:Generated_Source\PSoC6\pdl\drivers/peripheral/gpio/cy_gpio.h **** {
 207:Generated_Source\PSoC6\pdl\drivers/peripheral/gpio/cy_gpio.h ****     CY_GPIO_AMUX_OPENALL,   /**< Open ground switch. Open right switch. Open left switch */
 208:Generated_Source\PSoC6\pdl\drivers/peripheral/gpio/cy_gpio.h ****     CY_GPIO_AMUX_L,         /**< Open ground switch. Open right switch. Close left switch */
 209:Generated_Source\PSoC6\pdl\drivers/peripheral/gpio/cy_gpio.h ****     CY_GPIO_AMUX_R,         /**< Open ground switch. Close right switch. Open left switch */
 210:Generated_Source\PSoC6\pdl\drivers/peripheral/gpio/cy_gpio.h ****     CY_GPIO_AMUX_LR,        /**< Open ground switch. Close right switch. Close left switch */
 211:Generated_Source\PSoC6\pdl\drivers/peripheral/gpio/cy_gpio.h ****     CY_GPIO_AMUX_G,         /**< Close ground switch. Open right switch. Open left switch */
 212:Generated_Source\PSoC6\pdl\drivers/peripheral/gpio/cy_gpio.h ****     CY_GPIO_AMUX_GL,        /**< Close ground switch. Open right switch. Close left switch */
 213:Generated_Source\PSoC6\pdl\drivers/peripheral/gpio/cy_gpio.h ****     CY_GPIO_AMUX_GR,        /**< Close ground switch. Close right switch. Open left switch */
 214:Generated_Source\PSoC6\pdl\drivers/peripheral/gpio/cy_gpio.h ****     CY_GPIO_AMUX_GLR,       /**< Close ground switch. Close right switch. Close left switch */
 215:Generated_Source\PSoC6\pdl\drivers/peripheral/gpio/cy_gpio.h **** }cy_en_gpio_amuxconnect_t;
 216:Generated_Source\PSoC6\pdl\drivers/peripheral/gpio/cy_gpio.h **** 
 217:Generated_Source\PSoC6\pdl\drivers/peripheral/gpio/cy_gpio.h **** /**
 218:Generated_Source\PSoC6\pdl\drivers/peripheral/gpio/cy_gpio.h **** * AMux Bus selection
 219:Generated_Source\PSoC6\pdl\drivers/peripheral/gpio/cy_gpio.h **** */
 220:Generated_Source\PSoC6\pdl\drivers/peripheral/gpio/cy_gpio.h **** typedef enum
 221:Generated_Source\PSoC6\pdl\drivers/peripheral/gpio/cy_gpio.h **** {
 222:Generated_Source\PSoC6\pdl\drivers/peripheral/gpio/cy_gpio.h ****     CY_GPIO_AMUXBUSA,       /**< AMuxBus A */
 223:Generated_Source\PSoC6\pdl\drivers/peripheral/gpio/cy_gpio.h ****     CY_GPIO_AMUXBUSB        /**< AMuxBus B */
 224:Generated_Source\PSoC6\pdl\drivers/peripheral/gpio/cy_gpio.h **** }cy_en_gpio_amuxselect_t;
 225:Generated_Source\PSoC6\pdl\drivers/peripheral/gpio/cy_gpio.h **** 
 226:Generated_Source\PSoC6\pdl\drivers/peripheral/gpio/cy_gpio.h **** /** \} group_gpio_enums */
 227:Generated_Source\PSoC6\pdl\drivers/peripheral/gpio/cy_gpio.h **** 
 228:Generated_Source\PSoC6\pdl\drivers/peripheral/gpio/cy_gpio.h **** 
ARM GAS  C:\Users\xhuli\AppData\Local\Temp\ccrNCJrA.s 			page 49


 229:Generated_Source\PSoC6\pdl\drivers/peripheral/gpio/cy_gpio.h **** /***************************************
 230:Generated_Source\PSoC6\pdl\drivers/peripheral/gpio/cy_gpio.h **** *       Configuration Structures
 231:Generated_Source\PSoC6\pdl\drivers/peripheral/gpio/cy_gpio.h **** ***************************************/
 232:Generated_Source\PSoC6\pdl\drivers/peripheral/gpio/cy_gpio.h **** 
 233:Generated_Source\PSoC6\pdl\drivers/peripheral/gpio/cy_gpio.h **** /**
 234:Generated_Source\PSoC6\pdl\drivers/peripheral/gpio/cy_gpio.h **** * \addtogroup group_gpio_data_structures
 235:Generated_Source\PSoC6\pdl\drivers/peripheral/gpio/cy_gpio.h **** * \{
 236:Generated_Source\PSoC6\pdl\drivers/peripheral/gpio/cy_gpio.h **** */
 237:Generated_Source\PSoC6\pdl\drivers/peripheral/gpio/cy_gpio.h **** 
 238:Generated_Source\PSoC6\pdl\drivers/peripheral/gpio/cy_gpio.h **** /** This structure is used to initialize a port of GPIO pins */
 239:Generated_Source\PSoC6\pdl\drivers/peripheral/gpio/cy_gpio.h **** typedef struct 
 240:Generated_Source\PSoC6\pdl\drivers/peripheral/gpio/cy_gpio.h **** {
 241:Generated_Source\PSoC6\pdl\drivers/peripheral/gpio/cy_gpio.h ****     uint32_t out;           /**< Initial output data for the IO pins in the port */
 242:Generated_Source\PSoC6\pdl\drivers/peripheral/gpio/cy_gpio.h ****     uint32_t intrMask;      /**< Interrupt enable mask for the port interrupt */
 243:Generated_Source\PSoC6\pdl\drivers/peripheral/gpio/cy_gpio.h ****     uint32_t intrCfg;       /**< Port pin interrupt edge detection configuration */
 244:Generated_Source\PSoC6\pdl\drivers/peripheral/gpio/cy_gpio.h ****     uint32_t cfg;           /**< Port pin drive modes and input buffer enable configuration */
 245:Generated_Source\PSoC6\pdl\drivers/peripheral/gpio/cy_gpio.h ****     uint32_t cfgIn;         /**< Port pin input buffer configuration */
 246:Generated_Source\PSoC6\pdl\drivers/peripheral/gpio/cy_gpio.h ****     uint32_t cfgOut;        /**< Port pin output buffer configuration */
 247:Generated_Source\PSoC6\pdl\drivers/peripheral/gpio/cy_gpio.h ****     uint32_t cfgSIO;        /**< Port SIO pins configuration */
 248:Generated_Source\PSoC6\pdl\drivers/peripheral/gpio/cy_gpio.h ****     uint32_t sel0Active;    /**< HSIOM selection for port pins 0,1,2,3 */
 249:Generated_Source\PSoC6\pdl\drivers/peripheral/gpio/cy_gpio.h ****     uint32_t sel1Active;    /**< HSIOM selection for port pins 4,5,6,7 */
 250:Generated_Source\PSoC6\pdl\drivers/peripheral/gpio/cy_gpio.h **** } cy_stc_gpio_prt_config_t;
 251:Generated_Source\PSoC6\pdl\drivers/peripheral/gpio/cy_gpio.h **** 
 252:Generated_Source\PSoC6\pdl\drivers/peripheral/gpio/cy_gpio.h **** /** This structure is used to initialize a single GPIO pin */
 253:Generated_Source\PSoC6\pdl\drivers/peripheral/gpio/cy_gpio.h **** typedef struct
 254:Generated_Source\PSoC6\pdl\drivers/peripheral/gpio/cy_gpio.h **** {
 255:Generated_Source\PSoC6\pdl\drivers/peripheral/gpio/cy_gpio.h ****     uint32_t outVal;         /**< Pin output state */
 256:Generated_Source\PSoC6\pdl\drivers/peripheral/gpio/cy_gpio.h ****     uint32_t driveMode;      /**< Drive mode */
 257:Generated_Source\PSoC6\pdl\drivers/peripheral/gpio/cy_gpio.h ****     en_hsiom_sel_t hsiom;    /**< HSIOM selection */
 258:Generated_Source\PSoC6\pdl\drivers/peripheral/gpio/cy_gpio.h ****     uint32_t intEdge;        /**< Interrupt Edge type */
 259:Generated_Source\PSoC6\pdl\drivers/peripheral/gpio/cy_gpio.h ****     uint32_t intMask;        /**< Interrupt enable mask */
 260:Generated_Source\PSoC6\pdl\drivers/peripheral/gpio/cy_gpio.h ****     uint32_t vtrip;          /**< Input buffer voltage trip type */
 261:Generated_Source\PSoC6\pdl\drivers/peripheral/gpio/cy_gpio.h ****     uint32_t slewRate;       /**< Output buffer slew rate */
 262:Generated_Source\PSoC6\pdl\drivers/peripheral/gpio/cy_gpio.h ****     uint32_t driveSel;       /**< Drive strength */
 263:Generated_Source\PSoC6\pdl\drivers/peripheral/gpio/cy_gpio.h ****     uint32_t vregEn;         /**< SIO pair output buffer mode */
 264:Generated_Source\PSoC6\pdl\drivers/peripheral/gpio/cy_gpio.h ****     uint32_t ibufMode;       /**< SIO pair input buffer mode */
 265:Generated_Source\PSoC6\pdl\drivers/peripheral/gpio/cy_gpio.h ****     uint32_t vtripSel;       /**< SIO pair input buffer trip point */
 266:Generated_Source\PSoC6\pdl\drivers/peripheral/gpio/cy_gpio.h ****     uint32_t vrefSel;        /**< SIO pair reference voltage for input buffer trip point */
 267:Generated_Source\PSoC6\pdl\drivers/peripheral/gpio/cy_gpio.h ****     uint32_t vohSel;         /**< SIO pair regulated voltage output level */
 268:Generated_Source\PSoC6\pdl\drivers/peripheral/gpio/cy_gpio.h **** } cy_stc_gpio_pin_config_t;
 269:Generated_Source\PSoC6\pdl\drivers/peripheral/gpio/cy_gpio.h **** 
 270:Generated_Source\PSoC6\pdl\drivers/peripheral/gpio/cy_gpio.h **** /** \} group_gpio_data_structures */
 271:Generated_Source\PSoC6\pdl\drivers/peripheral/gpio/cy_gpio.h **** 
 272:Generated_Source\PSoC6\pdl\drivers/peripheral/gpio/cy_gpio.h **** /***************************************
 273:Generated_Source\PSoC6\pdl\drivers/peripheral/gpio/cy_gpio.h **** *        Constants
 274:Generated_Source\PSoC6\pdl\drivers/peripheral/gpio/cy_gpio.h **** ***************************************/
 275:Generated_Source\PSoC6\pdl\drivers/peripheral/gpio/cy_gpio.h **** 
 276:Generated_Source\PSoC6\pdl\drivers/peripheral/gpio/cy_gpio.h **** /** \cond INTERNAL */
 277:Generated_Source\PSoC6\pdl\drivers/peripheral/gpio/cy_gpio.h **** 
 278:Generated_Source\PSoC6\pdl\drivers/peripheral/gpio/cy_gpio.h **** /* General Constants */
 279:Generated_Source\PSoC6\pdl\drivers/peripheral/gpio/cy_gpio.h **** #define CY_GPIO_PRT_HALF                       (4UL)      /**< Half-way point of a GPIO port */
 280:Generated_Source\PSoC6\pdl\drivers/peripheral/gpio/cy_gpio.h **** #define CY_GPIO_PRT_DEINIT                     (0UL)      /**< De-init value for port registers */
 281:Generated_Source\PSoC6\pdl\drivers/peripheral/gpio/cy_gpio.h **** 
 282:Generated_Source\PSoC6\pdl\drivers/peripheral/gpio/cy_gpio.h **** /* GPIO Masks */
 283:Generated_Source\PSoC6\pdl\drivers/peripheral/gpio/cy_gpio.h **** #define CY_GPIO_HSIOM_MASK                     (0x1FUL)   /**< HSIOM selection mask */
 284:Generated_Source\PSoC6\pdl\drivers/peripheral/gpio/cy_gpio.h **** #define CY_GPIO_OUT_MASK                       (0x01UL)   /**< Single pin mask for OUT register */
 285:Generated_Source\PSoC6\pdl\drivers/peripheral/gpio/cy_gpio.h **** #define CY_GPIO_IN_MASK                        (0x01UL)   /**< Single pin mask for IN register */
ARM GAS  C:\Users\xhuli\AppData\Local\Temp\ccrNCJrA.s 			page 50


 286:Generated_Source\PSoC6\pdl\drivers/peripheral/gpio/cy_gpio.h **** #define CY_GPIO_CFG_DM_MASK                    (0x0FUL)   /**< Single pin mask for drive mode in CF
 287:Generated_Source\PSoC6\pdl\drivers/peripheral/gpio/cy_gpio.h **** #define CY_GPIO_CFG_IN_VTRIP_SEL_MASK          (0x01UL)   /**< Single pin mask for VTRIP selection 
 288:Generated_Source\PSoC6\pdl\drivers/peripheral/gpio/cy_gpio.h **** #define CY_GPIO_CFG_OUT_SLOW_MASK              (0x01UL)   /**< Single pin mask for slew rate in CFG
 289:Generated_Source\PSoC6\pdl\drivers/peripheral/gpio/cy_gpio.h **** #define CY_GPIO_CFG_OUT_DRIVE_SEL_MASK         (0x03UL)   /**< Single pin mask for drive strength i
 290:Generated_Source\PSoC6\pdl\drivers/peripheral/gpio/cy_gpio.h **** #define CY_GPIO_INTR_STATUS_MASK               (0x01UL)   /**< Single pin mask for interrupt status
 291:Generated_Source\PSoC6\pdl\drivers/peripheral/gpio/cy_gpio.h **** #define CY_GPIO_INTR_EN_MASK                   (0x01UL)   /**< Single pin mask for interrupt status
 292:Generated_Source\PSoC6\pdl\drivers/peripheral/gpio/cy_gpio.h **** #define CY_GPIO_INTR_MASKED_MASK               (0x01UL)   /**< Single pin mask for masked interrupt
 293:Generated_Source\PSoC6\pdl\drivers/peripheral/gpio/cy_gpio.h **** #define CY_GPIO_INTR_SET_MASK                  (0x01UL)   /**< Single pin mask for setting the inte
 294:Generated_Source\PSoC6\pdl\drivers/peripheral/gpio/cy_gpio.h **** #define CY_GPIO_INTR_EDGE_MASK                 (0x03UL)   /**< Single pin mask for interrupt edge t
 295:Generated_Source\PSoC6\pdl\drivers/peripheral/gpio/cy_gpio.h **** #define CY_GPIO_INTR_FLT_EDGE_MASK             (0x07UL)   /**< Single pin mask for setting filtered
 296:Generated_Source\PSoC6\pdl\drivers/peripheral/gpio/cy_gpio.h **** 
 297:Generated_Source\PSoC6\pdl\drivers/peripheral/gpio/cy_gpio.h **** /* SIO Masks */
 298:Generated_Source\PSoC6\pdl\drivers/peripheral/gpio/cy_gpio.h **** #define CY_GPIO_VREG_EN_MASK                   (0x01UL)   /**< Single SIO pin mask for voltage regu
 299:Generated_Source\PSoC6\pdl\drivers/peripheral/gpio/cy_gpio.h **** #define CY_GPIO_IBUF_MASK                      (0x01UL)   /**< Single SIO pin mask for input buffer
 300:Generated_Source\PSoC6\pdl\drivers/peripheral/gpio/cy_gpio.h **** #define CY_GPIO_IBUF_SHIFT                     (0x01UL)   /**< Single SIO pin shift for input buffe
 301:Generated_Source\PSoC6\pdl\drivers/peripheral/gpio/cy_gpio.h **** #define CY_GPIO_VTRIP_SEL_MASK                 (0x01UL)   /**< Single SIO pin mask for the input bu
 302:Generated_Source\PSoC6\pdl\drivers/peripheral/gpio/cy_gpio.h **** #define CY_GPIO_VTRIP_SEL_SHIFT                (0x02UL)   /**< Single SIO pin shift for the input b
 303:Generated_Source\PSoC6\pdl\drivers/peripheral/gpio/cy_gpio.h **** #define CY_GPIO_VREF_SEL_MASK                  (0x03UL)   /**< Single SIO pin mask for voltage refe
 304:Generated_Source\PSoC6\pdl\drivers/peripheral/gpio/cy_gpio.h **** #define CY_GPIO_VREF_SEL_SHIFT                 (0x03UL)   /**< Single SIO pin shift for voltage ref
 305:Generated_Source\PSoC6\pdl\drivers/peripheral/gpio/cy_gpio.h **** #define CY_GPIO_VOH_SEL_MASK                   (0x07UL)   /**< Single SIO pin mask for VOH */
 306:Generated_Source\PSoC6\pdl\drivers/peripheral/gpio/cy_gpio.h **** #define CY_GPIO_VOH_SEL_SHIFT                  (0x05UL)   /**< Single SIO pin shift for VOH */
 307:Generated_Source\PSoC6\pdl\drivers/peripheral/gpio/cy_gpio.h **** 
 308:Generated_Source\PSoC6\pdl\drivers/peripheral/gpio/cy_gpio.h **** /* Special mask for SIO pin pair setting */
 309:Generated_Source\PSoC6\pdl\drivers/peripheral/gpio/cy_gpio.h **** #define CY_GPIO_SIO_ODD_PIN_MASK               (0x00FEUL) /**< SIO pin pair selection mask */
 310:Generated_Source\PSoC6\pdl\drivers/peripheral/gpio/cy_gpio.h **** #define CY_GPIO_SIO_PIN_MASK                   (0x00FFUL) /**< SIO pin pair mask */
 311:Generated_Source\PSoC6\pdl\drivers/peripheral/gpio/cy_gpio.h **** 
 312:Generated_Source\PSoC6\pdl\drivers/peripheral/gpio/cy_gpio.h **** /* Offsets */
 313:Generated_Source\PSoC6\pdl\drivers/peripheral/gpio/cy_gpio.h **** #define CY_GPIO_HSIOM_OFFSET                   (3UL)      /**< Offset for HSIOM */
 314:Generated_Source\PSoC6\pdl\drivers/peripheral/gpio/cy_gpio.h **** #define CY_GPIO_DRIVE_MODE_OFFSET              (2UL)      /**< Offset for Drive mode */
 315:Generated_Source\PSoC6\pdl\drivers/peripheral/gpio/cy_gpio.h **** #define CY_GPIO_INBUF_OFFSET                   (3UL)      /**< Offset for input buffer */
 316:Generated_Source\PSoC6\pdl\drivers/peripheral/gpio/cy_gpio.h **** #define CY_GPIO_CFG_OUT_DRIVE_OFFSET           (16UL)     /**< Offset for drive strength */
 317:Generated_Source\PSoC6\pdl\drivers/peripheral/gpio/cy_gpio.h **** #define CY_GPIO_INTR_CFG_OFFSET                (1UL)      /**< Offset for interrupt config */
 318:Generated_Source\PSoC6\pdl\drivers/peripheral/gpio/cy_gpio.h **** #define CY_GPIO_INTR_FILT_OFFSET               (18UL)     /**< Offset for filtered interrupt config
 319:Generated_Source\PSoC6\pdl\drivers/peripheral/gpio/cy_gpio.h **** #define CY_GPIO_CFG_SIO_OFFSET                 (2UL)      /**< Offset for SIO config */
 320:Generated_Source\PSoC6\pdl\drivers/peripheral/gpio/cy_gpio.h **** 
 321:Generated_Source\PSoC6\pdl\drivers/peripheral/gpio/cy_gpio.h **** /* Parameter validation constants */
 322:Generated_Source\PSoC6\pdl\drivers/peripheral/gpio/cy_gpio.h **** #define CY_GPIO_PINS_MAX                       (8UL)      /**< Number of pins in the port */
 323:Generated_Source\PSoC6\pdl\drivers/peripheral/gpio/cy_gpio.h **** #define CY_GPIO_PRT_PINS_MASK                  (0x0000000FFUL)
 324:Generated_Source\PSoC6\pdl\drivers/peripheral/gpio/cy_gpio.h **** #define CY_GPIO_PRT_INTR_CFG_EDGE_SEL_MASK     (GPIO_PRT_INTR_CFG_EDGE0_SEL_Msk | \
 325:Generated_Source\PSoC6\pdl\drivers/peripheral/gpio/cy_gpio.h ****                                                 GPIO_PRT_INTR_CFG_EDGE1_SEL_Msk | \
 326:Generated_Source\PSoC6\pdl\drivers/peripheral/gpio/cy_gpio.h ****                                                 GPIO_PRT_INTR_CFG_EDGE2_SEL_Msk | \
 327:Generated_Source\PSoC6\pdl\drivers/peripheral/gpio/cy_gpio.h ****                                                 GPIO_PRT_INTR_CFG_EDGE3_SEL_Msk | \
 328:Generated_Source\PSoC6\pdl\drivers/peripheral/gpio/cy_gpio.h ****                                                 GPIO_PRT_INTR_CFG_EDGE4_SEL_Msk | \
 329:Generated_Source\PSoC6\pdl\drivers/peripheral/gpio/cy_gpio.h ****                                                 GPIO_PRT_INTR_CFG_EDGE5_SEL_Msk | \
 330:Generated_Source\PSoC6\pdl\drivers/peripheral/gpio/cy_gpio.h ****                                                 GPIO_PRT_INTR_CFG_EDGE6_SEL_Msk | \
 331:Generated_Source\PSoC6\pdl\drivers/peripheral/gpio/cy_gpio.h ****                                                 GPIO_PRT_INTR_CFG_EDGE7_SEL_Msk)
 332:Generated_Source\PSoC6\pdl\drivers/peripheral/gpio/cy_gpio.h **** #define CY_GPIO_PRT_INTR_CFG_RANGE_MASK        (CY_GPIO_PRT_INTR_CFG_EDGE_SEL_MASK | \
 333:Generated_Source\PSoC6\pdl\drivers/peripheral/gpio/cy_gpio.h ****                                                 GPIO_PRT_INTR_CFG_FLT_EDGE_SEL_Msk | \
 334:Generated_Source\PSoC6\pdl\drivers/peripheral/gpio/cy_gpio.h ****                                                 GPIO_PRT_INTR_CFG_FLT_SEL_Msk)
 335:Generated_Source\PSoC6\pdl\drivers/peripheral/gpio/cy_gpio.h **** #define CY_GPIO_PRT_INT_MASK_MASK              (0x0000001FFUL)
 336:Generated_Source\PSoC6\pdl\drivers/peripheral/gpio/cy_gpio.h **** #define CY_GPIO_PRT_SEL_ACTIVE_MASK            (0x1FFFFFFFUL)
 337:Generated_Source\PSoC6\pdl\drivers/peripheral/gpio/cy_gpio.h **** 
 338:Generated_Source\PSoC6\pdl\drivers/peripheral/gpio/cy_gpio.h **** #define GPIO_MAX_SPLIT_CELL_SEGMENTS           (9U)
 339:Generated_Source\PSoC6\pdl\drivers/peripheral/gpio/cy_gpio.h **** 
 340:Generated_Source\PSoC6\pdl\drivers/peripheral/gpio/cy_gpio.h **** /* Parameter validation macros */
 341:Generated_Source\PSoC6\pdl\drivers/peripheral/gpio/cy_gpio.h **** #define CY_GPIO_IS_PIN_VALID(pinNum)           (CY_GPIO_PINS_MAX > (pinNum))
 342:Generated_Source\PSoC6\pdl\drivers/peripheral/gpio/cy_gpio.h **** #define CY_GPIO_IS_FILTER_PIN_VALID(pinNum)    (CY_GPIO_PINS_MAX >= (pinNum))
ARM GAS  C:\Users\xhuli\AppData\Local\Temp\ccrNCJrA.s 			page 51


 343:Generated_Source\PSoC6\pdl\drivers/peripheral/gpio/cy_gpio.h **** #define CY_GPIO_IS_VALUE_VALID(outVal)         (1UL >= (outVal))
 344:Generated_Source\PSoC6\pdl\drivers/peripheral/gpio/cy_gpio.h **** #define CY_GPIO_IS_DM_VALID(driveMode)         (0U == ((driveMode) & (uint32_t)~CY_GPIO_CFG_DM_MASK
 345:Generated_Source\PSoC6\pdl\drivers/peripheral/gpio/cy_gpio.h **** 
 346:Generated_Source\PSoC6\pdl\drivers/peripheral/gpio/cy_gpio.h **** #define CY_GPIO_IS_HSIOM_VALID(hsiom)          (0U == ((hsiom) & (uint32_t)~CY_GPIO_HSIOM_MASK))
 347:Generated_Source\PSoC6\pdl\drivers/peripheral/gpio/cy_gpio.h **** 
 348:Generated_Source\PSoC6\pdl\drivers/peripheral/gpio/cy_gpio.h **** #define CY_GPIO_IS_INT_EDGE_VALID(intEdge)     ((CY_GPIO_INTR_DISABLE  == (intEdge)) || \
 349:Generated_Source\PSoC6\pdl\drivers/peripheral/gpio/cy_gpio.h ****                                                 (CY_GPIO_INTR_RISING   == (intEdge)) || \
 350:Generated_Source\PSoC6\pdl\drivers/peripheral/gpio/cy_gpio.h ****                                                 (CY_GPIO_INTR_FALLING  == (intEdge)) || \
 351:Generated_Source\PSoC6\pdl\drivers/peripheral/gpio/cy_gpio.h ****                                                 (CY_GPIO_INTR_BOTH     == (intEdge)))
 352:Generated_Source\PSoC6\pdl\drivers/peripheral/gpio/cy_gpio.h **** 
 353:Generated_Source\PSoC6\pdl\drivers/peripheral/gpio/cy_gpio.h **** #define CY_GPIO_IS_DRIVE_SEL_VALID(driveSel)   ((CY_GPIO_DRIVE_FULL    == (driveSel)) || \
 354:Generated_Source\PSoC6\pdl\drivers/peripheral/gpio/cy_gpio.h ****                                                 (CY_GPIO_DRIVE_1_2     == (driveSel)) || \
 355:Generated_Source\PSoC6\pdl\drivers/peripheral/gpio/cy_gpio.h ****                                                 (CY_GPIO_DRIVE_1_4     == (driveSel)) || \
 356:Generated_Source\PSoC6\pdl\drivers/peripheral/gpio/cy_gpio.h ****                                                 (CY_GPIO_DRIVE_1_8     == (driveSel)))
 357:Generated_Source\PSoC6\pdl\drivers/peripheral/gpio/cy_gpio.h **** 
 358:Generated_Source\PSoC6\pdl\drivers/peripheral/gpio/cy_gpio.h **** #define CY_GPIO_IS_VREF_SEL_VALID(vrefSel)     ((CY_SIO_VREF_PINREF    == (vrefSel)) || \
 359:Generated_Source\PSoC6\pdl\drivers/peripheral/gpio/cy_gpio.h ****                                                 (CY_SIO_VREF_1_2V      == (vrefSel)) || \
 360:Generated_Source\PSoC6\pdl\drivers/peripheral/gpio/cy_gpio.h ****                                                 (CY_SIO_VREF_AMUX_A    == (vrefSel)) || \
 361:Generated_Source\PSoC6\pdl\drivers/peripheral/gpio/cy_gpio.h ****                                                 (CY_SIO_VREF_AMUX_B    == (vrefSel)))
 362:Generated_Source\PSoC6\pdl\drivers/peripheral/gpio/cy_gpio.h **** 
 363:Generated_Source\PSoC6\pdl\drivers/peripheral/gpio/cy_gpio.h **** #define CY_GPIO_IS_VOH_SEL_VALID(vrefSel)      ((CY_SIO_VOH_1_00       == (vrefSel)) || \
 364:Generated_Source\PSoC6\pdl\drivers/peripheral/gpio/cy_gpio.h ****                                                 (CY_SIO_VOH_1_25       == (vrefSel)) || \
 365:Generated_Source\PSoC6\pdl\drivers/peripheral/gpio/cy_gpio.h ****                                                 (CY_SIO_VOH_1_49       == (vrefSel)) || \
 366:Generated_Source\PSoC6\pdl\drivers/peripheral/gpio/cy_gpio.h ****                                                 (CY_SIO_VOH_1_67       == (vrefSel)) || \
 367:Generated_Source\PSoC6\pdl\drivers/peripheral/gpio/cy_gpio.h ****                                                 (CY_SIO_VOH_2_08       == (vrefSel)) || \
 368:Generated_Source\PSoC6\pdl\drivers/peripheral/gpio/cy_gpio.h ****                                                 (CY_SIO_VOH_2_50       == (vrefSel)) || \
 369:Generated_Source\PSoC6\pdl\drivers/peripheral/gpio/cy_gpio.h ****                                                 (CY_SIO_VOH_2_78       == (vrefSel)) || \
 370:Generated_Source\PSoC6\pdl\drivers/peripheral/gpio/cy_gpio.h ****                                                 (CY_SIO_VOH_4_16       == (vrefSel)))
 371:Generated_Source\PSoC6\pdl\drivers/peripheral/gpio/cy_gpio.h ****                    
 372:Generated_Source\PSoC6\pdl\drivers/peripheral/gpio/cy_gpio.h **** #define CY_GPIO_IS_PIN_BIT_VALID(pinBit)       (0U == ((pinBit) & (uint32_t)~CY_GPIO_PRT_PINS_MASK)
 373:Generated_Source\PSoC6\pdl\drivers/peripheral/gpio/cy_gpio.h **** #define CY_GPIO_IS_INTR_CFG_VALID(intrCfg)     (0U == ((intrCfg) & (uint32_t)~CY_GPIO_PRT_INTR_CFG_
 374:Generated_Source\PSoC6\pdl\drivers/peripheral/gpio/cy_gpio.h **** #define CY_GPIO_IS_INTR_MASK_VALID(intrMask)   (0U == ((intrMask) & (uint32_t)~CY_GPIO_PRT_INT_MASK
 375:Generated_Source\PSoC6\pdl\drivers/peripheral/gpio/cy_gpio.h **** #define CY_GPIO_IS_SEL_ACT_VALID(selActive)    (0U == ((selActive) & (uint32_t)~CY_GPIO_PRT_SEL_ACT
 376:Generated_Source\PSoC6\pdl\drivers/peripheral/gpio/cy_gpio.h **** 
 377:Generated_Source\PSoC6\pdl\drivers/peripheral/gpio/cy_gpio.h **** #define CY_GPIO_IS_AMUX_SPLIT_VALID(switchCtrl)       (((uint32_t) (switchCtrl)) < GPIO_MAX_SPLIT_C
 378:Generated_Source\PSoC6\pdl\drivers/peripheral/gpio/cy_gpio.h **** 
 379:Generated_Source\PSoC6\pdl\drivers/peripheral/gpio/cy_gpio.h **** #define CY_GPIO_IS_AMUX_CONNECT_VALID(amuxConnect)    ((CY_GPIO_AMUX_OPENALL == (amuxConnect)) || \
 380:Generated_Source\PSoC6\pdl\drivers/peripheral/gpio/cy_gpio.h ****                                                        (CY_GPIO_AMUX_L       == (amuxConnect)) || \
 381:Generated_Source\PSoC6\pdl\drivers/peripheral/gpio/cy_gpio.h ****                                                        (CY_GPIO_AMUX_R       == (amuxConnect)) || \
 382:Generated_Source\PSoC6\pdl\drivers/peripheral/gpio/cy_gpio.h ****                                                        (CY_GPIO_AMUX_LR      == (amuxConnect)) || \
 383:Generated_Source\PSoC6\pdl\drivers/peripheral/gpio/cy_gpio.h ****                                                        (CY_GPIO_AMUX_G       == (amuxConnect)) || \
 384:Generated_Source\PSoC6\pdl\drivers/peripheral/gpio/cy_gpio.h ****                                                        (CY_GPIO_AMUX_GL      == (amuxConnect)) || \
 385:Generated_Source\PSoC6\pdl\drivers/peripheral/gpio/cy_gpio.h ****                                                        (CY_GPIO_AMUX_GR      == (amuxConnect)) || \
 386:Generated_Source\PSoC6\pdl\drivers/peripheral/gpio/cy_gpio.h ****                                                        (CY_GPIO_AMUX_GLR     == (amuxConnect)))
 387:Generated_Source\PSoC6\pdl\drivers/peripheral/gpio/cy_gpio.h **** 
 388:Generated_Source\PSoC6\pdl\drivers/peripheral/gpio/cy_gpio.h **** #define CY_GPIO_IS_AMUX_SELECT_VALID(amuxBus)       ((CY_GPIO_AMUXBUSA       == (amuxBus)) || \
 389:Generated_Source\PSoC6\pdl\drivers/peripheral/gpio/cy_gpio.h ****                                                      (CY_GPIO_AMUXBUSB       == (amuxBus)))
 390:Generated_Source\PSoC6\pdl\drivers/peripheral/gpio/cy_gpio.h **** /** \endcond */
 391:Generated_Source\PSoC6\pdl\drivers/peripheral/gpio/cy_gpio.h **** 
 392:Generated_Source\PSoC6\pdl\drivers/peripheral/gpio/cy_gpio.h **** 
 393:Generated_Source\PSoC6\pdl\drivers/peripheral/gpio/cy_gpio.h **** /***************************************
 394:Generated_Source\PSoC6\pdl\drivers/peripheral/gpio/cy_gpio.h **** *        Function Constants
 395:Generated_Source\PSoC6\pdl\drivers/peripheral/gpio/cy_gpio.h **** ***************************************/
 396:Generated_Source\PSoC6\pdl\drivers/peripheral/gpio/cy_gpio.h **** 
 397:Generated_Source\PSoC6\pdl\drivers/peripheral/gpio/cy_gpio.h **** /**
 398:Generated_Source\PSoC6\pdl\drivers/peripheral/gpio/cy_gpio.h **** * \addtogroup group_gpio_macros
 399:Generated_Source\PSoC6\pdl\drivers/peripheral/gpio/cy_gpio.h **** * \{
ARM GAS  C:\Users\xhuli\AppData\Local\Temp\ccrNCJrA.s 			page 52


 400:Generated_Source\PSoC6\pdl\drivers/peripheral/gpio/cy_gpio.h **** */
 401:Generated_Source\PSoC6\pdl\drivers/peripheral/gpio/cy_gpio.h **** 
 402:Generated_Source\PSoC6\pdl\drivers/peripheral/gpio/cy_gpio.h **** /**
 403:Generated_Source\PSoC6\pdl\drivers/peripheral/gpio/cy_gpio.h **** * \defgroup group_gpio_driveModes Pin drive mode
 404:Generated_Source\PSoC6\pdl\drivers/peripheral/gpio/cy_gpio.h **** * \{
 405:Generated_Source\PSoC6\pdl\drivers/peripheral/gpio/cy_gpio.h **** * Constants to be used for setting the drive mode of the pin.
 406:Generated_Source\PSoC6\pdl\drivers/peripheral/gpio/cy_gpio.h **** */
 407:Generated_Source\PSoC6\pdl\drivers/peripheral/gpio/cy_gpio.h **** #define CY_GPIO_DM_ANALOG                      (0x00UL) /**< Analog High-Z. Input buffer off */
 408:Generated_Source\PSoC6\pdl\drivers/peripheral/gpio/cy_gpio.h **** #define CY_GPIO_DM_PULLUP_IN_OFF               (0x02UL) /**< Resistive Pull-Up. Input buffer off */
 409:Generated_Source\PSoC6\pdl\drivers/peripheral/gpio/cy_gpio.h **** #define CY_GPIO_DM_PULLDOWN_IN_OFF             (0x03UL) /**< Resistive Pull-Down. Input buffer off 
 410:Generated_Source\PSoC6\pdl\drivers/peripheral/gpio/cy_gpio.h **** #define CY_GPIO_DM_OD_DRIVESLOW_IN_OFF         (0x04UL) /**< Open Drain, Drives Low. Input buffer o
 411:Generated_Source\PSoC6\pdl\drivers/peripheral/gpio/cy_gpio.h **** #define CY_GPIO_DM_OD_DRIVESHIGH_IN_OFF        (0x05UL) /**< Open Drain, Drives High. Input buffer 
 412:Generated_Source\PSoC6\pdl\drivers/peripheral/gpio/cy_gpio.h **** #define CY_GPIO_DM_STRONG_IN_OFF               (0x06UL) /**< Strong Drive. Input buffer off */
 413:Generated_Source\PSoC6\pdl\drivers/peripheral/gpio/cy_gpio.h **** #define CY_GPIO_DM_PULLUP_DOWN_IN_OFF          (0x07UL) /**< Resistive Pull-Up/Down. Input buffer o
 414:Generated_Source\PSoC6\pdl\drivers/peripheral/gpio/cy_gpio.h **** #define CY_GPIO_DM_HIGHZ                       (0x08UL) /**< Digital High-Z. Input buffer on */
 415:Generated_Source\PSoC6\pdl\drivers/peripheral/gpio/cy_gpio.h **** #define CY_GPIO_DM_PULLUP                      (0x0AUL) /**< Resistive Pull-Up. Input buffer on */
 416:Generated_Source\PSoC6\pdl\drivers/peripheral/gpio/cy_gpio.h **** #define CY_GPIO_DM_PULLDOWN                    (0x0BUL) /**< Resistive Pull-Down. Input buffer on *
 417:Generated_Source\PSoC6\pdl\drivers/peripheral/gpio/cy_gpio.h **** #define CY_GPIO_DM_OD_DRIVESLOW                (0x0CUL) /**< Open Drain, Drives Low. Input buffer o
 418:Generated_Source\PSoC6\pdl\drivers/peripheral/gpio/cy_gpio.h **** #define CY_GPIO_DM_OD_DRIVESHIGH               (0x0DUL) /**< Open Drain, Drives High. Input buffer 
 419:Generated_Source\PSoC6\pdl\drivers/peripheral/gpio/cy_gpio.h **** #define CY_GPIO_DM_STRONG                      (0x0EUL) /**< Strong Drive. Input buffer on */
 420:Generated_Source\PSoC6\pdl\drivers/peripheral/gpio/cy_gpio.h **** #define CY_GPIO_DM_PULLUP_DOWN                 (0x0FUL) /**< Resistive Pull-Up/Down. Input buffer o
 421:Generated_Source\PSoC6\pdl\drivers/peripheral/gpio/cy_gpio.h **** /** \} */
 422:Generated_Source\PSoC6\pdl\drivers/peripheral/gpio/cy_gpio.h **** 
 423:Generated_Source\PSoC6\pdl\drivers/peripheral/gpio/cy_gpio.h **** /**
 424:Generated_Source\PSoC6\pdl\drivers/peripheral/gpio/cy_gpio.h **** * \defgroup group_gpio_vtrip Voltage trip mode
 425:Generated_Source\PSoC6\pdl\drivers/peripheral/gpio/cy_gpio.h **** * \{
 426:Generated_Source\PSoC6\pdl\drivers/peripheral/gpio/cy_gpio.h **** * Constants to be used for setting the voltage trip type on the pin.
 427:Generated_Source\PSoC6\pdl\drivers/peripheral/gpio/cy_gpio.h **** */
 428:Generated_Source\PSoC6\pdl\drivers/peripheral/gpio/cy_gpio.h **** #define CY_GPIO_VTRIP_CMOS                     (0x00UL) /**< Input buffer compatible with CMOS and 
 429:Generated_Source\PSoC6\pdl\drivers/peripheral/gpio/cy_gpio.h **** #define CY_GPIO_VTRIP_TTL                      (0x01UL) /**< Input buffer compatible with TTL and M
 430:Generated_Source\PSoC6\pdl\drivers/peripheral/gpio/cy_gpio.h **** /** \} */
 431:Generated_Source\PSoC6\pdl\drivers/peripheral/gpio/cy_gpio.h **** 
 432:Generated_Source\PSoC6\pdl\drivers/peripheral/gpio/cy_gpio.h **** /**
 433:Generated_Source\PSoC6\pdl\drivers/peripheral/gpio/cy_gpio.h **** * \defgroup group_gpio_slewRate Slew Rate Mode
 434:Generated_Source\PSoC6\pdl\drivers/peripheral/gpio/cy_gpio.h **** * \{
 435:Generated_Source\PSoC6\pdl\drivers/peripheral/gpio/cy_gpio.h **** * Constants to be used for setting the slew rate of the pin.
 436:Generated_Source\PSoC6\pdl\drivers/peripheral/gpio/cy_gpio.h **** */
 437:Generated_Source\PSoC6\pdl\drivers/peripheral/gpio/cy_gpio.h **** #define CY_GPIO_SLEW_FAST                      (0x00UL) /**< Fast slew rate */
 438:Generated_Source\PSoC6\pdl\drivers/peripheral/gpio/cy_gpio.h **** #define CY_GPIO_SLEW_SLOW                      (0x01UL) /**< Slow slew rate */
 439:Generated_Source\PSoC6\pdl\drivers/peripheral/gpio/cy_gpio.h **** /** \} */
 440:Generated_Source\PSoC6\pdl\drivers/peripheral/gpio/cy_gpio.h **** 
 441:Generated_Source\PSoC6\pdl\drivers/peripheral/gpio/cy_gpio.h **** /**
 442:Generated_Source\PSoC6\pdl\drivers/peripheral/gpio/cy_gpio.h **** * \defgroup group_gpio_driveStrength Pin drive strength
 443:Generated_Source\PSoC6\pdl\drivers/peripheral/gpio/cy_gpio.h **** * \{
 444:Generated_Source\PSoC6\pdl\drivers/peripheral/gpio/cy_gpio.h **** * Constants to be used for setting the drive strength of the pin.
 445:Generated_Source\PSoC6\pdl\drivers/peripheral/gpio/cy_gpio.h **** */
 446:Generated_Source\PSoC6\pdl\drivers/peripheral/gpio/cy_gpio.h **** #define CY_GPIO_DRIVE_FULL                     (0x00UL) /**< Full drive strength: Max drive current
 447:Generated_Source\PSoC6\pdl\drivers/peripheral/gpio/cy_gpio.h **** #define CY_GPIO_DRIVE_1_2                      (0x01UL) /**< 1/2 drive strength: 1/2 drive current 
 448:Generated_Source\PSoC6\pdl\drivers/peripheral/gpio/cy_gpio.h **** #define CY_GPIO_DRIVE_1_4                      (0x02UL) /**< 1/4 drive strength: 1/4 drive current 
 449:Generated_Source\PSoC6\pdl\drivers/peripheral/gpio/cy_gpio.h **** #define CY_GPIO_DRIVE_1_8                      (0x03UL) /**< 1/8 drive strength: 1/8 drive current 
 450:Generated_Source\PSoC6\pdl\drivers/peripheral/gpio/cy_gpio.h **** /** \} */
 451:Generated_Source\PSoC6\pdl\drivers/peripheral/gpio/cy_gpio.h **** 
 452:Generated_Source\PSoC6\pdl\drivers/peripheral/gpio/cy_gpio.h **** /**
 453:Generated_Source\PSoC6\pdl\drivers/peripheral/gpio/cy_gpio.h **** * \defgroup group_gpio_interruptTrigger Interrupt trigger type
 454:Generated_Source\PSoC6\pdl\drivers/peripheral/gpio/cy_gpio.h **** * \{
 455:Generated_Source\PSoC6\pdl\drivers/peripheral/gpio/cy_gpio.h **** * Constants to be used for setting the interrupt trigger type on the pin.
 456:Generated_Source\PSoC6\pdl\drivers/peripheral/gpio/cy_gpio.h **** */
ARM GAS  C:\Users\xhuli\AppData\Local\Temp\ccrNCJrA.s 			page 53


 457:Generated_Source\PSoC6\pdl\drivers/peripheral/gpio/cy_gpio.h **** #define CY_GPIO_INTR_DISABLE                   (0x00UL) /**< Disable the pin interrupt generation *
 458:Generated_Source\PSoC6\pdl\drivers/peripheral/gpio/cy_gpio.h **** #define CY_GPIO_INTR_RISING                    (0x01UL) /**< Rising-Edge interrupt */
 459:Generated_Source\PSoC6\pdl\drivers/peripheral/gpio/cy_gpio.h **** #define CY_GPIO_INTR_FALLING                   (0x02UL) /**< Falling-Edge interrupt */
 460:Generated_Source\PSoC6\pdl\drivers/peripheral/gpio/cy_gpio.h **** #define CY_GPIO_INTR_BOTH                      (0x03UL) /**< Both-Edge interrupt */
 461:Generated_Source\PSoC6\pdl\drivers/peripheral/gpio/cy_gpio.h **** /** \} */
 462:Generated_Source\PSoC6\pdl\drivers/peripheral/gpio/cy_gpio.h **** 
 463:Generated_Source\PSoC6\pdl\drivers/peripheral/gpio/cy_gpio.h **** /**
 464:Generated_Source\PSoC6\pdl\drivers/peripheral/gpio/cy_gpio.h **** * \defgroup group_gpio_sioVreg SIO output buffer mode
 465:Generated_Source\PSoC6\pdl\drivers/peripheral/gpio/cy_gpio.h **** * \{
 466:Generated_Source\PSoC6\pdl\drivers/peripheral/gpio/cy_gpio.h **** * Constants to be used for setting the SIO output buffer mode on the pin.
 467:Generated_Source\PSoC6\pdl\drivers/peripheral/gpio/cy_gpio.h **** */
 468:Generated_Source\PSoC6\pdl\drivers/peripheral/gpio/cy_gpio.h **** #define CY_SIO_VREG_UNREGULATED                (0x00UL) /**< Unregulated output buffer */
 469:Generated_Source\PSoC6\pdl\drivers/peripheral/gpio/cy_gpio.h **** #define CY_SIO_VREG_REGULATED                  (0x01UL) /**< Regulated output buffer */
 470:Generated_Source\PSoC6\pdl\drivers/peripheral/gpio/cy_gpio.h **** /** \} */
 471:Generated_Source\PSoC6\pdl\drivers/peripheral/gpio/cy_gpio.h **** 
 472:Generated_Source\PSoC6\pdl\drivers/peripheral/gpio/cy_gpio.h **** /**
 473:Generated_Source\PSoC6\pdl\drivers/peripheral/gpio/cy_gpio.h **** * \defgroup group_gpio_sioIbuf SIO input buffer mode
 474:Generated_Source\PSoC6\pdl\drivers/peripheral/gpio/cy_gpio.h **** * \{
 475:Generated_Source\PSoC6\pdl\drivers/peripheral/gpio/cy_gpio.h **** * Constants to be used for setting the SIO input buffer mode on the pin.
 476:Generated_Source\PSoC6\pdl\drivers/peripheral/gpio/cy_gpio.h **** */
 477:Generated_Source\PSoC6\pdl\drivers/peripheral/gpio/cy_gpio.h **** #define CY_SIO_IBUF_SINGLEENDED                (0x00UL) /**< Single ended input buffer */
 478:Generated_Source\PSoC6\pdl\drivers/peripheral/gpio/cy_gpio.h **** #define CY_SIO_IBUF_DIFFERENTIAL               (0x01UL) /**< Differential input buffer */
 479:Generated_Source\PSoC6\pdl\drivers/peripheral/gpio/cy_gpio.h **** /** \} */
 480:Generated_Source\PSoC6\pdl\drivers/peripheral/gpio/cy_gpio.h **** 
 481:Generated_Source\PSoC6\pdl\drivers/peripheral/gpio/cy_gpio.h **** /**
 482:Generated_Source\PSoC6\pdl\drivers/peripheral/gpio/cy_gpio.h **** * \defgroup group_gpio_sioVtrip SIO input buffer trip-point
 483:Generated_Source\PSoC6\pdl\drivers/peripheral/gpio/cy_gpio.h **** * \{
 484:Generated_Source\PSoC6\pdl\drivers/peripheral/gpio/cy_gpio.h **** * Constants to be used for setting the SIO input buffer trip-point of the pin.
 485:Generated_Source\PSoC6\pdl\drivers/peripheral/gpio/cy_gpio.h **** */
 486:Generated_Source\PSoC6\pdl\drivers/peripheral/gpio/cy_gpio.h **** #define CY_SIO_VTRIP_CMOS                      (0x00UL) /**< CMOS input buffer (single-ended) */
 487:Generated_Source\PSoC6\pdl\drivers/peripheral/gpio/cy_gpio.h **** #define CY_SIO_VTRIP_TTL                       (0x01UL) /**< TTL input buffer (single-ended) */
 488:Generated_Source\PSoC6\pdl\drivers/peripheral/gpio/cy_gpio.h **** #define CY_SIO_VTRIP_0_5VDDIO_0_5VOH           (0x00UL) /**< 0.5xVddio or 0.5xVoh (differential) */
 489:Generated_Source\PSoC6\pdl\drivers/peripheral/gpio/cy_gpio.h **** #define CY_SIO_VTRIP_0_4VDDIO_1_0VREF          (0x01UL) /**< 0.4xVddio or 0.4xVoh (differential) */
 490:Generated_Source\PSoC6\pdl\drivers/peripheral/gpio/cy_gpio.h **** /** \} */
 491:Generated_Source\PSoC6\pdl\drivers/peripheral/gpio/cy_gpio.h **** 
 492:Generated_Source\PSoC6\pdl\drivers/peripheral/gpio/cy_gpio.h **** /**
 493:Generated_Source\PSoC6\pdl\drivers/peripheral/gpio/cy_gpio.h **** * \defgroup group_gpio_sioVref SIO reference voltage for input buffer trip-point
 494:Generated_Source\PSoC6\pdl\drivers/peripheral/gpio/cy_gpio.h **** * \{
 495:Generated_Source\PSoC6\pdl\drivers/peripheral/gpio/cy_gpio.h **** * Constants to be used for setting the reference voltage of SIO input buffer trip-point.
 496:Generated_Source\PSoC6\pdl\drivers/peripheral/gpio/cy_gpio.h **** */
 497:Generated_Source\PSoC6\pdl\drivers/peripheral/gpio/cy_gpio.h **** #define CY_SIO_VREF_PINREF                     (0x00UL) /**< Vref from analog pin */
 498:Generated_Source\PSoC6\pdl\drivers/peripheral/gpio/cy_gpio.h **** #define CY_SIO_VREF_1_2V                       (0x01UL) /**< Vref from internal 1.2V reference */
 499:Generated_Source\PSoC6\pdl\drivers/peripheral/gpio/cy_gpio.h **** #define CY_SIO_VREF_AMUX_A                     (0x02UL) /**< Vref from AMUXBUS_A */
 500:Generated_Source\PSoC6\pdl\drivers/peripheral/gpio/cy_gpio.h **** #define CY_SIO_VREF_AMUX_B                     (0x03UL) /**< Vref from AMUXBUS_B */
 501:Generated_Source\PSoC6\pdl\drivers/peripheral/gpio/cy_gpio.h **** /** \} */
 502:Generated_Source\PSoC6\pdl\drivers/peripheral/gpio/cy_gpio.h **** 
 503:Generated_Source\PSoC6\pdl\drivers/peripheral/gpio/cy_gpio.h **** /**
 504:Generated_Source\PSoC6\pdl\drivers/peripheral/gpio/cy_gpio.h **** * \defgroup group_gpio_sioVoh Regulated output voltage level (Voh) and input buffer trip-point of a
 505:Generated_Source\PSoC6\pdl\drivers/peripheral/gpio/cy_gpio.h **** * \{
 506:Generated_Source\PSoC6\pdl\drivers/peripheral/gpio/cy_gpio.h **** * Constants to be used for setting the Voh and input buffer trip-point of an SIO pair
 507:Generated_Source\PSoC6\pdl\drivers/peripheral/gpio/cy_gpio.h **** */
 508:Generated_Source\PSoC6\pdl\drivers/peripheral/gpio/cy_gpio.h **** #define CY_SIO_VOH_1_00                        (0x00UL) /**< Voh = 1 x Reference */
 509:Generated_Source\PSoC6\pdl\drivers/peripheral/gpio/cy_gpio.h **** #define CY_SIO_VOH_1_25                        (0x01UL) /**< Voh = 1.25 x Reference */
 510:Generated_Source\PSoC6\pdl\drivers/peripheral/gpio/cy_gpio.h **** #define CY_SIO_VOH_1_49                        (0x02UL) /**< Voh = 1.49 x Reference */
 511:Generated_Source\PSoC6\pdl\drivers/peripheral/gpio/cy_gpio.h **** #define CY_SIO_VOH_1_67                        (0x03UL) /**< Voh = 1.67 x Reference */
 512:Generated_Source\PSoC6\pdl\drivers/peripheral/gpio/cy_gpio.h **** #define CY_SIO_VOH_2_08                        (0x04UL) /**< Voh = 2.08 x Reference */
 513:Generated_Source\PSoC6\pdl\drivers/peripheral/gpio/cy_gpio.h **** #define CY_SIO_VOH_2_50                        (0x05UL) /**< Voh = 2.50 x Reference */
ARM GAS  C:\Users\xhuli\AppData\Local\Temp\ccrNCJrA.s 			page 54


 514:Generated_Source\PSoC6\pdl\drivers/peripheral/gpio/cy_gpio.h **** #define CY_SIO_VOH_2_78                        (0x06UL) /**< Voh = 2.78 x Reference */
 515:Generated_Source\PSoC6\pdl\drivers/peripheral/gpio/cy_gpio.h **** #define CY_SIO_VOH_4_16                        (0x07UL) /**< Voh = 4.16 x Reference */
 516:Generated_Source\PSoC6\pdl\drivers/peripheral/gpio/cy_gpio.h **** /** \} */
 517:Generated_Source\PSoC6\pdl\drivers/peripheral/gpio/cy_gpio.h **** 
 518:Generated_Source\PSoC6\pdl\drivers/peripheral/gpio/cy_gpio.h **** /** \} group_gpio_macros */
 519:Generated_Source\PSoC6\pdl\drivers/peripheral/gpio/cy_gpio.h **** 
 520:Generated_Source\PSoC6\pdl\drivers/peripheral/gpio/cy_gpio.h **** /***************************************
 521:Generated_Source\PSoC6\pdl\drivers/peripheral/gpio/cy_gpio.h **** *        Function Prototypes
 522:Generated_Source\PSoC6\pdl\drivers/peripheral/gpio/cy_gpio.h **** ***************************************/
 523:Generated_Source\PSoC6\pdl\drivers/peripheral/gpio/cy_gpio.h **** 
 524:Generated_Source\PSoC6\pdl\drivers/peripheral/gpio/cy_gpio.h **** /**
 525:Generated_Source\PSoC6\pdl\drivers/peripheral/gpio/cy_gpio.h **** * \addtogroup group_gpio_functions
 526:Generated_Source\PSoC6\pdl\drivers/peripheral/gpio/cy_gpio.h **** * \{
 527:Generated_Source\PSoC6\pdl\drivers/peripheral/gpio/cy_gpio.h **** */
 528:Generated_Source\PSoC6\pdl\drivers/peripheral/gpio/cy_gpio.h **** 
 529:Generated_Source\PSoC6\pdl\drivers/peripheral/gpio/cy_gpio.h **** /**
 530:Generated_Source\PSoC6\pdl\drivers/peripheral/gpio/cy_gpio.h **** * \addtogroup group_gpio_functions_init
 531:Generated_Source\PSoC6\pdl\drivers/peripheral/gpio/cy_gpio.h **** * \{
 532:Generated_Source\PSoC6\pdl\drivers/peripheral/gpio/cy_gpio.h **** */
 533:Generated_Source\PSoC6\pdl\drivers/peripheral/gpio/cy_gpio.h **** 
 534:Generated_Source\PSoC6\pdl\drivers/peripheral/gpio/cy_gpio.h **** cy_en_gpio_status_t Cy_GPIO_Pin_Init(GPIO_PRT_Type* base, uint32_t pinNum, const cy_stc_gpio_pin_co
 535:Generated_Source\PSoC6\pdl\drivers/peripheral/gpio/cy_gpio.h **** cy_en_gpio_status_t Cy_GPIO_Port_Init(GPIO_PRT_Type* base, const cy_stc_gpio_prt_config_t *config);
 536:Generated_Source\PSoC6\pdl\drivers/peripheral/gpio/cy_gpio.h **** void Cy_GPIO_Pin_FastInit(GPIO_PRT_Type* base, uint32_t pinNum, uint32_t driveMode, uint32_t outVal
 537:Generated_Source\PSoC6\pdl\drivers/peripheral/gpio/cy_gpio.h **** void Cy_GPIO_Port_Deinit(GPIO_PRT_Type* base);
 538:Generated_Source\PSoC6\pdl\drivers/peripheral/gpio/cy_gpio.h **** __STATIC_INLINE void Cy_GPIO_SetHSIOM(GPIO_PRT_Type* base, uint32_t pinNum, en_hsiom_sel_t value);
 539:Generated_Source\PSoC6\pdl\drivers/peripheral/gpio/cy_gpio.h **** __STATIC_INLINE en_hsiom_sel_t Cy_GPIO_GetHSIOM(GPIO_PRT_Type* base, uint32_t pinNum);
 540:Generated_Source\PSoC6\pdl\drivers/peripheral/gpio/cy_gpio.h **** __STATIC_INLINE GPIO_PRT_Type* Cy_GPIO_PortToAddr(uint32_t portNum);
 541:Generated_Source\PSoC6\pdl\drivers/peripheral/gpio/cy_gpio.h **** 
 542:Generated_Source\PSoC6\pdl\drivers/peripheral/gpio/cy_gpio.h **** /** \} group_gpio_functions_init */
 543:Generated_Source\PSoC6\pdl\drivers/peripheral/gpio/cy_gpio.h **** 
 544:Generated_Source\PSoC6\pdl\drivers/peripheral/gpio/cy_gpio.h **** /**
 545:Generated_Source\PSoC6\pdl\drivers/peripheral/gpio/cy_gpio.h **** * \addtogroup group_gpio_functions_gpio
 546:Generated_Source\PSoC6\pdl\drivers/peripheral/gpio/cy_gpio.h **** * \{
 547:Generated_Source\PSoC6\pdl\drivers/peripheral/gpio/cy_gpio.h **** */
 548:Generated_Source\PSoC6\pdl\drivers/peripheral/gpio/cy_gpio.h **** 
 549:Generated_Source\PSoC6\pdl\drivers/peripheral/gpio/cy_gpio.h **** void Cy_GPIO_SetAmuxSplit(cy_en_amux_split_t switchCtrl, cy_en_gpio_amuxconnect_t amuxConnect, cy_e
 550:Generated_Source\PSoC6\pdl\drivers/peripheral/gpio/cy_gpio.h **** cy_en_gpio_amuxconnect_t Cy_GPIO_GetAmuxSplit(cy_en_amux_split_t switchCtrl, cy_en_gpio_amuxselect_
 551:Generated_Source\PSoC6\pdl\drivers/peripheral/gpio/cy_gpio.h **** 
 552:Generated_Source\PSoC6\pdl\drivers/peripheral/gpio/cy_gpio.h **** __STATIC_INLINE uint32_t Cy_GPIO_Read(GPIO_PRT_Type* base, uint32_t pinNum);
 553:Generated_Source\PSoC6\pdl\drivers/peripheral/gpio/cy_gpio.h **** __STATIC_INLINE void Cy_GPIO_Write(GPIO_PRT_Type* base, uint32_t pinNum, uint32_t value);
 554:Generated_Source\PSoC6\pdl\drivers/peripheral/gpio/cy_gpio.h **** __STATIC_INLINE uint32_t Cy_GPIO_ReadOut(GPIO_PRT_Type* base, uint32_t pinNum);
 555:Generated_Source\PSoC6\pdl\drivers/peripheral/gpio/cy_gpio.h **** __STATIC_INLINE void Cy_GPIO_Set(GPIO_PRT_Type* base, uint32_t pinNum);
 556:Generated_Source\PSoC6\pdl\drivers/peripheral/gpio/cy_gpio.h **** __STATIC_INLINE void Cy_GPIO_Clr(GPIO_PRT_Type* base, uint32_t pinNum);
 557:Generated_Source\PSoC6\pdl\drivers/peripheral/gpio/cy_gpio.h **** __STATIC_INLINE void Cy_GPIO_Inv(GPIO_PRT_Type* base, uint32_t pinNum);
 558:Generated_Source\PSoC6\pdl\drivers/peripheral/gpio/cy_gpio.h **** __STATIC_INLINE void Cy_GPIO_SetDrivemode(GPIO_PRT_Type* base, uint32_t pinNum, uint32_t value);
 559:Generated_Source\PSoC6\pdl\drivers/peripheral/gpio/cy_gpio.h **** __STATIC_INLINE uint32_t Cy_GPIO_GetDrivemode(GPIO_PRT_Type* base, uint32_t pinNum);
 560:Generated_Source\PSoC6\pdl\drivers/peripheral/gpio/cy_gpio.h **** __STATIC_INLINE void Cy_GPIO_SetVtrip(GPIO_PRT_Type* base, uint32_t pinNum, uint32_t value);
 561:Generated_Source\PSoC6\pdl\drivers/peripheral/gpio/cy_gpio.h **** __STATIC_INLINE uint32_t Cy_GPIO_GetVtrip(GPIO_PRT_Type* base, uint32_t pinNum);
 562:Generated_Source\PSoC6\pdl\drivers/peripheral/gpio/cy_gpio.h **** __STATIC_INLINE void Cy_GPIO_SetSlewRate(GPIO_PRT_Type* base, uint32_t pinNum, uint32_t value);
 563:Generated_Source\PSoC6\pdl\drivers/peripheral/gpio/cy_gpio.h **** __STATIC_INLINE uint32_t Cy_GPIO_GetSlewRate(GPIO_PRT_Type* base, uint32_t pinNum);
 564:Generated_Source\PSoC6\pdl\drivers/peripheral/gpio/cy_gpio.h **** __STATIC_INLINE void Cy_GPIO_SetDriveSel(GPIO_PRT_Type* base, uint32_t pinNum, uint32_t value);
 565:Generated_Source\PSoC6\pdl\drivers/peripheral/gpio/cy_gpio.h **** __STATIC_INLINE uint32_t Cy_GPIO_GetDriveSel(GPIO_PRT_Type* base, uint32_t pinNum);
 566:Generated_Source\PSoC6\pdl\drivers/peripheral/gpio/cy_gpio.h **** 
 567:Generated_Source\PSoC6\pdl\drivers/peripheral/gpio/cy_gpio.h **** /** \} group_gpio_functions_gpio */
 568:Generated_Source\PSoC6\pdl\drivers/peripheral/gpio/cy_gpio.h **** 
 569:Generated_Source\PSoC6\pdl\drivers/peripheral/gpio/cy_gpio.h **** /**
 570:Generated_Source\PSoC6\pdl\drivers/peripheral/gpio/cy_gpio.h **** * \addtogroup group_gpio_functions_sio
ARM GAS  C:\Users\xhuli\AppData\Local\Temp\ccrNCJrA.s 			page 55


 571:Generated_Source\PSoC6\pdl\drivers/peripheral/gpio/cy_gpio.h **** * \{
 572:Generated_Source\PSoC6\pdl\drivers/peripheral/gpio/cy_gpio.h **** */
 573:Generated_Source\PSoC6\pdl\drivers/peripheral/gpio/cy_gpio.h **** 
 574:Generated_Source\PSoC6\pdl\drivers/peripheral/gpio/cy_gpio.h **** __STATIC_INLINE void Cy_GPIO_SetVregEn(GPIO_PRT_Type* base, uint32_t pinNum, uint32_t value);
 575:Generated_Source\PSoC6\pdl\drivers/peripheral/gpio/cy_gpio.h **** __STATIC_INLINE uint32_t Cy_GPIO_GetVregEn(GPIO_PRT_Type* base, uint32_t pinNum);
 576:Generated_Source\PSoC6\pdl\drivers/peripheral/gpio/cy_gpio.h **** __STATIC_INLINE void Cy_GPIO_SetIbufMode(GPIO_PRT_Type* base, uint32_t pinNum, uint32_t value);
 577:Generated_Source\PSoC6\pdl\drivers/peripheral/gpio/cy_gpio.h **** __STATIC_INLINE uint32_t Cy_GPIO_GetIbufMode(GPIO_PRT_Type* base, uint32_t pinNum);
 578:Generated_Source\PSoC6\pdl\drivers/peripheral/gpio/cy_gpio.h **** __STATIC_INLINE void Cy_GPIO_SetVtripSel(GPIO_PRT_Type* base, uint32_t pinNum, uint32_t value);
 579:Generated_Source\PSoC6\pdl\drivers/peripheral/gpio/cy_gpio.h **** __STATIC_INLINE uint32_t Cy_GPIO_GetVtripSel(GPIO_PRT_Type* base, uint32_t pinNum);
 580:Generated_Source\PSoC6\pdl\drivers/peripheral/gpio/cy_gpio.h **** __STATIC_INLINE void Cy_GPIO_SetVrefSel(GPIO_PRT_Type* base, uint32_t pinNum, uint32_t value);
 581:Generated_Source\PSoC6\pdl\drivers/peripheral/gpio/cy_gpio.h **** __STATIC_INLINE uint32_t Cy_GPIO_GetVrefSel(GPIO_PRT_Type* base, uint32_t pinNum);
 582:Generated_Source\PSoC6\pdl\drivers/peripheral/gpio/cy_gpio.h **** __STATIC_INLINE void Cy_GPIO_SetVohSel(GPIO_PRT_Type* base, uint32_t pinNum, uint32_t value);
 583:Generated_Source\PSoC6\pdl\drivers/peripheral/gpio/cy_gpio.h **** __STATIC_INLINE uint32_t Cy_GPIO_GetVohSel(GPIO_PRT_Type* base, uint32_t pinNum);
 584:Generated_Source\PSoC6\pdl\drivers/peripheral/gpio/cy_gpio.h **** 
 585:Generated_Source\PSoC6\pdl\drivers/peripheral/gpio/cy_gpio.h **** /** \} group_gpio_functions_sio */
 586:Generated_Source\PSoC6\pdl\drivers/peripheral/gpio/cy_gpio.h **** 
 587:Generated_Source\PSoC6\pdl\drivers/peripheral/gpio/cy_gpio.h **** /**
 588:Generated_Source\PSoC6\pdl\drivers/peripheral/gpio/cy_gpio.h **** * \addtogroup group_gpio_functions_interrupt
 589:Generated_Source\PSoC6\pdl\drivers/peripheral/gpio/cy_gpio.h **** * \{
 590:Generated_Source\PSoC6\pdl\drivers/peripheral/gpio/cy_gpio.h **** */
 591:Generated_Source\PSoC6\pdl\drivers/peripheral/gpio/cy_gpio.h **** 
 592:Generated_Source\PSoC6\pdl\drivers/peripheral/gpio/cy_gpio.h **** __STATIC_INLINE uint32_t Cy_GPIO_GetInterruptStatus(GPIO_PRT_Type* base, uint32_t pinNum);
 593:Generated_Source\PSoC6\pdl\drivers/peripheral/gpio/cy_gpio.h **** __STATIC_INLINE void Cy_GPIO_ClearInterrupt(GPIO_PRT_Type* base, uint32_t pinNum);
 594:Generated_Source\PSoC6\pdl\drivers/peripheral/gpio/cy_gpio.h **** __STATIC_INLINE void Cy_GPIO_SetInterruptMask(GPIO_PRT_Type* base, uint32_t pinNum, uint32_t value)
 595:Generated_Source\PSoC6\pdl\drivers/peripheral/gpio/cy_gpio.h **** __STATIC_INLINE uint32_t Cy_GPIO_GetInterruptMask(GPIO_PRT_Type* base, uint32_t pinNum);
 596:Generated_Source\PSoC6\pdl\drivers/peripheral/gpio/cy_gpio.h **** __STATIC_INLINE uint32_t Cy_GPIO_GetInterruptStatusMasked(GPIO_PRT_Type* base, uint32_t pinNum);
 597:Generated_Source\PSoC6\pdl\drivers/peripheral/gpio/cy_gpio.h **** __STATIC_INLINE void Cy_GPIO_SetSwInterrupt(GPIO_PRT_Type* base, uint32_t pinNum);
 598:Generated_Source\PSoC6\pdl\drivers/peripheral/gpio/cy_gpio.h **** __STATIC_INLINE void Cy_GPIO_SetInterruptEdge(GPIO_PRT_Type* base, uint32_t pinNum, uint32_t value)
 599:Generated_Source\PSoC6\pdl\drivers/peripheral/gpio/cy_gpio.h **** __STATIC_INLINE uint32_t Cy_GPIO_GetInterruptEdge(GPIO_PRT_Type* base, uint32_t pinNum);
 600:Generated_Source\PSoC6\pdl\drivers/peripheral/gpio/cy_gpio.h **** __STATIC_INLINE void Cy_GPIO_SetFilter(GPIO_PRT_Type* base, uint32_t value);
 601:Generated_Source\PSoC6\pdl\drivers/peripheral/gpio/cy_gpio.h **** __STATIC_INLINE uint32_t Cy_GPIO_GetFilter(GPIO_PRT_Type* base);
 602:Generated_Source\PSoC6\pdl\drivers/peripheral/gpio/cy_gpio.h **** 
 603:Generated_Source\PSoC6\pdl\drivers/peripheral/gpio/cy_gpio.h **** __STATIC_INLINE uint32_t Cy_GPIO_GetInterruptCause0(void);
 604:Generated_Source\PSoC6\pdl\drivers/peripheral/gpio/cy_gpio.h **** __STATIC_INLINE uint32_t Cy_GPIO_GetInterruptCause1(void);
 605:Generated_Source\PSoC6\pdl\drivers/peripheral/gpio/cy_gpio.h **** __STATIC_INLINE uint32_t Cy_GPIO_GetInterruptCause2(void);
 606:Generated_Source\PSoC6\pdl\drivers/peripheral/gpio/cy_gpio.h **** __STATIC_INLINE uint32_t Cy_GPIO_GetInterruptCause3(void);
 607:Generated_Source\PSoC6\pdl\drivers/peripheral/gpio/cy_gpio.h **** 
 608:Generated_Source\PSoC6\pdl\drivers/peripheral/gpio/cy_gpio.h **** /** \} group_gpio_functions_interrupt */
 609:Generated_Source\PSoC6\pdl\drivers/peripheral/gpio/cy_gpio.h **** 
 610:Generated_Source\PSoC6\pdl\drivers/peripheral/gpio/cy_gpio.h **** 
 611:Generated_Source\PSoC6\pdl\drivers/peripheral/gpio/cy_gpio.h **** /**
 612:Generated_Source\PSoC6\pdl\drivers/peripheral/gpio/cy_gpio.h **** * \addtogroup group_gpio_functions_init
 613:Generated_Source\PSoC6\pdl\drivers/peripheral/gpio/cy_gpio.h **** * \{
 614:Generated_Source\PSoC6\pdl\drivers/peripheral/gpio/cy_gpio.h **** */
 615:Generated_Source\PSoC6\pdl\drivers/peripheral/gpio/cy_gpio.h **** 
 616:Generated_Source\PSoC6\pdl\drivers/peripheral/gpio/cy_gpio.h **** /*******************************************************************************
 617:Generated_Source\PSoC6\pdl\drivers/peripheral/gpio/cy_gpio.h **** * Function Name: Cy_GPIO_SetHSIOM
 618:Generated_Source\PSoC6\pdl\drivers/peripheral/gpio/cy_gpio.h **** ****************************************************************************//**
 619:Generated_Source\PSoC6\pdl\drivers/peripheral/gpio/cy_gpio.h **** *
 620:Generated_Source\PSoC6\pdl\drivers/peripheral/gpio/cy_gpio.h **** * Configures the HSIOM connection to the pin.
 621:Generated_Source\PSoC6\pdl\drivers/peripheral/gpio/cy_gpio.h **** *
 622:Generated_Source\PSoC6\pdl\drivers/peripheral/gpio/cy_gpio.h **** * Connects the specified High-Speed Input Output Multiplexer (HSIOM) selection
 623:Generated_Source\PSoC6\pdl\drivers/peripheral/gpio/cy_gpio.h **** * to the pin.
 624:Generated_Source\PSoC6\pdl\drivers/peripheral/gpio/cy_gpio.h **** *
 625:Generated_Source\PSoC6\pdl\drivers/peripheral/gpio/cy_gpio.h **** * \param base
 626:Generated_Source\PSoC6\pdl\drivers/peripheral/gpio/cy_gpio.h **** * Pointer to the pin's port register base address
 627:Generated_Source\PSoC6\pdl\drivers/peripheral/gpio/cy_gpio.h **** *
ARM GAS  C:\Users\xhuli\AppData\Local\Temp\ccrNCJrA.s 			page 56


 628:Generated_Source\PSoC6\pdl\drivers/peripheral/gpio/cy_gpio.h **** * \param pinNum
 629:Generated_Source\PSoC6\pdl\drivers/peripheral/gpio/cy_gpio.h **** * Position of the pin bit-field within the port register
 630:Generated_Source\PSoC6\pdl\drivers/peripheral/gpio/cy_gpio.h **** *
 631:Generated_Source\PSoC6\pdl\drivers/peripheral/gpio/cy_gpio.h **** * \param value
 632:Generated_Source\PSoC6\pdl\drivers/peripheral/gpio/cy_gpio.h **** * HSIOM input selection
 633:Generated_Source\PSoC6\pdl\drivers/peripheral/gpio/cy_gpio.h **** *
 634:Generated_Source\PSoC6\pdl\drivers/peripheral/gpio/cy_gpio.h **** * \note 
 635:Generated_Source\PSoC6\pdl\drivers/peripheral/gpio/cy_gpio.h **** * This function modifies a port register in a read-modify-write operation. It is
 636:Generated_Source\PSoC6\pdl\drivers/peripheral/gpio/cy_gpio.h **** * not thread safe as the resource is shared among multiple pins on a port.
 637:Generated_Source\PSoC6\pdl\drivers/peripheral/gpio/cy_gpio.h **** *
 638:Generated_Source\PSoC6\pdl\drivers/peripheral/gpio/cy_gpio.h **** * \funcusage
 639:Generated_Source\PSoC6\pdl\drivers/peripheral/gpio/cy_gpio.h **** * \snippet gpio/gpio_v1_10_sut_01.cydsn/main_cm4.c snippet_Cy_GPIO_SetHSIOM
 640:Generated_Source\PSoC6\pdl\drivers/peripheral/gpio/cy_gpio.h **** *
 641:Generated_Source\PSoC6\pdl\drivers/peripheral/gpio/cy_gpio.h **** *******************************************************************************/
 642:Generated_Source\PSoC6\pdl\drivers/peripheral/gpio/cy_gpio.h **** __STATIC_INLINE void Cy_GPIO_SetHSIOM(GPIO_PRT_Type* base, uint32_t pinNum, en_hsiom_sel_t value)
 643:Generated_Source\PSoC6\pdl\drivers/peripheral/gpio/cy_gpio.h **** {
 644:Generated_Source\PSoC6\pdl\drivers/peripheral/gpio/cy_gpio.h ****     uint32_t portNum;
 645:Generated_Source\PSoC6\pdl\drivers/peripheral/gpio/cy_gpio.h ****     uint32_t tempReg;
 646:Generated_Source\PSoC6\pdl\drivers/peripheral/gpio/cy_gpio.h ****     HSIOM_PRT_V1_Type* portAddrHSIOM;
 647:Generated_Source\PSoC6\pdl\drivers/peripheral/gpio/cy_gpio.h **** 
 648:Generated_Source\PSoC6\pdl\drivers/peripheral/gpio/cy_gpio.h ****     CY_ASSERT_L2(CY_GPIO_IS_PIN_VALID(pinNum));
 649:Generated_Source\PSoC6\pdl\drivers/peripheral/gpio/cy_gpio.h ****     CY_ASSERT_L2(CY_GPIO_IS_HSIOM_VALID(value));
 650:Generated_Source\PSoC6\pdl\drivers/peripheral/gpio/cy_gpio.h **** 
 651:Generated_Source\PSoC6\pdl\drivers/peripheral/gpio/cy_gpio.h ****     portNum = ((uint32_t)(base) - CY_GPIO_BASE) / GPIO_PRT_SECTION_SIZE;
 652:Generated_Source\PSoC6\pdl\drivers/peripheral/gpio/cy_gpio.h ****     portAddrHSIOM = (HSIOM_PRT_V1_Type*)(CY_HSIOM_BASE + (HSIOM_PRT_SECTION_SIZE * portNum));
 653:Generated_Source\PSoC6\pdl\drivers/peripheral/gpio/cy_gpio.h **** 
 654:Generated_Source\PSoC6\pdl\drivers/peripheral/gpio/cy_gpio.h ****     if(pinNum < CY_GPIO_PRT_HALF)
 655:Generated_Source\PSoC6\pdl\drivers/peripheral/gpio/cy_gpio.h ****     {
 656:Generated_Source\PSoC6\pdl\drivers/peripheral/gpio/cy_gpio.h ****         tempReg = HSIOM_PRT_PORT_SEL0(portAddrHSIOM) & ~(CY_GPIO_HSIOM_MASK << (pinNum << CY_GPIO_H
 657:Generated_Source\PSoC6\pdl\drivers/peripheral/gpio/cy_gpio.h ****         HSIOM_PRT_PORT_SEL0(portAddrHSIOM) = tempReg | ((value & CY_GPIO_HSIOM_MASK) << (pinNum << 
 658:Generated_Source\PSoC6\pdl\drivers/peripheral/gpio/cy_gpio.h ****     }
 659:Generated_Source\PSoC6\pdl\drivers/peripheral/gpio/cy_gpio.h ****     else
 660:Generated_Source\PSoC6\pdl\drivers/peripheral/gpio/cy_gpio.h ****     {
 661:Generated_Source\PSoC6\pdl\drivers/peripheral/gpio/cy_gpio.h ****         pinNum -= CY_GPIO_PRT_HALF;
 662:Generated_Source\PSoC6\pdl\drivers/peripheral/gpio/cy_gpio.h ****         tempReg = HSIOM_PRT_PORT_SEL1(portAddrHSIOM) & ~(CY_GPIO_HSIOM_MASK << (pinNum << CY_GPIO_H
 663:Generated_Source\PSoC6\pdl\drivers/peripheral/gpio/cy_gpio.h ****         HSIOM_PRT_PORT_SEL1(portAddrHSIOM) = tempReg | ((value & CY_GPIO_HSIOM_MASK) << (pinNum << 
 664:Generated_Source\PSoC6\pdl\drivers/peripheral/gpio/cy_gpio.h ****     }
 665:Generated_Source\PSoC6\pdl\drivers/peripheral/gpio/cy_gpio.h **** }
 666:Generated_Source\PSoC6\pdl\drivers/peripheral/gpio/cy_gpio.h **** 
 667:Generated_Source\PSoC6\pdl\drivers/peripheral/gpio/cy_gpio.h **** 
 668:Generated_Source\PSoC6\pdl\drivers/peripheral/gpio/cy_gpio.h **** /*******************************************************************************
 669:Generated_Source\PSoC6\pdl\drivers/peripheral/gpio/cy_gpio.h **** * Function Name: Cy_GPIO_GetHSIOM
 670:Generated_Source\PSoC6\pdl\drivers/peripheral/gpio/cy_gpio.h **** ****************************************************************************//**
 671:Generated_Source\PSoC6\pdl\drivers/peripheral/gpio/cy_gpio.h **** *
 672:Generated_Source\PSoC6\pdl\drivers/peripheral/gpio/cy_gpio.h **** * Returns the current HSIOM multiplexer connection to the pin.
 673:Generated_Source\PSoC6\pdl\drivers/peripheral/gpio/cy_gpio.h **** *
 674:Generated_Source\PSoC6\pdl\drivers/peripheral/gpio/cy_gpio.h **** * \param base
 675:Generated_Source\PSoC6\pdl\drivers/peripheral/gpio/cy_gpio.h **** * Pointer to the pin's port register base address
 676:Generated_Source\PSoC6\pdl\drivers/peripheral/gpio/cy_gpio.h **** *
 677:Generated_Source\PSoC6\pdl\drivers/peripheral/gpio/cy_gpio.h **** * \param pinNum
 678:Generated_Source\PSoC6\pdl\drivers/peripheral/gpio/cy_gpio.h **** * Position of the pin bit-field within the port register
 679:Generated_Source\PSoC6\pdl\drivers/peripheral/gpio/cy_gpio.h **** *
 680:Generated_Source\PSoC6\pdl\drivers/peripheral/gpio/cy_gpio.h **** * \return
 681:Generated_Source\PSoC6\pdl\drivers/peripheral/gpio/cy_gpio.h **** * HSIOM input selection
 682:Generated_Source\PSoC6\pdl\drivers/peripheral/gpio/cy_gpio.h **** *
 683:Generated_Source\PSoC6\pdl\drivers/peripheral/gpio/cy_gpio.h **** * \funcusage
 684:Generated_Source\PSoC6\pdl\drivers/peripheral/gpio/cy_gpio.h **** * \snippet gpio/gpio_v1_10_sut_01.cydsn/main_cm4.c snippet_Cy_GPIO_SetHSIOM
ARM GAS  C:\Users\xhuli\AppData\Local\Temp\ccrNCJrA.s 			page 57


 685:Generated_Source\PSoC6\pdl\drivers/peripheral/gpio/cy_gpio.h **** *
 686:Generated_Source\PSoC6\pdl\drivers/peripheral/gpio/cy_gpio.h **** *******************************************************************************/
 687:Generated_Source\PSoC6\pdl\drivers/peripheral/gpio/cy_gpio.h **** __STATIC_INLINE en_hsiom_sel_t Cy_GPIO_GetHSIOM(GPIO_PRT_Type* base, uint32_t pinNum)
 688:Generated_Source\PSoC6\pdl\drivers/peripheral/gpio/cy_gpio.h **** {
 689:Generated_Source\PSoC6\pdl\drivers/peripheral/gpio/cy_gpio.h ****     uint32_t returnValue;
 690:Generated_Source\PSoC6\pdl\drivers/peripheral/gpio/cy_gpio.h ****     uint32_t portNum;
 691:Generated_Source\PSoC6\pdl\drivers/peripheral/gpio/cy_gpio.h ****     HSIOM_PRT_V1_Type* portAddrHSIOM;
 692:Generated_Source\PSoC6\pdl\drivers/peripheral/gpio/cy_gpio.h ****     
 693:Generated_Source\PSoC6\pdl\drivers/peripheral/gpio/cy_gpio.h ****     CY_ASSERT_L2(CY_GPIO_IS_PIN_VALID(pinNum));
 694:Generated_Source\PSoC6\pdl\drivers/peripheral/gpio/cy_gpio.h **** 
 695:Generated_Source\PSoC6\pdl\drivers/peripheral/gpio/cy_gpio.h ****     portNum = ((uint32_t)(base) - CY_GPIO_BASE) / GPIO_PRT_SECTION_SIZE;
 696:Generated_Source\PSoC6\pdl\drivers/peripheral/gpio/cy_gpio.h ****     portAddrHSIOM = (HSIOM_PRT_V1_Type*)(CY_HSIOM_BASE + (HSIOM_PRT_SECTION_SIZE * portNum));
 697:Generated_Source\PSoC6\pdl\drivers/peripheral/gpio/cy_gpio.h **** 
 698:Generated_Source\PSoC6\pdl\drivers/peripheral/gpio/cy_gpio.h ****     if(pinNum < CY_GPIO_PRT_HALF)
 699:Generated_Source\PSoC6\pdl\drivers/peripheral/gpio/cy_gpio.h ****     {
 700:Generated_Source\PSoC6\pdl\drivers/peripheral/gpio/cy_gpio.h ****         returnValue = (HSIOM_PRT_PORT_SEL0(portAddrHSIOM) >> (pinNum << CY_GPIO_HSIOM_OFFSET)) & CY
 701:Generated_Source\PSoC6\pdl\drivers/peripheral/gpio/cy_gpio.h ****     }
 702:Generated_Source\PSoC6\pdl\drivers/peripheral/gpio/cy_gpio.h ****     else
 703:Generated_Source\PSoC6\pdl\drivers/peripheral/gpio/cy_gpio.h ****     {
 704:Generated_Source\PSoC6\pdl\drivers/peripheral/gpio/cy_gpio.h ****         pinNum -= CY_GPIO_PRT_HALF;
 705:Generated_Source\PSoC6\pdl\drivers/peripheral/gpio/cy_gpio.h ****         returnValue = (HSIOM_PRT_PORT_SEL1(portAddrHSIOM) >> (pinNum << CY_GPIO_HSIOM_OFFSET)) & CY
 706:Generated_Source\PSoC6\pdl\drivers/peripheral/gpio/cy_gpio.h ****     }
 707:Generated_Source\PSoC6\pdl\drivers/peripheral/gpio/cy_gpio.h **** 
 708:Generated_Source\PSoC6\pdl\drivers/peripheral/gpio/cy_gpio.h ****     return (en_hsiom_sel_t)returnValue;
 709:Generated_Source\PSoC6\pdl\drivers/peripheral/gpio/cy_gpio.h **** }
 710:Generated_Source\PSoC6\pdl\drivers/peripheral/gpio/cy_gpio.h **** 
 711:Generated_Source\PSoC6\pdl\drivers/peripheral/gpio/cy_gpio.h **** 
 712:Generated_Source\PSoC6\pdl\drivers/peripheral/gpio/cy_gpio.h **** /*******************************************************************************
 713:Generated_Source\PSoC6\pdl\drivers/peripheral/gpio/cy_gpio.h **** * Function Name: Cy_GPIO_PortToAddr
 714:Generated_Source\PSoC6\pdl\drivers/peripheral/gpio/cy_gpio.h **** ****************************************************************************//**
 715:Generated_Source\PSoC6\pdl\drivers/peripheral/gpio/cy_gpio.h **** *
 716:Generated_Source\PSoC6\pdl\drivers/peripheral/gpio/cy_gpio.h **** * Retrieves the port address based on the given port number.
 717:Generated_Source\PSoC6\pdl\drivers/peripheral/gpio/cy_gpio.h **** *
 718:Generated_Source\PSoC6\pdl\drivers/peripheral/gpio/cy_gpio.h **** * This is a helper function to calculate the port base address when given a port
 719:Generated_Source\PSoC6\pdl\drivers/peripheral/gpio/cy_gpio.h **** * number. It is to be used when pin access needs to be calculated at runtime.
 720:Generated_Source\PSoC6\pdl\drivers/peripheral/gpio/cy_gpio.h **** *
 721:Generated_Source\PSoC6\pdl\drivers/peripheral/gpio/cy_gpio.h **** * \param portNum
 722:Generated_Source\PSoC6\pdl\drivers/peripheral/gpio/cy_gpio.h **** * Port number
 723:Generated_Source\PSoC6\pdl\drivers/peripheral/gpio/cy_gpio.h **** *
 724:Generated_Source\PSoC6\pdl\drivers/peripheral/gpio/cy_gpio.h **** * \return
 725:Generated_Source\PSoC6\pdl\drivers/peripheral/gpio/cy_gpio.h **** * Base address of the port register structure
 726:Generated_Source\PSoC6\pdl\drivers/peripheral/gpio/cy_gpio.h **** *
 727:Generated_Source\PSoC6\pdl\drivers/peripheral/gpio/cy_gpio.h **** * \funcusage
 728:Generated_Source\PSoC6\pdl\drivers/peripheral/gpio/cy_gpio.h **** * \snippet gpio/gpio_v1_10_sut_01.cydsn/main_cm4.c snippet_Cy_GPIO_PortToAddr
 729:Generated_Source\PSoC6\pdl\drivers/peripheral/gpio/cy_gpio.h **** *
 730:Generated_Source\PSoC6\pdl\drivers/peripheral/gpio/cy_gpio.h **** *******************************************************************************/
 731:Generated_Source\PSoC6\pdl\drivers/peripheral/gpio/cy_gpio.h **** __STATIC_INLINE GPIO_PRT_Type* Cy_GPIO_PortToAddr(uint32_t portNum)
 732:Generated_Source\PSoC6\pdl\drivers/peripheral/gpio/cy_gpio.h **** {
 733:Generated_Source\PSoC6\pdl\drivers/peripheral/gpio/cy_gpio.h ****     GPIO_PRT_Type* portBase;
 734:Generated_Source\PSoC6\pdl\drivers/peripheral/gpio/cy_gpio.h ****     
 735:Generated_Source\PSoC6\pdl\drivers/peripheral/gpio/cy_gpio.h ****     if(portNum < (uint32_t)IOSS_GPIO_GPIO_PORT_NR)
 736:Generated_Source\PSoC6\pdl\drivers/peripheral/gpio/cy_gpio.h ****     {
 737:Generated_Source\PSoC6\pdl\drivers/peripheral/gpio/cy_gpio.h ****         portBase = (GPIO_PRT_Type *)(CY_GPIO_BASE + (GPIO_PRT_SECTION_SIZE * portNum));
 738:Generated_Source\PSoC6\pdl\drivers/peripheral/gpio/cy_gpio.h ****     }
 739:Generated_Source\PSoC6\pdl\drivers/peripheral/gpio/cy_gpio.h ****     else
 740:Generated_Source\PSoC6\pdl\drivers/peripheral/gpio/cy_gpio.h ****     {
 741:Generated_Source\PSoC6\pdl\drivers/peripheral/gpio/cy_gpio.h ****         /* Error: Return default base address */
ARM GAS  C:\Users\xhuli\AppData\Local\Temp\ccrNCJrA.s 			page 58


 742:Generated_Source\PSoC6\pdl\drivers/peripheral/gpio/cy_gpio.h ****         portBase = (GPIO_PRT_Type *)(CY_GPIO_BASE);
 743:Generated_Source\PSoC6\pdl\drivers/peripheral/gpio/cy_gpio.h ****     }
 744:Generated_Source\PSoC6\pdl\drivers/peripheral/gpio/cy_gpio.h **** 
 745:Generated_Source\PSoC6\pdl\drivers/peripheral/gpio/cy_gpio.h ****     return (portBase);
 746:Generated_Source\PSoC6\pdl\drivers/peripheral/gpio/cy_gpio.h **** }
 747:Generated_Source\PSoC6\pdl\drivers/peripheral/gpio/cy_gpio.h **** 
 748:Generated_Source\PSoC6\pdl\drivers/peripheral/gpio/cy_gpio.h **** /** \} group_gpio_functions_init */
 749:Generated_Source\PSoC6\pdl\drivers/peripheral/gpio/cy_gpio.h **** 
 750:Generated_Source\PSoC6\pdl\drivers/peripheral/gpio/cy_gpio.h **** /**
 751:Generated_Source\PSoC6\pdl\drivers/peripheral/gpio/cy_gpio.h **** * \addtogroup group_gpio_functions_gpio
 752:Generated_Source\PSoC6\pdl\drivers/peripheral/gpio/cy_gpio.h **** * \{
 753:Generated_Source\PSoC6\pdl\drivers/peripheral/gpio/cy_gpio.h **** */
 754:Generated_Source\PSoC6\pdl\drivers/peripheral/gpio/cy_gpio.h **** 
 755:Generated_Source\PSoC6\pdl\drivers/peripheral/gpio/cy_gpio.h **** /*******************************************************************************
 756:Generated_Source\PSoC6\pdl\drivers/peripheral/gpio/cy_gpio.h **** * Function Name: Cy_GPIO_Read
 757:Generated_Source\PSoC6\pdl\drivers/peripheral/gpio/cy_gpio.h **** ****************************************************************************//**
 758:Generated_Source\PSoC6\pdl\drivers/peripheral/gpio/cy_gpio.h **** *
 759:Generated_Source\PSoC6\pdl\drivers/peripheral/gpio/cy_gpio.h **** * Reads the current logic level on the input buffer of the pin.
 760:Generated_Source\PSoC6\pdl\drivers/peripheral/gpio/cy_gpio.h **** *
 761:Generated_Source\PSoC6\pdl\drivers/peripheral/gpio/cy_gpio.h **** * \param base
 762:Generated_Source\PSoC6\pdl\drivers/peripheral/gpio/cy_gpio.h **** * Pointer to the pin's port register base address
 763:Generated_Source\PSoC6\pdl\drivers/peripheral/gpio/cy_gpio.h **** *
 764:Generated_Source\PSoC6\pdl\drivers/peripheral/gpio/cy_gpio.h **** * \param pinNum
 765:Generated_Source\PSoC6\pdl\drivers/peripheral/gpio/cy_gpio.h **** * Position of the pin bit-field within the port register.
 766:Generated_Source\PSoC6\pdl\drivers/peripheral/gpio/cy_gpio.h **** * Bit position 8 is the routed pin through the port glitch filter.
 767:Generated_Source\PSoC6\pdl\drivers/peripheral/gpio/cy_gpio.h **** *
 768:Generated_Source\PSoC6\pdl\drivers/peripheral/gpio/cy_gpio.h **** * \return
 769:Generated_Source\PSoC6\pdl\drivers/peripheral/gpio/cy_gpio.h **** * Logic level present on the pin
 770:Generated_Source\PSoC6\pdl\drivers/peripheral/gpio/cy_gpio.h **** *
 771:Generated_Source\PSoC6\pdl\drivers/peripheral/gpio/cy_gpio.h **** * \funcusage
 772:Generated_Source\PSoC6\pdl\drivers/peripheral/gpio/cy_gpio.h **** * \snippet gpio/gpio_v1_10_sut_01.cydsn/main_cm4.c snippet_Cy_GPIO_Read
 773:Generated_Source\PSoC6\pdl\drivers/peripheral/gpio/cy_gpio.h **** *
 774:Generated_Source\PSoC6\pdl\drivers/peripheral/gpio/cy_gpio.h **** *******************************************************************************/
 775:Generated_Source\PSoC6\pdl\drivers/peripheral/gpio/cy_gpio.h **** __STATIC_INLINE uint32_t Cy_GPIO_Read(GPIO_PRT_Type* base, uint32_t pinNum)
 776:Generated_Source\PSoC6\pdl\drivers/peripheral/gpio/cy_gpio.h **** {
 777:Generated_Source\PSoC6\pdl\drivers/peripheral/gpio/cy_gpio.h ****     CY_ASSERT_L2(CY_GPIO_IS_FILTER_PIN_VALID(pinNum));
 778:Generated_Source\PSoC6\pdl\drivers/peripheral/gpio/cy_gpio.h ****     
 779:Generated_Source\PSoC6\pdl\drivers/peripheral/gpio/cy_gpio.h ****     return (GPIO_PRT_IN(base) >> (pinNum)) & CY_GPIO_IN_MASK;
 780:Generated_Source\PSoC6\pdl\drivers/peripheral/gpio/cy_gpio.h **** }
 781:Generated_Source\PSoC6\pdl\drivers/peripheral/gpio/cy_gpio.h **** 
 782:Generated_Source\PSoC6\pdl\drivers/peripheral/gpio/cy_gpio.h **** 
 783:Generated_Source\PSoC6\pdl\drivers/peripheral/gpio/cy_gpio.h **** /*******************************************************************************
 784:Generated_Source\PSoC6\pdl\drivers/peripheral/gpio/cy_gpio.h **** * Function Name: Cy_GPIO_Write
 785:Generated_Source\PSoC6\pdl\drivers/peripheral/gpio/cy_gpio.h **** ****************************************************************************//**
 786:Generated_Source\PSoC6\pdl\drivers/peripheral/gpio/cy_gpio.h **** *
 787:Generated_Source\PSoC6\pdl\drivers/peripheral/gpio/cy_gpio.h **** * Write a logic 0 or logic 1 state to the output driver.
 788:Generated_Source\PSoC6\pdl\drivers/peripheral/gpio/cy_gpio.h **** *
 789:Generated_Source\PSoC6\pdl\drivers/peripheral/gpio/cy_gpio.h **** * This function should be used only for software driven pins. It does not have
 790:Generated_Source\PSoC6\pdl\drivers/peripheral/gpio/cy_gpio.h **** * any effect on peripheral driven pins.
 791:Generated_Source\PSoC6\pdl\drivers/peripheral/gpio/cy_gpio.h **** *
 792:Generated_Source\PSoC6\pdl\drivers/peripheral/gpio/cy_gpio.h **** * \param base
 793:Generated_Source\PSoC6\pdl\drivers/peripheral/gpio/cy_gpio.h **** * Pointer to the pin's port register base address
 794:Generated_Source\PSoC6\pdl\drivers/peripheral/gpio/cy_gpio.h **** *
 795:Generated_Source\PSoC6\pdl\drivers/peripheral/gpio/cy_gpio.h **** * \param pinNum
 796:Generated_Source\PSoC6\pdl\drivers/peripheral/gpio/cy_gpio.h **** * Position of the pin bit-field within the port register
 797:Generated_Source\PSoC6\pdl\drivers/peripheral/gpio/cy_gpio.h **** *
 798:Generated_Source\PSoC6\pdl\drivers/peripheral/gpio/cy_gpio.h **** * \param value
ARM GAS  C:\Users\xhuli\AppData\Local\Temp\ccrNCJrA.s 			page 59


 799:Generated_Source\PSoC6\pdl\drivers/peripheral/gpio/cy_gpio.h **** * Logic level to drive out on the pin
 800:Generated_Source\PSoC6\pdl\drivers/peripheral/gpio/cy_gpio.h **** *
 801:Generated_Source\PSoC6\pdl\drivers/peripheral/gpio/cy_gpio.h **** * \funcusage
 802:Generated_Source\PSoC6\pdl\drivers/peripheral/gpio/cy_gpio.h **** * \snippet gpio/gpio_v1_10_sut_01.cydsn/main_cm4.c snippet_Cy_GPIO_Write
 803:Generated_Source\PSoC6\pdl\drivers/peripheral/gpio/cy_gpio.h **** *
 804:Generated_Source\PSoC6\pdl\drivers/peripheral/gpio/cy_gpio.h **** *******************************************************************************/
 805:Generated_Source\PSoC6\pdl\drivers/peripheral/gpio/cy_gpio.h **** __STATIC_INLINE void Cy_GPIO_Write(GPIO_PRT_Type* base, uint32_t pinNum, uint32_t value)
 806:Generated_Source\PSoC6\pdl\drivers/peripheral/gpio/cy_gpio.h **** {
 807:Generated_Source\PSoC6\pdl\drivers/peripheral/gpio/cy_gpio.h ****     CY_ASSERT_L2(CY_GPIO_IS_PIN_VALID(pinNum));
 808:Generated_Source\PSoC6\pdl\drivers/peripheral/gpio/cy_gpio.h ****     CY_ASSERT_L2(CY_GPIO_IS_VALUE_VALID(value));
 809:Generated_Source\PSoC6\pdl\drivers/peripheral/gpio/cy_gpio.h **** 
 810:Generated_Source\PSoC6\pdl\drivers/peripheral/gpio/cy_gpio.h ****     /* Thread-safe: Directly access the pin registers instead of base->OUT */
 811:Generated_Source\PSoC6\pdl\drivers/peripheral/gpio/cy_gpio.h ****     if(0UL == value)
 812:Generated_Source\PSoC6\pdl\drivers/peripheral/gpio/cy_gpio.h ****     {
 813:Generated_Source\PSoC6\pdl\drivers/peripheral/gpio/cy_gpio.h ****         GPIO_PRT_OUT_CLR(base) = CY_GPIO_OUT_MASK << pinNum;
 814:Generated_Source\PSoC6\pdl\drivers/peripheral/gpio/cy_gpio.h ****     }
 815:Generated_Source\PSoC6\pdl\drivers/peripheral/gpio/cy_gpio.h ****     else
 816:Generated_Source\PSoC6\pdl\drivers/peripheral/gpio/cy_gpio.h ****     {
 817:Generated_Source\PSoC6\pdl\drivers/peripheral/gpio/cy_gpio.h ****         GPIO_PRT_OUT_SET(base) = CY_GPIO_OUT_MASK << pinNum;
 818:Generated_Source\PSoC6\pdl\drivers/peripheral/gpio/cy_gpio.h ****     }
 819:Generated_Source\PSoC6\pdl\drivers/peripheral/gpio/cy_gpio.h **** }
 820:Generated_Source\PSoC6\pdl\drivers/peripheral/gpio/cy_gpio.h **** 
 821:Generated_Source\PSoC6\pdl\drivers/peripheral/gpio/cy_gpio.h **** 
 822:Generated_Source\PSoC6\pdl\drivers/peripheral/gpio/cy_gpio.h **** /*******************************************************************************
 823:Generated_Source\PSoC6\pdl\drivers/peripheral/gpio/cy_gpio.h **** * Function Name: Cy_GPIO_ReadOut
 824:Generated_Source\PSoC6\pdl\drivers/peripheral/gpio/cy_gpio.h **** ****************************************************************************//**
 825:Generated_Source\PSoC6\pdl\drivers/peripheral/gpio/cy_gpio.h **** *
 826:Generated_Source\PSoC6\pdl\drivers/peripheral/gpio/cy_gpio.h **** * Reads the current logic level on the pin output driver.
 827:Generated_Source\PSoC6\pdl\drivers/peripheral/gpio/cy_gpio.h **** *
 828:Generated_Source\PSoC6\pdl\drivers/peripheral/gpio/cy_gpio.h **** * \param base
 829:Generated_Source\PSoC6\pdl\drivers/peripheral/gpio/cy_gpio.h **** * Pointer to the pin's port register base address
 830:Generated_Source\PSoC6\pdl\drivers/peripheral/gpio/cy_gpio.h **** *
 831:Generated_Source\PSoC6\pdl\drivers/peripheral/gpio/cy_gpio.h **** * \param pinNum
 832:Generated_Source\PSoC6\pdl\drivers/peripheral/gpio/cy_gpio.h **** * Position of the pin bit-field within the port register
 833:Generated_Source\PSoC6\pdl\drivers/peripheral/gpio/cy_gpio.h **** *
 834:Generated_Source\PSoC6\pdl\drivers/peripheral/gpio/cy_gpio.h **** * \return
 835:Generated_Source\PSoC6\pdl\drivers/peripheral/gpio/cy_gpio.h **** * Logic level on the pin output driver
 836:Generated_Source\PSoC6\pdl\drivers/peripheral/gpio/cy_gpio.h **** *
 837:Generated_Source\PSoC6\pdl\drivers/peripheral/gpio/cy_gpio.h **** * \funcusage
 838:Generated_Source\PSoC6\pdl\drivers/peripheral/gpio/cy_gpio.h **** * \snippet gpio/gpio_v1_10_sut_01.cydsn/main_cm4.c snippet_Cy_GPIO_ReadOut
 839:Generated_Source\PSoC6\pdl\drivers/peripheral/gpio/cy_gpio.h **** *
 840:Generated_Source\PSoC6\pdl\drivers/peripheral/gpio/cy_gpio.h **** *******************************************************************************/
 841:Generated_Source\PSoC6\pdl\drivers/peripheral/gpio/cy_gpio.h **** __STATIC_INLINE uint32_t Cy_GPIO_ReadOut(GPIO_PRT_Type* base, uint32_t pinNum)
 842:Generated_Source\PSoC6\pdl\drivers/peripheral/gpio/cy_gpio.h **** {
 843:Generated_Source\PSoC6\pdl\drivers/peripheral/gpio/cy_gpio.h ****     CY_ASSERT_L2(CY_GPIO_IS_PIN_VALID(pinNum));
 844:Generated_Source\PSoC6\pdl\drivers/peripheral/gpio/cy_gpio.h **** 
 845:Generated_Source\PSoC6\pdl\drivers/peripheral/gpio/cy_gpio.h ****     return (GPIO_PRT_OUT(base) >> pinNum) & CY_GPIO_OUT_MASK;
 846:Generated_Source\PSoC6\pdl\drivers/peripheral/gpio/cy_gpio.h **** }
 847:Generated_Source\PSoC6\pdl\drivers/peripheral/gpio/cy_gpio.h **** 
 848:Generated_Source\PSoC6\pdl\drivers/peripheral/gpio/cy_gpio.h **** 
 849:Generated_Source\PSoC6\pdl\drivers/peripheral/gpio/cy_gpio.h **** /*******************************************************************************
 850:Generated_Source\PSoC6\pdl\drivers/peripheral/gpio/cy_gpio.h **** * Function Name: Cy_GPIO_Set
 851:Generated_Source\PSoC6\pdl\drivers/peripheral/gpio/cy_gpio.h **** ****************************************************************************//**
 852:Generated_Source\PSoC6\pdl\drivers/peripheral/gpio/cy_gpio.h **** *
 853:Generated_Source\PSoC6\pdl\drivers/peripheral/gpio/cy_gpio.h **** * Set a pin output to logic state high.
 854:Generated_Source\PSoC6\pdl\drivers/peripheral/gpio/cy_gpio.h **** *
 855:Generated_Source\PSoC6\pdl\drivers/peripheral/gpio/cy_gpio.h **** * This function should be used only for software driven pins. It does not have
ARM GAS  C:\Users\xhuli\AppData\Local\Temp\ccrNCJrA.s 			page 60


 856:Generated_Source\PSoC6\pdl\drivers/peripheral/gpio/cy_gpio.h **** * any effect on peripheral driven pins.
 857:Generated_Source\PSoC6\pdl\drivers/peripheral/gpio/cy_gpio.h **** *
 858:Generated_Source\PSoC6\pdl\drivers/peripheral/gpio/cy_gpio.h **** * \param base
 859:Generated_Source\PSoC6\pdl\drivers/peripheral/gpio/cy_gpio.h **** * Pointer to the pin's port register base address
 860:Generated_Source\PSoC6\pdl\drivers/peripheral/gpio/cy_gpio.h **** *
 861:Generated_Source\PSoC6\pdl\drivers/peripheral/gpio/cy_gpio.h **** * \param pinNum
 862:Generated_Source\PSoC6\pdl\drivers/peripheral/gpio/cy_gpio.h **** * Position of the pin bit-field within the port register
 863:Generated_Source\PSoC6\pdl\drivers/peripheral/gpio/cy_gpio.h **** *
 864:Generated_Source\PSoC6\pdl\drivers/peripheral/gpio/cy_gpio.h **** * \funcusage
 865:Generated_Source\PSoC6\pdl\drivers/peripheral/gpio/cy_gpio.h **** * \snippet gpio/gpio_v1_10_sut_01.cydsn/main_cm4.c snippet_Cy_GPIO_Set
 866:Generated_Source\PSoC6\pdl\drivers/peripheral/gpio/cy_gpio.h **** *
 867:Generated_Source\PSoC6\pdl\drivers/peripheral/gpio/cy_gpio.h **** *******************************************************************************/
 868:Generated_Source\PSoC6\pdl\drivers/peripheral/gpio/cy_gpio.h **** __STATIC_INLINE void Cy_GPIO_Set(GPIO_PRT_Type* base, uint32_t pinNum)
 869:Generated_Source\PSoC6\pdl\drivers/peripheral/gpio/cy_gpio.h **** {
 870:Generated_Source\PSoC6\pdl\drivers/peripheral/gpio/cy_gpio.h ****     CY_ASSERT_L2(CY_GPIO_IS_PIN_VALID(pinNum));
 871:Generated_Source\PSoC6\pdl\drivers/peripheral/gpio/cy_gpio.h ****     
 872:Generated_Source\PSoC6\pdl\drivers/peripheral/gpio/cy_gpio.h ****     GPIO_PRT_OUT_SET(base) = CY_GPIO_OUT_MASK << pinNum;
 1027              		.loc 3 872 0
 1028 0006 0422     		movs	r2, #4
 1029 0008 134B     		ldr	r3, .L78
 1030 000a 9A60     		str	r2, [r3, #8]
 1031              	.LVL107:
 1032              	.LBE42:
 1033              	.LBE41:
 261:BLE_Task.c    ****         {         
 1034              		.loc 1 261 0
 1035 000c 0024     		movs	r4, #0
 1036 000e 20E0     		b	.L71
 1037              	.LVL108:
 1038              	.L76:
 263:BLE_Task.c    ****                 output = ulVal & mask_MSB;
 1039              		.loc 1 263 0
 1040 0010 012E     		cmp	r6, #1
 1041 0012 08D1     		bne	.L72
 264:BLE_Task.c    ****                 ulVal = ulVal << 1;
 1042              		.loc 1 264 0
 1043 0014 05F40043 		and	r3, r5, #32768
 1044 0018 9BB2     		uxth	r3, r3
 1045 001a 0033     		adds	r3, r3, #0
 1046 001c 18BF     		it	ne
 1047 001e 0123     		movne	r3, #1
 1048              	.LVL109:
 265:BLE_Task.c    ****             }
 1049              		.loc 1 265 0
 1050 0020 6D00     		lsls	r5, r5, #1
 1051              	.LVL110:
 1052 0022 ADB2     		uxth	r5, r5
 1053              	.LVL111:
 1054 0024 02E0     		b	.L73
 1055              	.LVL112:
 1056              	.L72:
 268:BLE_Task.c    ****                 ulVal = ulVal >> 1;
 1057              		.loc 1 268 0
 1058 0026 05F00103 		and	r3, r5, #1
 1059              	.LVL113:
 269:BLE_Task.c    ****             }
 1060              		.loc 1 269 0
ARM GAS  C:\Users\xhuli\AppData\Local\Temp\ccrNCJrA.s 			page 61


 1061 002a 6D08     		lsrs	r5, r5, #1
 1062              	.LVL114:
 1063              	.L73:
 1064              	.LBB43:
 1065              	.LBB44:
 1066              		.loc 3 872 0 discriminator 2
 1067 002c 8021     		movs	r1, #128
 1068 002e 0B4A     		ldr	r2, .L78+4
 1069 0030 9160     		str	r1, [r2, #8]
 1070              	.LVL115:
 1071              	.LBE44:
 1072              	.LBE43:
 1073              	.LBB45:
 1074              	.LBB46:
 811:Generated_Source\PSoC6\pdl\drivers/peripheral/gpio/cy_gpio.h ****     {
 1075              		.loc 3 811 0 discriminator 2
 1076 0032 1BB9     		cbnz	r3, .L74
 813:Generated_Source\PSoC6\pdl\drivers/peripheral/gpio/cy_gpio.h ****     }
 1077              		.loc 3 813 0
 1078 0034 4022     		movs	r2, #64
 1079 0036 094B     		ldr	r3, .L78+4
 1080              	.LVL116:
 1081 0038 5A60     		str	r2, [r3, #4]
 1082 003a 02E0     		b	.L75
 1083              	.LVL117:
 1084              	.L74:
 817:Generated_Source\PSoC6\pdl\drivers/peripheral/gpio/cy_gpio.h ****     }
 1085              		.loc 3 817 0
 1086 003c 4022     		movs	r2, #64
 1087 003e 074B     		ldr	r3, .L78+4
 1088              	.LVL118:
 1089 0040 9A60     		str	r2, [r3, #8]
 1090              	.L75:
 1091              	.LVL119:
 1092              	.LBE46:
 1093              	.LBE45:
 273:BLE_Task.c    ****             Cy_GPIO_Clr(CLK_PORT, CLK_NUM);
 1094              		.loc 1 273 0 discriminator 2
 1095 0042 0120     		movs	r0, #1
 1096 0044 FFF7FEFF 		bl	Cy_SysLib_Delay
 1097              	.LVL120:
 1098              	.LBB47:
 1099              	.LBB48:
 873:Generated_Source\PSoC6\pdl\drivers/peripheral/gpio/cy_gpio.h **** }
 874:Generated_Source\PSoC6\pdl\drivers/peripheral/gpio/cy_gpio.h **** 
 875:Generated_Source\PSoC6\pdl\drivers/peripheral/gpio/cy_gpio.h **** 
 876:Generated_Source\PSoC6\pdl\drivers/peripheral/gpio/cy_gpio.h **** /*******************************************************************************
 877:Generated_Source\PSoC6\pdl\drivers/peripheral/gpio/cy_gpio.h **** * Function Name: Cy_GPIO_Clr
 878:Generated_Source\PSoC6\pdl\drivers/peripheral/gpio/cy_gpio.h **** ****************************************************************************//**
 879:Generated_Source\PSoC6\pdl\drivers/peripheral/gpio/cy_gpio.h **** *
 880:Generated_Source\PSoC6\pdl\drivers/peripheral/gpio/cy_gpio.h **** * Set a pin output to logic state Low.
 881:Generated_Source\PSoC6\pdl\drivers/peripheral/gpio/cy_gpio.h **** *
 882:Generated_Source\PSoC6\pdl\drivers/peripheral/gpio/cy_gpio.h **** * This function should be used only for software driven pins. It does not have
 883:Generated_Source\PSoC6\pdl\drivers/peripheral/gpio/cy_gpio.h **** * any effect on peripheral driven pins.
 884:Generated_Source\PSoC6\pdl\drivers/peripheral/gpio/cy_gpio.h **** *
 885:Generated_Source\PSoC6\pdl\drivers/peripheral/gpio/cy_gpio.h **** * \param base
 886:Generated_Source\PSoC6\pdl\drivers/peripheral/gpio/cy_gpio.h **** * Pointer to the pin's port register base address
ARM GAS  C:\Users\xhuli\AppData\Local\Temp\ccrNCJrA.s 			page 62


 887:Generated_Source\PSoC6\pdl\drivers/peripheral/gpio/cy_gpio.h **** *
 888:Generated_Source\PSoC6\pdl\drivers/peripheral/gpio/cy_gpio.h **** * \param pinNum
 889:Generated_Source\PSoC6\pdl\drivers/peripheral/gpio/cy_gpio.h **** * Position of the pin bit-field within the port register
 890:Generated_Source\PSoC6\pdl\drivers/peripheral/gpio/cy_gpio.h **** *
 891:Generated_Source\PSoC6\pdl\drivers/peripheral/gpio/cy_gpio.h **** * \funcusage
 892:Generated_Source\PSoC6\pdl\drivers/peripheral/gpio/cy_gpio.h **** * \snippet gpio/gpio_v1_10_sut_01.cydsn/main_cm4.c snippet_Cy_GPIO_Clr
 893:Generated_Source\PSoC6\pdl\drivers/peripheral/gpio/cy_gpio.h **** *
 894:Generated_Source\PSoC6\pdl\drivers/peripheral/gpio/cy_gpio.h **** *******************************************************************************/
 895:Generated_Source\PSoC6\pdl\drivers/peripheral/gpio/cy_gpio.h **** __STATIC_INLINE void Cy_GPIO_Clr(GPIO_PRT_Type* base, uint32_t pinNum)
 896:Generated_Source\PSoC6\pdl\drivers/peripheral/gpio/cy_gpio.h **** {
 897:Generated_Source\PSoC6\pdl\drivers/peripheral/gpio/cy_gpio.h ****     CY_ASSERT_L2(CY_GPIO_IS_PIN_VALID(pinNum));
 898:Generated_Source\PSoC6\pdl\drivers/peripheral/gpio/cy_gpio.h ****     
 899:Generated_Source\PSoC6\pdl\drivers/peripheral/gpio/cy_gpio.h ****     GPIO_PRT_OUT_CLR(base) = CY_GPIO_OUT_MASK << pinNum;
 1100              		.loc 3 899 0 discriminator 2
 1101 0048 8022     		movs	r2, #128
 1102 004a 044B     		ldr	r3, .L78+4
 1103 004c 5A60     		str	r2, [r3, #4]
 1104              	.LVL121:
 1105              	.LBE48:
 1106              	.LBE47:
 261:BLE_Task.c    ****         {         
 1107              		.loc 1 261 0 discriminator 2
 1108 004e 0134     		adds	r4, r4, #1
 1109              	.LVL122:
 1110 0050 E4B2     		uxtb	r4, r4
 1111              	.LVL123:
 1112              	.L71:
 261:BLE_Task.c    ****         {         
 1113              		.loc 1 261 0 is_stmt 0 discriminator 1
 1114 0052 0F2C     		cmp	r4, #15
 1115 0054 DCD9     		bls	.L76
 276:BLE_Task.c    **** 
 1116              		.loc 1 276 0 is_stmt 1
 1117 0056 70BD     		pop	{r4, r5, r6, pc}
 1118              	.LVL124:
 1119              	.L79:
 1120              		.align	2
 1121              	.L78:
 1122 0058 80033240 		.word	1077019520
 1123 005c 00063240 		.word	1077020160
 1124              		.cfi_endproc
 1125              	.LFE594:
 1126              		.size	shiftOut, .-shiftOut
 1127              		.section	.text.enableLED,"ax",%progbits
 1128              		.align	2
 1129              		.global	enableLED
 1130              		.thumb
 1131              		.thumb_func
 1132              		.type	enableLED, %function
 1133              	enableLED:
 1134              	.LFB595:
 281:BLE_Task.c    ****         printf(">>Starting LED register shifting! \n\r");
 1135              		.loc 1 281 0
 1136              		.cfi_startproc
 1137              		@ args = 0, pretend = 0, frame = 0
 1138              		@ frame_needed = 0, uses_anonymous_args = 0
 1139              	.LVL125:
ARM GAS  C:\Users\xhuli\AppData\Local\Temp\ccrNCJrA.s 			page 63


 1140 0000 10B5     		push	{r4, lr}
 1141              		.cfi_def_cfa_offset 8
 1142              		.cfi_offset 4, -8
 1143              		.cfi_offset 14, -4
 1144 0002 0446     		mov	r4, r0
 282:BLE_Task.c    ****         Cy_GPIO_Clr(LE_PORT, LE_NUM);
 1145              		.loc 1 282 0
 1146 0004 1648     		ldr	r0, .L85
 1147              	.LVL126:
 1148 0006 FFF7FEFF 		bl	printf
 1149              	.LVL127:
 1150              	.LBB49:
 1151              	.LBB50:
 1152              		.loc 3 899 0
 1153 000a 2022     		movs	r2, #32
 1154 000c 154B     		ldr	r3, .L85+4
 1155 000e 5A60     		str	r2, [r3, #4]
 1156              	.LVL128:
 1157              	.LBE50:
 1158              	.LBE49:
 1159              	.LBB51:
 1160              	.LBB52:
 1161 0010 8022     		movs	r2, #128
 1162 0012 03F5C063 		add	r3, r3, #1536
 1163 0016 5A60     		str	r2, [r3, #4]
 1164              	.LVL129:
 1165              	.LBE52:
 1166              	.LBE51:
 1167              	.LBB53:
 1168              	.LBB54:
 872:Generated_Source\PSoC6\pdl\drivers/peripheral/gpio/cy_gpio.h **** }
 1169              		.loc 3 872 0
 1170 0018 0422     		movs	r2, #4
 1171 001a A3F52073 		sub	r3, r3, #640
 1172 001e 9A60     		str	r2, [r3, #8]
 1173              	.LVL130:
 1174              	.LBE54:
 1175              	.LBE53:
 288:BLE_Task.c    ****             shiftOut(0, RED);
 1176              		.loc 1 288 0
 1177 0020 012C     		cmp	r4, #1
 1178 0022 04D1     		bne	.L81
 289:BLE_Task.c    ****         }
 1179              		.loc 1 289 0
 1180 0024 0121     		movs	r1, #1
 1181 0026 0020     		movs	r0, #0
 1182 0028 FFF7FEFF 		bl	shiftOut
 1183              	.LVL131:
 1184 002c 0CE0     		b	.L82
 1185              	.L81:
 291:BLE_Task.c    ****             shiftOut(0, GREEN);
 1186              		.loc 1 291 0
 1187 002e 022C     		cmp	r4, #2
 1188 0030 04D1     		bne	.L83
 292:BLE_Task.c    ****         }
 1189              		.loc 1 292 0
 1190 0032 0221     		movs	r1, #2
ARM GAS  C:\Users\xhuli\AppData\Local\Temp\ccrNCJrA.s 			page 64


 1191 0034 0020     		movs	r0, #0
 1192 0036 FFF7FEFF 		bl	shiftOut
 1193              	.LVL132:
 1194 003a 05E0     		b	.L82
 1195              	.L83:
 294:BLE_Task.c    ****             shiftOut(0, IR);           
 1196              		.loc 1 294 0
 1197 003c 032C     		cmp	r4, #3
 1198 003e 03D1     		bne	.L82
 295:BLE_Task.c    ****         }     
 1199              		.loc 1 295 0
 1200 0040 0C21     		movs	r1, #12
 1201 0042 0020     		movs	r0, #0
 1202 0044 FFF7FEFF 		bl	shiftOut
 1203              	.LVL133:
 1204              	.L82:
 1205              	.LBB55:
 1206              	.LBB56:
 872:Generated_Source\PSoC6\pdl\drivers/peripheral/gpio/cy_gpio.h **** }
 1207              		.loc 3 872 0
 1208 0048 064B     		ldr	r3, .L85+4
 1209 004a 2022     		movs	r2, #32
 1210 004c 9A60     		str	r2, [r3, #8]
 1211              	.LVL134:
 1212              	.LBE56:
 1213              	.LBE55:
 1214              	.LBB57:
 1215              	.LBB58:
 1216              		.loc 3 899 0
 1217 004e 5A60     		str	r2, [r3, #4]
 1218              	.LVL135:
 1219              	.LBE58:
 1220              	.LBE57:
 1221              	.LBB59:
 1222              	.LBB60:
 1223 0050 0422     		movs	r2, #4
 1224 0052 03F56073 		add	r3, r3, #896
 1225 0056 5A60     		str	r2, [r3, #4]
 1226              	.LVL136:
 1227              	.LBE60:
 1228              	.LBE59:
 301:BLE_Task.c    ****     }
 1229              		.loc 1 301 0
 1230 0058 0348     		ldr	r0, .L85+8
 1231 005a FFF7FEFF 		bl	printf
 1232              	.LVL137:
 1233 005e 10BD     		pop	{r4, pc}
 1234              	.L86:
 1235              		.align	2
 1236              	.L85:
 1237 0060 E0000000 		.word	.LC9
 1238 0064 00003240 		.word	1077018624
 1239 0068 08010000 		.word	.LC10
 1240              		.cfi_endproc
 1241              	.LFE595:
 1242              		.size	enableLED, .-enableLED
 1243              		.section	.text.callback,"ax",%progbits
ARM GAS  C:\Users\xhuli\AppData\Local\Temp\ccrNCJrA.s 			page 65


 1244              		.align	2
 1245              		.global	callback
 1246              		.thumb
 1247              		.thumb_func
 1248              		.type	callback, %function
 1249              	callback:
 1250              	.LFB596:
 308:BLE_Task.c    ****     cy_stc_ble_gatts_write_cmd_req_param_t  *writeReqParameter;
 1251              		.loc 1 308 0
 1252              		.cfi_startproc
 1253              		@ args = 0, pretend = 0, frame = 0
 1254              		@ frame_needed = 0, uses_anonymous_args = 0
 1255              	.LVL138:
 1256 0000 10B5     		push	{r4, lr}
 1257              		.cfi_def_cfa_offset 8
 1258              		.cfi_offset 4, -8
 1259              		.cfi_offset 14, -4
 310:BLE_Task.c    ****     {
 1260              		.loc 1 310 0
 1261 0002 44F20803 		movw	r3, #16392
 1262 0006 9842     		cmp	r0, r3
 1263 0008 16D0     		beq	.L89
 1264 000a 0C46     		mov	r4, r1
 1265 000c 03D8     		bhi	.L90
 1266 000e B0F5805F 		cmp	r0, #4096
 1267 0012 09D0     		beq	.L91
 1268 0014 4EE0     		b	.L88
 1269              	.L90:
 1270 0016 45F20103 		movw	r3, #20481
 1271 001a 9842     		cmp	r0, r3
 1272 001c 1AD0     		beq	.L92
 1273 001e 45F20C03 		movw	r3, #20492
 1274 0022 9842     		cmp	r0, r3
 1275 0024 1AD0     		beq	.L93
 1276 0026 45E0     		b	.L88
 1277              	.L91:
 313:BLE_Task.c    ****         Cy_BLE_GAPP_StartAdvertisement(CY_BLE_ADVERTISING_FAST, CY_BLE_PERIPHERAL_CONFIGURATION_0_I
 1278              		.loc 1 313 0
 1279 0028 2548     		ldr	r0, .L100
 1280              	.LVL139:
 1281 002a FFF7FEFF 		bl	puts
 1282              	.LVL140:
 314:BLE_Task.c    ****         break;
 1283              		.loc 1 314 0
 1284 002e 0021     		movs	r1, #0
 1285 0030 0846     		mov	r0, r1
 1286 0032 FFF7FEFF 		bl	Cy_BLE_GAPP_StartAdvertisement
 1287              	.LVL141:
 315:BLE_Task.c    ****         
 1288              		.loc 1 315 0
 1289 0036 10BD     		pop	{r4, pc}
 1290              	.LVL142:
 1291              	.L89:
 318:BLE_Task.c    ****             Cy_GPIO_Set(OE_PORT, OE_NUM); //turn off the led when disconnected
 1292              		.loc 1 318 0
 1293 0038 2248     		ldr	r0, .L100+4
 1294              	.LVL143:
ARM GAS  C:\Users\xhuli\AppData\Local\Temp\ccrNCJrA.s 			page 66


 1295 003a FFF7FEFF 		bl	puts
 1296              	.LVL144:
 1297              	.LBB61:
 1298              	.LBB62:
 872:Generated_Source\PSoC6\pdl\drivers/peripheral/gpio/cy_gpio.h **** }
 1299              		.loc 3 872 0
 1300 003e 0422     		movs	r2, #4
 1301 0040 214B     		ldr	r3, .L100+8
 1302 0042 9A60     		str	r2, [r3, #8]
 1303              	.LVL145:
 1304              	.LBE62:
 1305              	.LBE61:
 320:BLE_Task.c    ****             printf(">>Start advertising!\r\n");
 1306              		.loc 1 320 0
 1307 0044 0021     		movs	r1, #0
 1308 0046 0846     		mov	r0, r1
 1309 0048 FFF7FEFF 		bl	Cy_BLE_GAPP_StartAdvertisement
 1310              	.LVL146:
 321:BLE_Task.c    ****             break;
 1311              		.loc 1 321 0
 1312 004c 1F48     		ldr	r0, .L100+12
 1313 004e FFF7FEFF 		bl	puts
 1314              	.LVL147:
 322:BLE_Task.c    ****             
 1315              		.loc 1 322 0
 1316 0052 10BD     		pop	{r4, pc}
 1317              	.LVL148:
 1318              	.L92:
 325:BLE_Task.c    ****         break;
 1319              		.loc 1 325 0
 1320 0054 1E48     		ldr	r0, .L100+16
 1321              	.LVL149:
 1322 0056 FFF7FEFF 		bl	puts
 1323              	.LVL150:
 326:BLE_Task.c    ****             
 1324              		.loc 1 326 0
 1325 005a 10BD     		pop	{r4, pc}
 1326              	.LVL151:
 1327              	.L93:
 332:BLE_Task.c    ****             {
 1328              		.loc 1 332 0
 1329 005c 0B89     		ldrh	r3, [r1, #8]
 1330 005e 122B     		cmp	r3, #18
 1331 0060 24D1     		bne	.L95
 1332              	.LBB63:
 334:BLE_Task.c    **** 
 1333              		.loc 1 334 0
 1334 0062 0B68     		ldr	r3, [r1]
 1335 0064 1B78     		ldrb	r3, [r3]	@ zero_extendqisi2
 1336              	.LVL152:
 336:BLE_Task.c    ****                 {
 1337              		.loc 1 336 0
 1338 0066 312B     		cmp	r3, #49
 1339 0068 08D1     		bne	.L96
 1340              	.LVL153:
 339:BLE_Task.c    ****                     vTaskDelay(100);                
 1341              		.loc 1 339 0
ARM GAS  C:\Users\xhuli\AppData\Local\Temp\ccrNCJrA.s 			page 67


 1342 006a 0120     		movs	r0, #1
 1343              	.LVL154:
 1344 006c FFF7FEFF 		bl	enableLED
 1345              	.LVL155:
 340:BLE_Task.c    ****                     detectPeaks();
 1346              		.loc 1 340 0
 1347 0070 6420     		movs	r0, #100
 1348 0072 FFF7FEFF 		bl	vTaskDelay
 1349              	.LVL156:
 341:BLE_Task.c    ****                 }
 1350              		.loc 1 341 0
 1351 0076 FFF7FEFF 		bl	detectPeaks
 1352              	.LVL157:
 1353 007a 17E0     		b	.L95
 1354              	.LVL158:
 1355              	.L96:
 343:BLE_Task.c    ****                 {
 1356              		.loc 1 343 0
 1357 007c 322B     		cmp	r3, #50
 1358 007e 08D1     		bne	.L97
 1359              	.LVL159:
 346:BLE_Task.c    ****                     vTaskDelay(100);
 1360              		.loc 1 346 0
 1361 0080 0220     		movs	r0, #2
 1362              	.LVL160:
 1363 0082 FFF7FEFF 		bl	enableLED
 1364              	.LVL161:
 347:BLE_Task.c    ****                     detectPeaks();
 1365              		.loc 1 347 0
 1366 0086 6420     		movs	r0, #100
 1367 0088 FFF7FEFF 		bl	vTaskDelay
 1368              	.LVL162:
 348:BLE_Task.c    ****                 }
 1369              		.loc 1 348 0
 1370 008c FFF7FEFF 		bl	detectPeaks
 1371              	.LVL163:
 1372 0090 0CE0     		b	.L95
 1373              	.LVL164:
 1374              	.L97:
 350:BLE_Task.c    ****                     val = 3;
 1375              		.loc 1 350 0
 1376 0092 332B     		cmp	r3, #51
 1377 0094 08D1     		bne	.L98
 1378              	.LVL165:
 352:BLE_Task.c    ****                     vTaskDelay(100);
 1379              		.loc 1 352 0
 1380 0096 0320     		movs	r0, #3
 1381              	.LVL166:
 1382 0098 FFF7FEFF 		bl	enableLED
 1383              	.LVL167:
 353:BLE_Task.c    ****                     detectPeaks();
 1384              		.loc 1 353 0
 1385 009c 6420     		movs	r0, #100
 1386 009e FFF7FEFF 		bl	vTaskDelay
 1387              	.LVL168:
 354:BLE_Task.c    ****                 }
 1388              		.loc 1 354 0
ARM GAS  C:\Users\xhuli\AppData\Local\Temp\ccrNCJrA.s 			page 68


 1389 00a2 FFF7FEFF 		bl	detectPeaks
 1390              	.LVL169:
 1391 00a6 01E0     		b	.L95
 1392              	.LVL170:
 1393              	.L98:
 356:BLE_Task.c    ****             }
 1394              		.loc 1 356 0
 1395 00a8 FFF7FEFF 		bl	writeRefValue
 1396              	.LVL171:
 1397              	.L95:
 1398              	.LBE63:
 358:BLE_Task.c    ****             break;
 1399              		.loc 1 358 0
 1400 00ac E068     		ldr	r0, [r4, #12]
 1401 00ae FFF7FEFF 		bl	Cy_BLE_GATTS_WriteRsp
 1402              	.LVL172:
 359:BLE_Task.c    ****         default:
 1403              		.loc 1 359 0
 1404 00b2 10BD     		pop	{r4, pc}
 1405              	.LVL173:
 1406              	.L88:
 361:BLE_Task.c    ****             writeRefValue();
 1407              		.loc 1 361 0
 1408 00b4 FFF7FEFF 		bl	sendTempData
 1409              	.LVL174:
 362:BLE_Task.c    ****             break;
 1410              		.loc 1 362 0
 1411 00b8 FFF7FEFF 		bl	writeRefValue
 1412              	.LVL175:
 1413 00bc 10BD     		pop	{r4, pc}
 1414              	.LVL176:
 1415              	.L101:
 1416 00be 00BF     		.align	2
 1417              	.L100:
 1418 00c0 28010000 		.word	.LC11
 1419 00c4 40010000 		.word	.LC12
 1420 00c8 80033240 		.word	1077019520
 1421 00cc 58010000 		.word	.LC13
 1422 00d0 70010000 		.word	.LC14
 1423              		.cfi_endproc
 1424              	.LFE596:
 1425              		.size	callback, .-callback
 1426              		.section	.text.bleTask,"ax",%progbits
 1427              		.align	2
 1428              		.global	bleTask
 1429              		.thumb
 1430              		.thumb_func
 1431              		.type	bleTask, %function
 1432              	bleTask:
 1433              	.LFB598:
 374:BLE_Task.c    **** 
 375:BLE_Task.c    **** /*********************************************************/
 376:BLE_Task.c    **** /******FUNCTION FOR BLE FreeRTOS TASK INSTRUCTIONS********/
 377:BLE_Task.c    **** /*********************************************************/
 378:BLE_Task.c    **** void bleTask(void *arg){
 1434              		.loc 1 378 0
 1435              		.cfi_startproc
ARM GAS  C:\Users\xhuli\AppData\Local\Temp\ccrNCJrA.s 			page 69


 1436              		@ Volatile: function does not return.
 1437              		@ args = 0, pretend = 0, frame = 0
 1438              		@ frame_needed = 0, uses_anonymous_args = 0
 1439              	.LVL177:
 1440 0000 08B5     		push	{r3, lr}
 1441              		.cfi_def_cfa_offset 8
 1442              		.cfi_offset 3, -8
 1443              		.cfi_offset 14, -4
 379:BLE_Task.c    **** 
 380:BLE_Task.c    ****     (void) arg;
 381:BLE_Task.c    ****     Init_Components();
 1444              		.loc 1 381 0
 1445 0002 FFF7FEFF 		bl	Init_Components
 1446              	.LVL178:
 382:BLE_Task.c    ****     printf(">>>BLE Task Successfully Started!\r\n");
 1447              		.loc 1 382 0
 1448 0006 1048     		ldr	r0, .L107
 1449 0008 FFF7FEFF 		bl	puts
 1450              	.LVL179:
 383:BLE_Task.c    ****     
 384:BLE_Task.c    ****     bleSemaphore = xSemaphoreCreateCounting(UINT_MAX, 0);
 1451              		.loc 1 384 0
 1452 000c 0021     		movs	r1, #0
 1453 000e 4FF0FF30 		mov	r0, #-1
 1454 0012 FFF7FEFF 		bl	xQueueCreateCountingSemaphore
 1455              	.LVL180:
 1456 0016 0D4B     		ldr	r3, .L107+4
 1457 0018 1860     		str	r0, [r3]
 385:BLE_Task.c    ****     Cy_BLE_Start(callback);
 1458              		.loc 1 385 0
 1459 001a 0D48     		ldr	r0, .L107+8
 1460 001c FFF7FEFF 		bl	Cy_BLE_Start
 1461              	.LVL181:
 386:BLE_Task.c    ****     
 387:BLE_Task.c    ****     while(Cy_BLE_GetState() != CY_BLE_STATE_ON)
 1462              		.loc 1 387 0
 1463 0020 01E0     		b	.L103
 1464              	.L104:
 388:BLE_Task.c    ****     {
 389:BLE_Task.c    ****         Cy_BLE_ProcessEvents();
 1465              		.loc 1 389 0
 1466 0022 FFF7FEFF 		bl	Cy_BLE_ProcessEvents
 1467              	.LVL182:
 1468              	.L103:
 387:BLE_Task.c    ****     {
 1469              		.loc 1 387 0
 1470 0026 0B4B     		ldr	r3, .L107+12
 1471 0028 1B78     		ldrb	r3, [r3]	@ zero_extendqisi2
 1472 002a 022B     		cmp	r3, #2
 1473 002c F9D1     		bne	.L104
 390:BLE_Task.c    ****     }
 391:BLE_Task.c    ****     
 392:BLE_Task.c    ****     Cy_BLE_RegisterAppHostCallback(bleInterruptNotify);
 1474              		.loc 1 392 0
 1475 002e 0A48     		ldr	r0, .L107+16
 1476 0030 FFF7FEFF 		bl	Cy_BLE_RegisterAppHostCallback
 1477              	.LVL183:
ARM GAS  C:\Users\xhuli\AppData\Local\Temp\ccrNCJrA.s 			page 70


 1478              	.L105:
 393:BLE_Task.c    ****     
 394:BLE_Task.c    **** 
 395:BLE_Task.c    ****     for(;;)
 396:BLE_Task.c    ****     {
 397:BLE_Task.c    ****         xSemaphoreTake(bleSemaphore, portMAX_DELAY);
 1479              		.loc 1 397 0 discriminator 1
 1480 0034 4FF0FF31 		mov	r1, #-1
 1481 0038 044B     		ldr	r3, .L107+4
 1482 003a 1868     		ldr	r0, [r3]
 1483 003c FFF7FEFF 		bl	xQueueSemaphoreTake
 1484              	.LVL184:
 398:BLE_Task.c    ****         Cy_BLE_ProcessEvents();
 1485              		.loc 1 398 0 discriminator 1
 1486 0040 FFF7FEFF 		bl	Cy_BLE_ProcessEvents
 1487              	.LVL185:
 1488 0044 F6E7     		b	.L105
 1489              	.L108:
 1490 0046 00BF     		.align	2
 1491              	.L107:
 1492 0048 88010000 		.word	.LC15
 1493 004c 00000000 		.word	bleSemaphore
 1494 0050 00000000 		.word	callback
 1495 0054 00000000 		.word	cy_ble_state
 1496 0058 00000000 		.word	bleInterruptNotify
 1497              		.cfi_endproc
 1498              	.LFE598:
 1499              		.size	bleTask, .-bleTask
 1500              		.global	sample
 1501              		.global	possible_val
 1502              		.global	possible_beat
 1503              		.global	valley
 1504              		.global	beat
 1505              		.global	num_steps
 1506              		.comm	bleSemaphore,4,4
 1507              		.global	sensorAddress
 1508              		.global	temperature
 1509              		.comm	serviceData,8,4
 1510              		.comm	serviceHandle,12,4
 1511              		.data
 1512              		.set	.LANCHOR1,. + 0
 1513              		.type	sensorAddress, %object
 1514              		.size	sensorAddress, 1
 1515              	sensorAddress:
 1516 0000 48       		.byte	72
 1517              		.section	.rodata.str1.4,"aMS",%progbits,1
 1518              		.align	2
 1519              	.LC0:
 1520 0000 3E3E436F 		.ascii	">>Collecting Heart Rate Data\015\000"
 1520      6C6C6563 
 1520      74696E67 
 1520      20486561 
 1520      72742052 
 1521 001e 0000     		.space	2
 1522              	.LC1:
 1523 0020 47656E65 		.ascii	"Generated_Source\\PSoC6/ADC.h\000"
 1523      72617465 
ARM GAS  C:\Users\xhuli\AppData\Local\Temp\ccrNCJrA.s 			page 71


 1523      645F536F 
 1523      75726365 
 1523      5C50536F 
 1524 003d 000000   		.space	3
 1525              	.LC2:
 1526 0040 3E3E4361 		.ascii	">>Calculating Heart Rate\015\000"
 1526      6C63756C 
 1526      6174696E 
 1526      67204865 
 1526      61727420 
 1527 005a 0000     		.space	2
 1528              	.LC3:
 1529 005c 5065616B 		.ascii	"Peaks:                  %d \015\012\000"
 1529      733A2020 
 1529      20202020 
 1529      20202020 
 1529      20202020 
 1530 007a 0000     		.space	2
 1531              	.LC4:
 1532 007c 506F7373 		.ascii	"Possible Peaks:         %d \015\012\000"
 1532      69626C65 
 1532      20506561 
 1532      6B733A20 
 1532      20202020 
 1533 009a 0000     		.space	2
 1534              	.LC5:
 1535 009c 45737469 		.ascii	"Estimated Heart Rate:   %d \015\012\000"
 1535      6D617465 
 1535      64204865 
 1535      61727420 
 1535      52617465 
 1536 00ba 0000     		.space	2
 1537              	.LC6:
 1538 00bc 3E3E436F 		.ascii	">>Components Initialized!\015\000"
 1538      6D706F6E 
 1538      656E7473 
 1538      20496E69 
 1538      7469616C 
 1539 00d7 00       		.space	1
 1540              	.LC7:
 1541 00d8 256600   		.ascii	"%f\000"
 1542 00db 00       		.space	1
 1543              	.LC8:
 1544 00dc 256400   		.ascii	"%d\000"
 1545 00df 00       		.space	1
 1546              	.LC9:
 1547 00e0 3E3E5374 		.ascii	">>Starting LED register shifting! \012\015\000"
 1547      61727469 
 1547      6E67204C 
 1547      45442072 
 1547      65676973 
 1548 0105 000000   		.space	3
 1549              	.LC10:
 1550 0108 3E3E4C45 		.ascii	">>LED Enabled Successfully! \012\015\000"
 1550      4420456E 
 1550      61626C65 
 1550      64205375 
ARM GAS  C:\Users\xhuli\AppData\Local\Temp\ccrNCJrA.s 			page 72


 1550      63636573 
 1551 0127 00       		.space	1
 1552              	.LC11:
 1553 0128 3E3E5374 		.ascii	">>Start advertising\015\000"
 1553      61727420 
 1553      61647665 
 1553      72746973 
 1553      696E670D 
 1554 013d 000000   		.space	3
 1555              	.LC12:
 1556 0140 3E3E4465 		.ascii	">>Device disconnected!\015\000"
 1556      76696365 
 1556      20646973 
 1556      636F6E6E 
 1556      65637465 
 1557              	.LC13:
 1558 0158 3E3E5374 		.ascii	">>Start advertising!\015\000"
 1558      61727420 
 1558      61647665 
 1558      72746973 
 1558      696E6721 
 1559 016e 0000     		.space	2
 1560              	.LC14:
 1561 0170 3E3E4465 		.ascii	">>Device connected!\015\000"
 1561      76696365 
 1561      20636F6E 
 1561      6E656374 
 1561      6564210D 
 1562 0185 000000   		.space	3
 1563              	.LC15:
 1564 0188 3E3E3E42 		.ascii	">>>BLE Task Successfully Started!\015\000"
 1564      4C452054 
 1564      61736B20 
 1564      53756363 
 1564      65737366 
 1565              		.bss
 1566              		.align	2
 1567              		.set	.LANCHOR0,. + 0
 1568              		.type	sample, %object
 1569              		.size	sample, 800
 1570              	sample:
 1571 0000 00000000 		.space	800
 1571      00000000 
 1571      00000000 
 1571      00000000 
 1571      00000000 
 1572              		.type	num_steps, %object
 1573              		.size	num_steps, 4
 1574              	num_steps:
 1575 0320 00000000 		.space	4
 1576              		.type	possible_val, %object
 1577              		.size	possible_val, 4
 1578              	possible_val:
 1579 0324 00000000 		.space	4
 1580              		.type	possible_beat, %object
 1581              		.size	possible_beat, 4
 1582              	possible_beat:
ARM GAS  C:\Users\xhuli\AppData\Local\Temp\ccrNCJrA.s 			page 73


 1583 0328 00000000 		.space	4
 1584              		.type	beat, %object
 1585              		.size	beat, 4
 1586              	beat:
 1587 032c 00000000 		.space	4
 1588              		.type	valley, %object
 1589              		.size	valley, 4
 1590              	valley:
 1591 0330 00000000 		.space	4
 1592              		.type	I2C_Data, %object
 1593              		.size	I2C_Data, 3
 1594              	I2C_Data:
 1595 0334 000000   		.space	3
 1596 0337 00       		.space	1
 1597              		.type	temperature, %object
 1598              		.size	temperature, 4
 1599              	temperature:
 1600 0338 00000000 		.space	4
 1601              		.type	I2C_bytes, %object
 1602              		.size	I2C_bytes, 5
 1603              	I2C_bytes:
 1604 033c 00000000 		.space	5
 1604      00
 1605 0341 000000   		.space	3
 1606              		.type	ADC_bytes, %object
 1607              		.size	ADC_bytes, 4
 1608              	ADC_bytes:
 1609 0344 00000000 		.space	4
 1610              		.text
 1611              	.Letext0:
 1612              		.file 4 "c:\\program files (x86)\\cypress\\psoc creator\\4.4\\psoc creator\\import\\gnu\\arm\\5.4.
 1613              		.file 5 "c:\\program files (x86)\\cypress\\psoc creator\\4.4\\psoc creator\\import\\gnu\\arm\\5.4.
 1614              		.file 6 "Generated_Source\\PSoC6\\pdl\\devices/psoc6/include/ip/cyip_gpio.h"
 1615              		.file 7 "Generated_Source\\PSoC6\\pdl\\devices/psoc6/include/ip/cyip_scb.h"
 1616              		.file 8 "Generated_Source\\PSoC6\\pdl\\devices/psoc6/include/ip/cyip_sar.h"
 1617              		.file 9 "Generated_Source\\PSoC6\\pdl\\devices/psoc6/include/psoc6_01_config.h"
 1618              		.file 10 "Generated_Source\\PSoC6\\pdl\\drivers/peripheral/device/cy_device.h"
 1619              		.file 11 "Generated_Source\\PSoC6\\pdl\\drivers/peripheral/syslib/cy_syslib.h"
 1620              		.file 12 "Generated_Source\\PSoC6\\pdl\\drivers/peripheral/sar/cy_sar.h"
 1621              		.file 13 "Generated_Source\\PSoC6\\pdl\\drivers/peripheral/scb/cy_scb_i2c.h"
 1622              		.file 14 "Generated_Source\\PSoC6\\pdl\\drivers/peripheral/scb/cy_scb_uart.h"
 1623              		.file 15 "Generated_Source\\PSoC6\\pdl\\middleware/ble/cy_ble_stack.h"
 1624              		.file 16 "Generated_Source\\PSoC6\\pdl\\middleware/ble/cy_ble_stack_host_main.h"
 1625              		.file 17 "Generated_Source\\PSoC6\\pdl\\middleware/ble/cy_ble_stack_gatt.h"
 1626              		.file 18 "Generated_Source\\PSoC6\\pdl\\middleware/ble/cy_ble_gap.h"
 1627              		.file 19 "Generated_Source\\PSoC6\\pdl\\middleware/ble/cy_ble_stack_gatt_server.h"
 1628              		.file 20 "Generated_Source\\PSoC6\\pdl\\rtos/FreeRTOS/10.0.1/Source/portable/GCC/CM4F/portmacro.h"
 1629              		.file 21 "Generated_Source\\PSoC6\\pdl\\rtos/FreeRTOS/10.0.1/Source/include/queue.h"
 1630              		.file 22 "Generated_Source\\PSoC6\\pdl\\rtos/FreeRTOS/10.0.1/Source/include/semphr.h"
 1631              		.file 23 "c:\\program files (x86)\\cypress\\psoc creator\\4.4\\psoc creator\\import\\gnu\\arm\\5.4
 1632              		.file 24 "ADC_Task.h"
 1633              		.file 25 "Generated_Source\\PSoC6\\pdl\\cmsis/include/core_cm4.h"
 1634              		.file 26 "Generated_Source\\PSoC6/UART.h"
 1635              		.file 27 "Generated_Source\\PSoC6/I2C.h"
 1636              		.file 28 "I2C_Task.h"
 1637              		.file 29 "Generated_Source\\PSoC6\\pdl\\rtos/FreeRTOS/10.0.1/Source/include/task.h"
 1638              		.file 30 "c:\\program files (x86)\\cypress\\psoc creator\\4.4\\psoc creator\\import\\gnu\\arm\\5.4
ARM GAS  C:\Users\xhuli\AppData\Local\Temp\ccrNCJrA.s 			page 74


 1639              		.file 31 "c:\\program files (x86)\\cypress\\psoc creator\\4.4\\psoc creator\\import\\gnu\\arm\\5.4
 1640              		.file 32 "Generated_Source\\PSoC6\\pdl\\middleware/ble/cy_ble_gatt.h"
 1641              		.file 33 "Generated_Source\\PSoC6/BLE.h"
 1642              		.file 34 "Generated_Source\\PSoC6\\pdl\\middleware/ble/cy_ble.h"
 1643              		.file 35 "<built-in>"
 1644              		.section	.debug_info,"",%progbits
 1645              	.Ldebug_info0:
 1646 0000 19280000 		.4byte	0x2819
 1647 0004 0400     		.2byte	0x4
 1648 0006 00000000 		.4byte	.Ldebug_abbrev0
 1649 000a 04       		.byte	0x4
 1650 000b 01       		.uleb128 0x1
 1651 000c CF170000 		.4byte	.LASF564
 1652 0010 0C       		.byte	0xc
 1653 0011 4F1F0000 		.4byte	.LASF565
 1654 0015 AA0B0000 		.4byte	.LASF566
 1655 0019 18000000 		.4byte	.Ldebug_ranges0+0x18
 1656 001d 00000000 		.4byte	0
 1657 0021 00000000 		.4byte	.Ldebug_line0
 1658 0025 02       		.uleb128 0x2
 1659 0026 04       		.byte	0x4
 1660 0027 04       		.byte	0x4
 1661 0028 0A170000 		.4byte	.LASF0
 1662 002c 02       		.uleb128 0x2
 1663 002d 02       		.byte	0x2
 1664 002e 05       		.byte	0x5
 1665 002f 23230000 		.4byte	.LASF1
 1666 0033 02       		.uleb128 0x2
 1667 0034 01       		.byte	0x1
 1668 0035 06       		.byte	0x6
 1669 0036 F9080000 		.4byte	.LASF2
 1670 003a 03       		.uleb128 0x3
 1671 003b 32050000 		.4byte	.LASF4
 1672 003f 04       		.byte	0x4
 1673 0040 1D       		.byte	0x1d
 1674 0041 45000000 		.4byte	0x45
 1675 0045 02       		.uleb128 0x2
 1676 0046 01       		.byte	0x1
 1677 0047 08       		.byte	0x8
 1678 0048 A51A0000 		.4byte	.LASF3
 1679 004c 03       		.uleb128 0x3
 1680 004d 39200000 		.4byte	.LASF5
 1681 0051 04       		.byte	0x4
 1682 0052 29       		.byte	0x29
 1683 0053 2C000000 		.4byte	0x2c
 1684 0057 03       		.uleb128 0x3
 1685 0058 7F070000 		.4byte	.LASF6
 1686 005c 04       		.byte	0x4
 1687 005d 2B       		.byte	0x2b
 1688 005e 62000000 		.4byte	0x62
 1689 0062 02       		.uleb128 0x2
 1690 0063 02       		.byte	0x2
 1691 0064 07       		.byte	0x7
 1692 0065 C6260000 		.4byte	.LASF7
 1693 0069 03       		.uleb128 0x3
 1694 006a 0F280000 		.4byte	.LASF8
 1695 006e 04       		.byte	0x4
ARM GAS  C:\Users\xhuli\AppData\Local\Temp\ccrNCJrA.s 			page 75


 1696 006f 3F       		.byte	0x3f
 1697 0070 74000000 		.4byte	0x74
 1698 0074 02       		.uleb128 0x2
 1699 0075 04       		.byte	0x4
 1700 0076 05       		.byte	0x5
 1701 0077 22060000 		.4byte	.LASF9
 1702 007b 03       		.uleb128 0x3
 1703 007c 9C140000 		.4byte	.LASF10
 1704 0080 04       		.byte	0x4
 1705 0081 41       		.byte	0x41
 1706 0082 86000000 		.4byte	0x86
 1707 0086 02       		.uleb128 0x2
 1708 0087 04       		.byte	0x4
 1709 0088 07       		.byte	0x7
 1710 0089 3F110000 		.4byte	.LASF11
 1711 008d 02       		.uleb128 0x2
 1712 008e 08       		.byte	0x8
 1713 008f 05       		.byte	0x5
 1714 0090 D2140000 		.4byte	.LASF12
 1715 0094 02       		.uleb128 0x2
 1716 0095 08       		.byte	0x8
 1717 0096 07       		.byte	0x7
 1718 0097 791D0000 		.4byte	.LASF13
 1719 009b 04       		.uleb128 0x4
 1720 009c 04       		.byte	0x4
 1721 009d 05       		.byte	0x5
 1722 009e 696E7400 		.ascii	"int\000"
 1723 00a2 02       		.uleb128 0x2
 1724 00a3 04       		.byte	0x4
 1725 00a4 07       		.byte	0x7
 1726 00a5 72170000 		.4byte	.LASF14
 1727 00a9 03       		.uleb128 0x3
 1728 00aa 27090000 		.4byte	.LASF15
 1729 00ae 05       		.byte	0x5
 1730 00af 18       		.byte	0x18
 1731 00b0 3A000000 		.4byte	0x3a
 1732 00b4 03       		.uleb128 0x3
 1733 00b5 99230000 		.4byte	.LASF16
 1734 00b9 05       		.byte	0x5
 1735 00ba 20       		.byte	0x20
 1736 00bb 4C000000 		.4byte	0x4c
 1737 00bf 03       		.uleb128 0x3
 1738 00c0 D91D0000 		.4byte	.LASF17
 1739 00c4 05       		.byte	0x5
 1740 00c5 24       		.byte	0x24
 1741 00c6 57000000 		.4byte	0x57
 1742 00ca 03       		.uleb128 0x3
 1743 00cb B01F0000 		.4byte	.LASF18
 1744 00cf 05       		.byte	0x5
 1745 00d0 2C       		.byte	0x2c
 1746 00d1 69000000 		.4byte	0x69
 1747 00d5 03       		.uleb128 0x3
 1748 00d6 D5250000 		.4byte	.LASF19
 1749 00da 05       		.byte	0x5
 1750 00db 30       		.byte	0x30
 1751 00dc 7B000000 		.4byte	0x7b
 1752 00e0 02       		.uleb128 0x2
ARM GAS  C:\Users\xhuli\AppData\Local\Temp\ccrNCJrA.s 			page 76


 1753 00e1 04       		.byte	0x4
 1754 00e2 07       		.byte	0x7
 1755 00e3 E0100000 		.4byte	.LASF20
 1756 00e7 05       		.uleb128 0x5
 1757 00e8 D5000000 		.4byte	0xd5
 1758 00ec 06       		.uleb128 0x6
 1759 00ed E7000000 		.4byte	0xe7
 1760 00f1 07       		.uleb128 0x7
 1761 00f2 EC000000 		.4byte	0xec
 1762 00f6 01010000 		.4byte	0x101
 1763 00fa 08       		.uleb128 0x8
 1764 00fb E0000000 		.4byte	0xe0
 1765 00ff 01       		.byte	0x1
 1766 0100 00       		.byte	0
 1767 0101 07       		.uleb128 0x7
 1768 0102 EC000000 		.4byte	0xec
 1769 0106 11010000 		.4byte	0x111
 1770 010a 08       		.uleb128 0x8
 1771 010b E0000000 		.4byte	0xe0
 1772 010f 03       		.byte	0x3
 1773 0110 00       		.byte	0
 1774 0111 07       		.uleb128 0x7
 1775 0112 E7000000 		.4byte	0xe7
 1776 0116 21010000 		.4byte	0x121
 1777 011a 08       		.uleb128 0x8
 1778 011b E0000000 		.4byte	0xe0
 1779 011f 0F       		.byte	0xf
 1780 0120 00       		.byte	0
 1781 0121 07       		.uleb128 0x7
 1782 0122 EC000000 		.4byte	0xec
 1783 0126 31010000 		.4byte	0x131
 1784 012a 08       		.uleb128 0x8
 1785 012b E0000000 		.4byte	0xe0
 1786 012f 05       		.byte	0x5
 1787 0130 00       		.byte	0
 1788 0131 07       		.uleb128 0x7
 1789 0132 EC000000 		.4byte	0xec
 1790 0136 41010000 		.4byte	0x141
 1791 013a 08       		.uleb128 0x8
 1792 013b E0000000 		.4byte	0xe0
 1793 013f 7F       		.byte	0x7f
 1794 0140 00       		.byte	0
 1795 0141 07       		.uleb128 0x7
 1796 0142 EC000000 		.4byte	0xec
 1797 0146 51010000 		.4byte	0x151
 1798 014a 08       		.uleb128 0x8
 1799 014b E0000000 		.4byte	0xe0
 1800 014f 0C       		.byte	0xc
 1801 0150 00       		.byte	0
 1802 0151 07       		.uleb128 0x7
 1803 0152 EC000000 		.4byte	0xec
 1804 0156 61010000 		.4byte	0x161
 1805 015a 08       		.uleb128 0x8
 1806 015b E0000000 		.4byte	0xe0
 1807 015f 0F       		.byte	0xf
 1808 0160 00       		.byte	0
 1809 0161 07       		.uleb128 0x7
ARM GAS  C:\Users\xhuli\AppData\Local\Temp\ccrNCJrA.s 			page 77


 1810 0162 EC000000 		.4byte	0xec
 1811 0166 71010000 		.4byte	0x171
 1812 016a 08       		.uleb128 0x8
 1813 016b E0000000 		.4byte	0xe0
 1814 016f 1E       		.byte	0x1e
 1815 0170 00       		.byte	0
 1816 0171 07       		.uleb128 0x7
 1817 0172 EC000000 		.4byte	0xec
 1818 0176 81010000 		.4byte	0x181
 1819 017a 08       		.uleb128 0x8
 1820 017b E0000000 		.4byte	0xe0
 1821 017f 02       		.byte	0x2
 1822 0180 00       		.byte	0
 1823 0181 07       		.uleb128 0x7
 1824 0182 EC000000 		.4byte	0xec
 1825 0186 91010000 		.4byte	0x191
 1826 018a 08       		.uleb128 0x8
 1827 018b E0000000 		.4byte	0xe0
 1828 018f 0E       		.byte	0xe
 1829 0190 00       		.byte	0
 1830 0191 07       		.uleb128 0x7
 1831 0192 EC000000 		.4byte	0xec
 1832 0196 A1010000 		.4byte	0x1a1
 1833 019a 08       		.uleb128 0x8
 1834 019b E0000000 		.4byte	0xe0
 1835 019f 0B       		.byte	0xb
 1836 01a0 00       		.byte	0
 1837 01a1 07       		.uleb128 0x7
 1838 01a2 A9000000 		.4byte	0xa9
 1839 01a6 B1010000 		.4byte	0x1b1
 1840 01aa 08       		.uleb128 0x8
 1841 01ab E0000000 		.4byte	0xe0
 1842 01af 02       		.byte	0x2
 1843 01b0 00       		.byte	0
 1844 01b1 07       		.uleb128 0x7
 1845 01b2 A9000000 		.4byte	0xa9
 1846 01b6 C1010000 		.4byte	0x1c1
 1847 01ba 08       		.uleb128 0x8
 1848 01bb E0000000 		.4byte	0xe0
 1849 01bf 03       		.byte	0x3
 1850 01c0 00       		.byte	0
 1851 01c1 09       		.uleb128 0x9
 1852 01c2 80       		.byte	0x80
 1853 01c3 06       		.byte	0x6
 1854 01c4 22       		.byte	0x22
 1855 01c5 95020000 		.4byte	0x295
 1856 01c9 0A       		.uleb128 0xa
 1857 01ca 4F555400 		.ascii	"OUT\000"
 1858 01ce 06       		.byte	0x6
 1859 01cf 23       		.byte	0x23
 1860 01d0 E7000000 		.4byte	0xe7
 1861 01d4 00       		.byte	0
 1862 01d5 0B       		.uleb128 0xb
 1863 01d6 51030000 		.4byte	.LASF21
 1864 01da 06       		.byte	0x6
 1865 01db 24       		.byte	0x24
 1866 01dc E7000000 		.4byte	0xe7
ARM GAS  C:\Users\xhuli\AppData\Local\Temp\ccrNCJrA.s 			page 78


 1867 01e0 04       		.byte	0x4
 1868 01e1 0B       		.uleb128 0xb
 1869 01e2 33030000 		.4byte	.LASF22
 1870 01e6 06       		.byte	0x6
 1871 01e7 25       		.byte	0x25
 1872 01e8 E7000000 		.4byte	0xe7
 1873 01ec 08       		.byte	0x8
 1874 01ed 0B       		.uleb128 0xb
 1875 01ee 2C250000 		.4byte	.LASF23
 1876 01f2 06       		.byte	0x6
 1877 01f3 26       		.byte	0x26
 1878 01f4 E7000000 		.4byte	0xe7
 1879 01f8 0C       		.byte	0xc
 1880 01f9 0A       		.uleb128 0xa
 1881 01fa 494E00   		.ascii	"IN\000"
 1882 01fd 06       		.byte	0x6
 1883 01fe 27       		.byte	0x27
 1884 01ff EC000000 		.4byte	0xec
 1885 0203 10       		.byte	0x10
 1886 0204 0B       		.uleb128 0xb
 1887 0205 C9120000 		.4byte	.LASF24
 1888 0209 06       		.byte	0x6
 1889 020a 28       		.byte	0x28
 1890 020b E7000000 		.4byte	0xe7
 1891 020f 14       		.byte	0x14
 1892 0210 0B       		.uleb128 0xb
 1893 0211 D6030000 		.4byte	.LASF25
 1894 0215 06       		.byte	0x6
 1895 0216 29       		.byte	0x29
 1896 0217 E7000000 		.4byte	0xe7
 1897 021b 18       		.byte	0x18
 1898 021c 0B       		.uleb128 0xb
 1899 021d 6A1C0000 		.4byte	.LASF26
 1900 0221 06       		.byte	0x6
 1901 0222 2A       		.byte	0x2a
 1902 0223 EC000000 		.4byte	0xec
 1903 0227 1C       		.byte	0x1c
 1904 0228 0B       		.uleb128 0xb
 1905 0229 E11B0000 		.4byte	.LASF27
 1906 022d 06       		.byte	0x6
 1907 022e 2B       		.byte	0x2b
 1908 022f E7000000 		.4byte	0xe7
 1909 0233 20       		.byte	0x20
 1910 0234 0B       		.uleb128 0xb
 1911 0235 F6120000 		.4byte	.LASF28
 1912 0239 06       		.byte	0x6
 1913 023a 2C       		.byte	0x2c
 1914 023b E7000000 		.4byte	0xe7
 1915 023f 24       		.byte	0x24
 1916 0240 0A       		.uleb128 0xa
 1917 0241 43464700 		.ascii	"CFG\000"
 1918 0245 06       		.byte	0x6
 1919 0246 2D       		.byte	0x2d
 1920 0247 E7000000 		.4byte	0xe7
 1921 024b 28       		.byte	0x28
 1922 024c 0B       		.uleb128 0xb
 1923 024d A00D0000 		.4byte	.LASF29
ARM GAS  C:\Users\xhuli\AppData\Local\Temp\ccrNCJrA.s 			page 79


 1924 0251 06       		.byte	0x6
 1925 0252 2E       		.byte	0x2e
 1926 0253 E7000000 		.4byte	0xe7
 1927 0257 2C       		.byte	0x2c
 1928 0258 0B       		.uleb128 0xb
 1929 0259 3F0F0000 		.4byte	.LASF30
 1930 025d 06       		.byte	0x6
 1931 025e 2F       		.byte	0x2f
 1932 025f E7000000 		.4byte	0xe7
 1933 0263 30       		.byte	0x30
 1934 0264 0B       		.uleb128 0xb
 1935 0265 F7200000 		.4byte	.LASF31
 1936 0269 06       		.byte	0x6
 1937 026a 30       		.byte	0x30
 1938 026b E7000000 		.4byte	0xe7
 1939 026f 34       		.byte	0x34
 1940 0270 0B       		.uleb128 0xb
 1941 0271 470F0000 		.4byte	.LASF32
 1942 0275 06       		.byte	0x6
 1943 0276 31       		.byte	0x31
 1944 0277 EC000000 		.4byte	0xec
 1945 027b 38       		.byte	0x38
 1946 027c 0B       		.uleb128 0xb
 1947 027d 63080000 		.4byte	.LASF33
 1948 0281 06       		.byte	0x6
 1949 0282 32       		.byte	0x32
 1950 0283 E7000000 		.4byte	0xe7
 1951 0287 3C       		.byte	0x3c
 1952 0288 0B       		.uleb128 0xb
 1953 0289 0B0A0000 		.4byte	.LASF34
 1954 028d 06       		.byte	0x6
 1955 028e 33       		.byte	0x33
 1956 028f 9A020000 		.4byte	0x29a
 1957 0293 40       		.byte	0x40
 1958 0294 00       		.byte	0
 1959 0295 05       		.uleb128 0x5
 1960 0296 51010000 		.4byte	0x151
 1961 029a 06       		.uleb128 0x6
 1962 029b 95020000 		.4byte	0x295
 1963 029f 03       		.uleb128 0x3
 1964 02a0 0A040000 		.4byte	.LASF35
 1965 02a4 06       		.byte	0x6
 1966 02a5 34       		.byte	0x34
 1967 02a6 C1010000 		.4byte	0x1c1
 1968 02aa 0C       		.uleb128 0xc
 1969 02ab 2440     		.2byte	0x4024
 1970 02ad 06       		.byte	0x6
 1971 02ae 39       		.byte	0x39
 1972 02af 35030000 		.4byte	0x335
 1973 02b3 0A       		.uleb128 0xa
 1974 02b4 50525400 		.ascii	"PRT\000"
 1975 02b8 06       		.byte	0x6
 1976 02b9 3A       		.byte	0x3a
 1977 02ba 35030000 		.4byte	0x335
 1978 02be 00       		.byte	0
 1979 02bf 0D       		.uleb128 0xd
 1980 02c0 2B060000 		.4byte	.LASF36
ARM GAS  C:\Users\xhuli\AppData\Local\Temp\ccrNCJrA.s 			page 80


 1981 02c4 06       		.byte	0x6
 1982 02c5 3B       		.byte	0x3b
 1983 02c6 EC000000 		.4byte	0xec
 1984 02ca 0040     		.2byte	0x4000
 1985 02cc 0D       		.uleb128 0xd
 1986 02cd 5A280000 		.4byte	.LASF37
 1987 02d1 06       		.byte	0x6
 1988 02d2 3C       		.byte	0x3c
 1989 02d3 EC000000 		.4byte	0xec
 1990 02d7 0440     		.2byte	0x4004
 1991 02d9 0D       		.uleb128 0xd
 1992 02da 56060000 		.4byte	.LASF38
 1993 02de 06       		.byte	0x6
 1994 02df 3D       		.byte	0x3d
 1995 02e0 EC000000 		.4byte	0xec
 1996 02e4 0840     		.2byte	0x4008
 1997 02e6 0D       		.uleb128 0xd
 1998 02e7 62060000 		.4byte	.LASF39
 1999 02eb 06       		.byte	0x6
 2000 02ec 3E       		.byte	0x3e
 2001 02ed EC000000 		.4byte	0xec
 2002 02f1 0C40     		.2byte	0x400c
 2003 02f3 0D       		.uleb128 0xd
 2004 02f4 B7240000 		.4byte	.LASF40
 2005 02f8 06       		.byte	0x6
 2006 02f9 3F       		.byte	0x3f
 2007 02fa EC000000 		.4byte	0xec
 2008 02fe 1040     		.2byte	0x4010
 2009 0300 0D       		.uleb128 0xd
 2010 0301 951B0000 		.4byte	.LASF41
 2011 0305 06       		.byte	0x6
 2012 0306 40       		.byte	0x40
 2013 0307 E7000000 		.4byte	0xe7
 2014 030b 1440     		.2byte	0x4014
 2015 030d 0D       		.uleb128 0xd
 2016 030e E70D0000 		.4byte	.LASF42
 2017 0312 06       		.byte	0x6
 2018 0313 41       		.byte	0x41
 2019 0314 E7000000 		.4byte	0xe7
 2020 0318 1840     		.2byte	0x4018
 2021 031a 0D       		.uleb128 0xd
 2022 031b 65130000 		.4byte	.LASF43
 2023 031f 06       		.byte	0x6
 2024 0320 42       		.byte	0x42
 2025 0321 EC000000 		.4byte	0xec
 2026 0325 1C40     		.2byte	0x401c
 2027 0327 0D       		.uleb128 0xd
 2028 0328 B81F0000 		.4byte	.LASF44
 2029 032c 06       		.byte	0x6
 2030 032d 43       		.byte	0x43
 2031 032e E7000000 		.4byte	0xe7
 2032 0332 2040     		.2byte	0x4020
 2033 0334 00       		.byte	0
 2034 0335 07       		.uleb128 0x7
 2035 0336 9F020000 		.4byte	0x29f
 2036 033a 45030000 		.4byte	0x345
 2037 033e 08       		.uleb128 0x8
ARM GAS  C:\Users\xhuli\AppData\Local\Temp\ccrNCJrA.s 			page 81


 2038 033f E0000000 		.4byte	0xe0
 2039 0343 7F       		.byte	0x7f
 2040 0344 00       		.byte	0
 2041 0345 03       		.uleb128 0x3
 2042 0346 970C0000 		.4byte	.LASF45
 2043 034a 06       		.byte	0x6
 2044 034b 44       		.byte	0x44
 2045 034c AA020000 		.4byte	0x2aa
 2046 0350 07       		.uleb128 0x7
 2047 0351 EC000000 		.4byte	0xec
 2048 0355 60030000 		.4byte	0x360
 2049 0359 08       		.uleb128 0x8
 2050 035a E0000000 		.4byte	0xe0
 2051 035e 0A       		.byte	0xa
 2052 035f 00       		.byte	0
 2053 0360 07       		.uleb128 0x7
 2054 0361 EC000000 		.4byte	0xec
 2055 0365 70030000 		.4byte	0x370
 2056 0369 08       		.uleb128 0x8
 2057 036a E0000000 		.4byte	0xe0
 2058 036e 2E       		.byte	0x2e
 2059 036f 00       		.byte	0
 2060 0370 07       		.uleb128 0x7
 2061 0371 EC000000 		.4byte	0xec
 2062 0375 80030000 		.4byte	0x380
 2063 0379 08       		.uleb128 0x8
 2064 037a E0000000 		.4byte	0xe0
 2065 037e 2D       		.byte	0x2d
 2066 037f 00       		.byte	0
 2067 0380 07       		.uleb128 0x7
 2068 0381 E7000000 		.4byte	0xe7
 2069 0385 91030000 		.4byte	0x391
 2070 0389 0E       		.uleb128 0xe
 2071 038a E0000000 		.4byte	0xe0
 2072 038e FF01     		.2byte	0x1ff
 2073 0390 00       		.byte	0
 2074 0391 07       		.uleb128 0x7
 2075 0392 EC000000 		.4byte	0xec
 2076 0396 A1030000 		.4byte	0x3a1
 2077 039a 08       		.uleb128 0x8
 2078 039b E0000000 		.4byte	0xe0
 2079 039f 62       		.byte	0x62
 2080 03a0 00       		.byte	0
 2081 03a1 0C       		.uleb128 0xc
 2082 03a2 D00F     		.2byte	0xfd0
 2083 03a4 07       		.byte	0x7
 2084 03a5 21       		.byte	0x21
 2085 03a6 0B070000 		.4byte	0x70b
 2086 03aa 0B       		.uleb128 0xb
 2087 03ab 7F170000 		.4byte	.LASF46
 2088 03af 07       		.byte	0x7
 2089 03b0 22       		.byte	0x22
 2090 03b1 E7000000 		.4byte	0xe7
 2091 03b5 00       		.byte	0
 2092 03b6 0B       		.uleb128 0xb
 2093 03b7 94200000 		.4byte	.LASF47
 2094 03bb 07       		.byte	0x7
ARM GAS  C:\Users\xhuli\AppData\Local\Temp\ccrNCJrA.s 			page 82


 2095 03bc 23       		.byte	0x23
 2096 03bd EC000000 		.4byte	0xec
 2097 03c1 04       		.byte	0x4
 2098 03c2 0B       		.uleb128 0xb
 2099 03c3 86200000 		.4byte	.LASF48
 2100 03c7 07       		.byte	0x7
 2101 03c8 24       		.byte	0x24
 2102 03c9 E7000000 		.4byte	0xe7
 2103 03cd 08       		.byte	0x8
 2104 03ce 0B       		.uleb128 0xb
 2105 03cf 1F1F0000 		.4byte	.LASF49
 2106 03d3 07       		.byte	0x7
 2107 03d4 25       		.byte	0x25
 2108 03d5 EC000000 		.4byte	0xec
 2109 03d9 0C       		.byte	0xc
 2110 03da 0B       		.uleb128 0xb
 2111 03db 470F0000 		.4byte	.LASF32
 2112 03df 07       		.byte	0x7
 2113 03e0 26       		.byte	0x26
 2114 03e1 10070000 		.4byte	0x710
 2115 03e5 10       		.byte	0x10
 2116 03e6 0B       		.uleb128 0xb
 2117 03e7 D5060000 		.4byte	.LASF50
 2118 03eb 07       		.byte	0x7
 2119 03ec 27       		.byte	0x27
 2120 03ed E7000000 		.4byte	0xe7
 2121 03f1 20       		.byte	0x20
 2122 03f2 0B       		.uleb128 0xb
 2123 03f3 41170000 		.4byte	.LASF51
 2124 03f7 07       		.byte	0x7
 2125 03f8 28       		.byte	0x28
 2126 03f9 EC000000 		.4byte	0xec
 2127 03fd 24       		.byte	0x24
 2128 03fe 0B       		.uleb128 0xb
 2129 03ff 0B0A0000 		.4byte	.LASF34
 2130 0403 07       		.byte	0x7
 2131 0404 29       		.byte	0x29
 2132 0405 1A070000 		.4byte	0x71a
 2133 0409 28       		.byte	0x28
 2134 040a 0B       		.uleb128 0xb
 2135 040b 11010000 		.4byte	.LASF52
 2136 040f 07       		.byte	0x7
 2137 0410 2A       		.byte	0x2a
 2138 0411 E7000000 		.4byte	0xe7
 2139 0415 40       		.byte	0x40
 2140 0416 0B       		.uleb128 0xb
 2141 0417 AE0C0000 		.4byte	.LASF53
 2142 041b 07       		.byte	0x7
 2143 041c 2B       		.byte	0x2b
 2144 041d E7000000 		.4byte	0xe7
 2145 0421 44       		.byte	0x44
 2146 0422 0B       		.uleb128 0xb
 2147 0423 F8070000 		.4byte	.LASF54
 2148 0427 07       		.byte	0x7
 2149 0428 2C       		.byte	0x2c
 2150 0429 E7000000 		.4byte	0xe7
 2151 042d 48       		.byte	0x48
ARM GAS  C:\Users\xhuli\AppData\Local\Temp\ccrNCJrA.s 			page 83


 2152 042e 0B       		.uleb128 0xb
 2153 042f 650F0000 		.4byte	.LASF55
 2154 0433 07       		.byte	0x7
 2155 0434 2D       		.byte	0x2d
 2156 0435 EC000000 		.4byte	0xec
 2157 0439 4C       		.byte	0x4c
 2158 043a 0B       		.uleb128 0xb
 2159 043b 841A0000 		.4byte	.LASF56
 2160 043f 07       		.byte	0x7
 2161 0440 2E       		.byte	0x2e
 2162 0441 E7000000 		.4byte	0xe7
 2163 0445 50       		.byte	0x50
 2164 0446 0B       		.uleb128 0xb
 2165 0447 150A0000 		.4byte	.LASF57
 2166 044b 07       		.byte	0x7
 2167 044c 2F       		.byte	0x2f
 2168 044d 24070000 		.4byte	0x724
 2169 0451 54       		.byte	0x54
 2170 0452 0B       		.uleb128 0xb
 2171 0453 AA290000 		.4byte	.LASF58
 2172 0457 07       		.byte	0x7
 2173 0458 30       		.byte	0x30
 2174 0459 E7000000 		.4byte	0xe7
 2175 045d 60       		.byte	0x60
 2176 045e 0B       		.uleb128 0xb
 2177 045f 86250000 		.4byte	.LASF59
 2178 0463 07       		.byte	0x7
 2179 0464 31       		.byte	0x31
 2180 0465 EC000000 		.4byte	0xec
 2181 0469 64       		.byte	0x64
 2182 046a 0B       		.uleb128 0xb
 2183 046b A7080000 		.4byte	.LASF60
 2184 046f 07       		.byte	0x7
 2185 0470 32       		.byte	0x32
 2186 0471 E7000000 		.4byte	0xe7
 2187 0475 68       		.byte	0x68
 2188 0476 0B       		.uleb128 0xb
 2189 0477 260C0000 		.4byte	.LASF61
 2190 047b 07       		.byte	0x7
 2191 047c 33       		.byte	0x33
 2192 047d E7000000 		.4byte	0xe7
 2193 0481 6C       		.byte	0x6c
 2194 0482 0B       		.uleb128 0xb
 2195 0483 34040000 		.4byte	.LASF62
 2196 0487 07       		.byte	0x7
 2197 0488 34       		.byte	0x34
 2198 0489 E7000000 		.4byte	0xe7
 2199 048d 70       		.byte	0x70
 2200 048e 0B       		.uleb128 0xb
 2201 048f 1F0A0000 		.4byte	.LASF63
 2202 0493 07       		.byte	0x7
 2203 0494 35       		.byte	0x35
 2204 0495 2E070000 		.4byte	0x72e
 2205 0499 74       		.byte	0x74
 2206 049a 0D       		.uleb128 0xd
 2207 049b A4190000 		.4byte	.LASF64
 2208 049f 07       		.byte	0x7
ARM GAS  C:\Users\xhuli\AppData\Local\Temp\ccrNCJrA.s 			page 84


 2209 04a0 36       		.byte	0x36
 2210 04a1 E7000000 		.4byte	0xe7
 2211 04a5 0002     		.2byte	0x200
 2212 04a7 0D       		.uleb128 0xd
 2213 04a8 061E0000 		.4byte	.LASF65
 2214 04ac 07       		.byte	0x7
 2215 04ad 37       		.byte	0x37
 2216 04ae E7000000 		.4byte	0xe7
 2217 04b2 0402     		.2byte	0x204
 2218 04b4 0D       		.uleb128 0xd
 2219 04b5 4F1C0000 		.4byte	.LASF66
 2220 04b9 07       		.byte	0x7
 2221 04ba 38       		.byte	0x38
 2222 04bb EC000000 		.4byte	0xec
 2223 04bf 0802     		.2byte	0x208
 2224 04c1 0D       		.uleb128 0xd
 2225 04c2 290A0000 		.4byte	.LASF67
 2226 04c6 07       		.byte	0x7
 2227 04c7 39       		.byte	0x39
 2228 04c8 38070000 		.4byte	0x738
 2229 04cc 0C02     		.2byte	0x20c
 2230 04ce 0D       		.uleb128 0xd
 2231 04cf CD0C0000 		.4byte	.LASF68
 2232 04d3 07       		.byte	0x7
 2233 04d4 3A       		.byte	0x3a
 2234 04d5 E7000000 		.4byte	0xe7
 2235 04d9 4002     		.2byte	0x240
 2236 04db 0D       		.uleb128 0xd
 2237 04dc 330A0000 		.4byte	.LASF69
 2238 04e0 07       		.byte	0x7
 2239 04e1 3B       		.byte	0x3b
 2240 04e2 42070000 		.4byte	0x742
 2241 04e6 4402     		.2byte	0x244
 2242 04e8 0D       		.uleb128 0xd
 2243 04e9 0A060000 		.4byte	.LASF70
 2244 04ed 07       		.byte	0x7
 2245 04ee 3C       		.byte	0x3c
 2246 04ef E7000000 		.4byte	0xe7
 2247 04f3 0003     		.2byte	0x300
 2248 04f5 0D       		.uleb128 0xd
 2249 04f6 C1230000 		.4byte	.LASF71
 2250 04fa 07       		.byte	0x7
 2251 04fb 3D       		.byte	0x3d
 2252 04fc E7000000 		.4byte	0xe7
 2253 0500 0403     		.2byte	0x304
 2254 0502 0D       		.uleb128 0xd
 2255 0503 D6040000 		.4byte	.LASF72
 2256 0507 07       		.byte	0x7
 2257 0508 3E       		.byte	0x3e
 2258 0509 EC000000 		.4byte	0xec
 2259 050d 0803     		.2byte	0x308
 2260 050f 0D       		.uleb128 0xd
 2261 0510 3D0A0000 		.4byte	.LASF73
 2262 0514 07       		.byte	0x7
 2263 0515 3F       		.byte	0x3f
 2264 0516 EC000000 		.4byte	0xec
 2265 051a 0C03     		.2byte	0x30c
ARM GAS  C:\Users\xhuli\AppData\Local\Temp\ccrNCJrA.s 			page 85


 2266 051c 0D       		.uleb128 0xd
 2267 051d C8000000 		.4byte	.LASF74
 2268 0521 07       		.byte	0x7
 2269 0522 40       		.byte	0x40
 2270 0523 E7000000 		.4byte	0xe7
 2271 0527 1003     		.2byte	0x310
 2272 0529 0D       		.uleb128 0xd
 2273 052a 470A0000 		.4byte	.LASF75
 2274 052e 07       		.byte	0x7
 2275 052f 41       		.byte	0x41
 2276 0530 4C070000 		.4byte	0x74c
 2277 0534 1403     		.2byte	0x314
 2278 0536 0D       		.uleb128 0xd
 2279 0537 88220000 		.4byte	.LASF76
 2280 053b 07       		.byte	0x7
 2281 053c 42       		.byte	0x42
 2282 053d EC000000 		.4byte	0xec
 2283 0541 4003     		.2byte	0x340
 2284 0543 0D       		.uleb128 0xd
 2285 0544 54260000 		.4byte	.LASF77
 2286 0548 07       		.byte	0x7
 2287 0549 43       		.byte	0x43
 2288 054a EC000000 		.4byte	0xec
 2289 054e 4403     		.2byte	0x344
 2290 0550 0D       		.uleb128 0xd
 2291 0551 510A0000 		.4byte	.LASF78
 2292 0555 07       		.byte	0x7
 2293 0556 44       		.byte	0x44
 2294 0557 56070000 		.4byte	0x756
 2295 055b 4803     		.2byte	0x348
 2296 055d 0D       		.uleb128 0xd
 2297 055e A7140000 		.4byte	.LASF79
 2298 0562 07       		.byte	0x7
 2299 0563 45       		.byte	0x45
 2300 0564 5B070000 		.4byte	0x75b
 2301 0568 0004     		.2byte	0x400
 2302 056a 0D       		.uleb128 0xd
 2303 056b 5B0A0000 		.4byte	.LASF80
 2304 056f 07       		.byte	0x7
 2305 0570 46       		.byte	0x46
 2306 0571 65070000 		.4byte	0x765
 2307 0575 000C     		.2byte	0xc00
 2308 0577 0D       		.uleb128 0xd
 2309 0578 06010000 		.4byte	.LASF81
 2310 057c 07       		.byte	0x7
 2311 057d 47       		.byte	0x47
 2312 057e EC000000 		.4byte	0xec
 2313 0582 000E     		.2byte	0xe00
 2314 0584 0D       		.uleb128 0xd
 2315 0585 591E0000 		.4byte	.LASF82
 2316 0589 07       		.byte	0x7
 2317 058a 48       		.byte	0x48
 2318 058b 6F070000 		.4byte	0x76f
 2319 058f 040E     		.2byte	0xe04
 2320 0591 0D       		.uleb128 0xd
 2321 0592 7D230000 		.4byte	.LASF83
 2322 0596 07       		.byte	0x7
ARM GAS  C:\Users\xhuli\AppData\Local\Temp\ccrNCJrA.s 			page 86


 2323 0597 49       		.byte	0x49
 2324 0598 E7000000 		.4byte	0xe7
 2325 059c 800E     		.2byte	0xe80
 2326 059e 0D       		.uleb128 0xd
 2327 059f 641E0000 		.4byte	.LASF84
 2328 05a3 07       		.byte	0x7
 2329 05a4 4A       		.byte	0x4a
 2330 05a5 EC000000 		.4byte	0xec
 2331 05a9 840E     		.2byte	0xe84
 2332 05ab 0D       		.uleb128 0xd
 2333 05ac AC190000 		.4byte	.LASF85
 2334 05b0 07       		.byte	0x7
 2335 05b1 4B       		.byte	0x4b
 2336 05b2 E7000000 		.4byte	0xe7
 2337 05b6 880E     		.2byte	0xe88
 2338 05b8 0D       		.uleb128 0xd
 2339 05b9 D0200000 		.4byte	.LASF86
 2340 05bd 07       		.byte	0x7
 2341 05be 4C       		.byte	0x4c
 2342 05bf EC000000 		.4byte	0xec
 2343 05c3 8C0E     		.2byte	0xe8c
 2344 05c5 0D       		.uleb128 0xd
 2345 05c6 6F1E0000 		.4byte	.LASF87
 2346 05ca 07       		.byte	0x7
 2347 05cb 4D       		.byte	0x4d
 2348 05cc 79070000 		.4byte	0x779
 2349 05d0 900E     		.2byte	0xe90
 2350 05d2 0D       		.uleb128 0xd
 2351 05d3 5E1C0000 		.4byte	.LASF88
 2352 05d7 07       		.byte	0x7
 2353 05d8 4E       		.byte	0x4e
 2354 05d9 E7000000 		.4byte	0xe7
 2355 05dd C00E     		.2byte	0xec0
 2356 05df 0D       		.uleb128 0xd
 2357 05e0 7A1E0000 		.4byte	.LASF89
 2358 05e4 07       		.byte	0x7
 2359 05e5 4F       		.byte	0x4f
 2360 05e6 EC000000 		.4byte	0xec
 2361 05ea C40E     		.2byte	0xec4
 2362 05ec 0D       		.uleb128 0xd
 2363 05ed 9E1B0000 		.4byte	.LASF90
 2364 05f1 07       		.byte	0x7
 2365 05f2 50       		.byte	0x50
 2366 05f3 E7000000 		.4byte	0xe7
 2367 05f7 C80E     		.2byte	0xec8
 2368 05f9 0D       		.uleb128 0xd
 2369 05fa B2210000 		.4byte	.LASF91
 2370 05fe 07       		.byte	0x7
 2371 05ff 51       		.byte	0x51
 2372 0600 EC000000 		.4byte	0xec
 2373 0604 CC0E     		.2byte	0xecc
 2374 0606 0D       		.uleb128 0xd
 2375 0607 851E0000 		.4byte	.LASF92
 2376 060b 07       		.byte	0x7
 2377 060c 52       		.byte	0x52
 2378 060d 83070000 		.4byte	0x783
 2379 0611 D00E     		.2byte	0xed0
ARM GAS  C:\Users\xhuli\AppData\Local\Temp\ccrNCJrA.s 			page 87


 2380 0613 0D       		.uleb128 0xd
 2381 0614 59030000 		.4byte	.LASF93
 2382 0618 07       		.byte	0x7
 2383 0619 53       		.byte	0x53
 2384 061a E7000000 		.4byte	0xe7
 2385 061e 000F     		.2byte	0xf00
 2386 0620 0D       		.uleb128 0xd
 2387 0621 9E210000 		.4byte	.LASF94
 2388 0625 07       		.byte	0x7
 2389 0626 54       		.byte	0x54
 2390 0627 E7000000 		.4byte	0xe7
 2391 062b 040F     		.2byte	0xf04
 2392 062d 0D       		.uleb128 0xd
 2393 062e DA110000 		.4byte	.LASF95
 2394 0632 07       		.byte	0x7
 2395 0633 55       		.byte	0x55
 2396 0634 E7000000 		.4byte	0xe7
 2397 0638 080F     		.2byte	0xf08
 2398 063a 0D       		.uleb128 0xd
 2399 063b BF150000 		.4byte	.LASF96
 2400 063f 07       		.byte	0x7
 2401 0640 56       		.byte	0x56
 2402 0641 EC000000 		.4byte	0xec
 2403 0645 0C0F     		.2byte	0xf0c
 2404 0647 0D       		.uleb128 0xd
 2405 0648 901E0000 		.4byte	.LASF97
 2406 064c 07       		.byte	0x7
 2407 064d 57       		.byte	0x57
 2408 064e 8D070000 		.4byte	0x78d
 2409 0652 100F     		.2byte	0xf10
 2410 0654 0D       		.uleb128 0xd
 2411 0655 68030000 		.4byte	.LASF98
 2412 0659 07       		.byte	0x7
 2413 065a 58       		.byte	0x58
 2414 065b E7000000 		.4byte	0xe7
 2415 065f 400F     		.2byte	0xf40
 2416 0661 0D       		.uleb128 0xd
 2417 0662 EF230000 		.4byte	.LASF99
 2418 0666 07       		.byte	0x7
 2419 0667 59       		.byte	0x59
 2420 0668 E7000000 		.4byte	0xe7
 2421 066c 440F     		.2byte	0xf44
 2422 066e 0D       		.uleb128 0xd
 2423 066f 4B210000 		.4byte	.LASF100
 2424 0673 07       		.byte	0x7
 2425 0674 5A       		.byte	0x5a
 2426 0675 E7000000 		.4byte	0xe7
 2427 0679 480F     		.2byte	0xf48
 2428 067b 0D       		.uleb128 0xd
 2429 067c EA1B0000 		.4byte	.LASF101
 2430 0680 07       		.byte	0x7
 2431 0681 5B       		.byte	0x5b
 2432 0682 EC000000 		.4byte	0xec
 2433 0686 4C0F     		.2byte	0xf4c
 2434 0688 0D       		.uleb128 0xd
 2435 0689 BF270000 		.4byte	.LASF102
 2436 068d 07       		.byte	0x7
ARM GAS  C:\Users\xhuli\AppData\Local\Temp\ccrNCJrA.s 			page 88


 2437 068e 5C       		.byte	0x5c
 2438 068f 97070000 		.4byte	0x797
 2439 0693 500F     		.2byte	0xf50
 2440 0695 0D       		.uleb128 0xd
 2441 0696 0C070000 		.4byte	.LASF103
 2442 069a 07       		.byte	0x7
 2443 069b 5D       		.byte	0x5d
 2444 069c E7000000 		.4byte	0xe7
 2445 06a0 800F     		.2byte	0xf80
 2446 06a2 0D       		.uleb128 0xd
 2447 06a3 E61F0000 		.4byte	.LASF104
 2448 06a7 07       		.byte	0x7
 2449 06a8 5E       		.byte	0x5e
 2450 06a9 E7000000 		.4byte	0xe7
 2451 06ad 840F     		.2byte	0xf84
 2452 06af 0D       		.uleb128 0xd
 2453 06b0 EC150000 		.4byte	.LASF105
 2454 06b4 07       		.byte	0x7
 2455 06b5 5F       		.byte	0x5f
 2456 06b6 E7000000 		.4byte	0xe7
 2457 06ba 880F     		.2byte	0xf88
 2458 06bc 0D       		.uleb128 0xd
 2459 06bd 3E070000 		.4byte	.LASF106
 2460 06c1 07       		.byte	0x7
 2461 06c2 60       		.byte	0x60
 2462 06c3 EC000000 		.4byte	0xec
 2463 06c7 8C0F     		.2byte	0xf8c
 2464 06c9 0D       		.uleb128 0xd
 2465 06ca BC1E0000 		.4byte	.LASF107
 2466 06ce 07       		.byte	0x7
 2467 06cf 61       		.byte	0x61
 2468 06d0 A1070000 		.4byte	0x7a1
 2469 06d4 900F     		.2byte	0xf90
 2470 06d6 0D       		.uleb128 0xd
 2471 06d7 1B040000 		.4byte	.LASF108
 2472 06db 07       		.byte	0x7
 2473 06dc 62       		.byte	0x62
 2474 06dd E7000000 		.4byte	0xe7
 2475 06e1 C00F     		.2byte	0xfc0
 2476 06e3 0D       		.uleb128 0xd
 2477 06e4 1E080000 		.4byte	.LASF109
 2478 06e8 07       		.byte	0x7
 2479 06e9 63       		.byte	0x63
 2480 06ea E7000000 		.4byte	0xe7
 2481 06ee C40F     		.2byte	0xfc4
 2482 06f0 0D       		.uleb128 0xd
 2483 06f1 57050000 		.4byte	.LASF110
 2484 06f5 07       		.byte	0x7
 2485 06f6 64       		.byte	0x64
 2486 06f7 E7000000 		.4byte	0xe7
 2487 06fb C80F     		.2byte	0xfc8
 2488 06fd 0D       		.uleb128 0xd
 2489 06fe D3210000 		.4byte	.LASF111
 2490 0702 07       		.byte	0x7
 2491 0703 65       		.byte	0x65
 2492 0704 EC000000 		.4byte	0xec
 2493 0708 CC0F     		.2byte	0xfcc
ARM GAS  C:\Users\xhuli\AppData\Local\Temp\ccrNCJrA.s 			page 89


 2494 070a 00       		.byte	0
 2495 070b 05       		.uleb128 0x5
 2496 070c 01010000 		.4byte	0x101
 2497 0710 06       		.uleb128 0x6
 2498 0711 0B070000 		.4byte	0x70b
 2499 0715 05       		.uleb128 0x5
 2500 0716 21010000 		.4byte	0x121
 2501 071a 06       		.uleb128 0x6
 2502 071b 15070000 		.4byte	0x715
 2503 071f 05       		.uleb128 0x5
 2504 0720 71010000 		.4byte	0x171
 2505 0724 06       		.uleb128 0x6
 2506 0725 1F070000 		.4byte	0x71f
 2507 0729 05       		.uleb128 0x5
 2508 072a 91030000 		.4byte	0x391
 2509 072e 06       		.uleb128 0x6
 2510 072f 29070000 		.4byte	0x729
 2511 0733 05       		.uleb128 0x5
 2512 0734 41010000 		.4byte	0x141
 2513 0738 06       		.uleb128 0x6
 2514 0739 33070000 		.4byte	0x733
 2515 073d 05       		.uleb128 0x5
 2516 073e 60030000 		.4byte	0x360
 2517 0742 06       		.uleb128 0x6
 2518 0743 3D070000 		.4byte	0x73d
 2519 0747 05       		.uleb128 0x5
 2520 0748 50030000 		.4byte	0x350
 2521 074c 06       		.uleb128 0x6
 2522 074d 47070000 		.4byte	0x747
 2523 0751 05       		.uleb128 0x5
 2524 0752 70030000 		.4byte	0x370
 2525 0756 06       		.uleb128 0x6
 2526 0757 51070000 		.4byte	0x751
 2527 075b 05       		.uleb128 0x5
 2528 075c 80030000 		.4byte	0x380
 2529 0760 05       		.uleb128 0x5
 2530 0761 31010000 		.4byte	0x131
 2531 0765 06       		.uleb128 0x6
 2532 0766 60070000 		.4byte	0x760
 2533 076a 05       		.uleb128 0x5
 2534 076b 61010000 		.4byte	0x161
 2535 076f 06       		.uleb128 0x6
 2536 0770 6A070000 		.4byte	0x76a
 2537 0774 05       		.uleb128 0x5
 2538 0775 91010000 		.4byte	0x191
 2539 0779 06       		.uleb128 0x6
 2540 077a 74070000 		.4byte	0x774
 2541 077e 05       		.uleb128 0x5
 2542 077f 91010000 		.4byte	0x191
 2543 0783 06       		.uleb128 0x6
 2544 0784 7E070000 		.4byte	0x77e
 2545 0788 05       		.uleb128 0x5
 2546 0789 91010000 		.4byte	0x191
 2547 078d 06       		.uleb128 0x6
 2548 078e 88070000 		.4byte	0x788
 2549 0792 05       		.uleb128 0x5
 2550 0793 91010000 		.4byte	0x191
ARM GAS  C:\Users\xhuli\AppData\Local\Temp\ccrNCJrA.s 			page 90


 2551 0797 06       		.uleb128 0x6
 2552 0798 92070000 		.4byte	0x792
 2553 079c 05       		.uleb128 0x5
 2554 079d 91010000 		.4byte	0x191
 2555 07a1 06       		.uleb128 0x6
 2556 07a2 9C070000 		.4byte	0x79c
 2557 07a6 03       		.uleb128 0x3
 2558 07a7 2F150000 		.4byte	.LASF112
 2559 07ab 07       		.byte	0x7
 2560 07ac 66       		.byte	0x66
 2561 07ad A1030000 		.4byte	0x3a1
 2562 07b1 0C       		.uleb128 0xc
 2563 07b2 080F     		.2byte	0xf08
 2564 07b4 08       		.byte	0x8
 2565 07b5 21       		.byte	0x21
 2566 07b6 390A0000 		.4byte	0xa39
 2567 07ba 0B       		.uleb128 0xb
 2568 07bb 7F170000 		.4byte	.LASF46
 2569 07bf 08       		.byte	0x8
 2570 07c0 22       		.byte	0x22
 2571 07c1 E7000000 		.4byte	0xe7
 2572 07c5 00       		.byte	0
 2573 07c6 0B       		.uleb128 0xb
 2574 07c7 061B0000 		.4byte	.LASF113
 2575 07cb 08       		.byte	0x8
 2576 07cc 23       		.byte	0x23
 2577 07cd E7000000 		.4byte	0xe7
 2578 07d1 04       		.byte	0x4
 2579 07d2 0B       		.uleb128 0xb
 2580 07d3 470F0000 		.4byte	.LASF32
 2581 07d7 08       		.byte	0x8
 2582 07d8 24       		.byte	0x24
 2583 07d9 3E0A0000 		.4byte	0xa3e
 2584 07dd 08       		.byte	0x8
 2585 07de 0B       		.uleb128 0xb
 2586 07df 310F0000 		.4byte	.LASF114
 2587 07e3 08       		.byte	0x8
 2588 07e4 25       		.byte	0x25
 2589 07e5 E7000000 		.4byte	0xe7
 2590 07e9 10       		.byte	0x10
 2591 07ea 0B       		.uleb128 0xb
 2592 07eb 7B110000 		.4byte	.LASF115
 2593 07ef 08       		.byte	0x8
 2594 07f0 26       		.byte	0x26
 2595 07f1 E7000000 		.4byte	0xe7
 2596 07f5 14       		.byte	0x14
 2597 07f6 0B       		.uleb128 0xb
 2598 07f7 FF120000 		.4byte	.LASF116
 2599 07fb 08       		.byte	0x8
 2600 07fc 27       		.byte	0x27
 2601 07fd E7000000 		.4byte	0xe7
 2602 0801 18       		.byte	0x18
 2603 0802 0B       		.uleb128 0xb
 2604 0803 84090000 		.4byte	.LASF117
 2605 0807 08       		.byte	0x8
 2606 0808 28       		.byte	0x28
 2607 0809 E7000000 		.4byte	0xe7
ARM GAS  C:\Users\xhuli\AppData\Local\Temp\ccrNCJrA.s 			page 91


 2608 080d 1C       		.byte	0x1c
 2609 080e 0B       		.uleb128 0xb
 2610 080f F7270000 		.4byte	.LASF118
 2611 0813 08       		.byte	0x8
 2612 0814 29       		.byte	0x29
 2613 0815 E7000000 		.4byte	0xe7
 2614 0819 20       		.byte	0x20
 2615 081a 0B       		.uleb128 0xb
 2616 081b C2240000 		.4byte	.LASF119
 2617 081f 08       		.byte	0x8
 2618 0820 2A       		.byte	0x2a
 2619 0821 E7000000 		.4byte	0xe7
 2620 0825 24       		.byte	0x24
 2621 0826 0B       		.uleb128 0xb
 2622 0827 0B0A0000 		.4byte	.LASF34
 2623 082b 08       		.byte	0x8
 2624 082c 2B       		.byte	0x2b
 2625 082d 580A0000 		.4byte	0xa58
 2626 0831 28       		.byte	0x28
 2627 0832 0B       		.uleb128 0xb
 2628 0833 57210000 		.4byte	.LASF120
 2629 0837 08       		.byte	0x8
 2630 0838 2C       		.byte	0x2c
 2631 0839 5D0A0000 		.4byte	0xa5d
 2632 083d 80       		.byte	0x80
 2633 083e 0B       		.uleb128 0xb
 2634 083f 150A0000 		.4byte	.LASF57
 2635 0843 08       		.byte	0x8
 2636 0844 2D       		.byte	0x2d
 2637 0845 670A0000 		.4byte	0xa67
 2638 0849 C0       		.byte	0xc0
 2639 084a 0D       		.uleb128 0xd
 2640 084b FA100000 		.4byte	.LASF121
 2641 084f 08       		.byte	0x8
 2642 0850 2E       		.byte	0x2e
 2643 0851 710A0000 		.4byte	0xa71
 2644 0855 0001     		.2byte	0x100
 2645 0857 0D       		.uleb128 0xd
 2646 0858 1F0A0000 		.4byte	.LASF63
 2647 085c 08       		.byte	0x8
 2648 085d 2F       		.byte	0x2f
 2649 085e 7B0A0000 		.4byte	0xa7b
 2650 0862 4001     		.2byte	0x140
 2651 0864 0D       		.uleb128 0xd
 2652 0865 A1230000 		.4byte	.LASF122
 2653 0869 08       		.byte	0x8
 2654 086a 30       		.byte	0x30
 2655 086b 850A0000 		.4byte	0xa85
 2656 086f 8001     		.2byte	0x180
 2657 0871 0D       		.uleb128 0xd
 2658 0872 290A0000 		.4byte	.LASF67
 2659 0876 08       		.byte	0x8
 2660 0877 31       		.byte	0x31
 2661 0878 8F0A0000 		.4byte	0xa8f
 2662 087c C001     		.2byte	0x1c0
 2663 087e 0D       		.uleb128 0xd
 2664 087f 721A0000 		.4byte	.LASF123
ARM GAS  C:\Users\xhuli\AppData\Local\Temp\ccrNCJrA.s 			page 92


 2665 0883 08       		.byte	0x8
 2666 0884 32       		.byte	0x32
 2667 0885 EC000000 		.4byte	0xec
 2668 0889 0002     		.2byte	0x200
 2669 088b 0D       		.uleb128 0xd
 2670 088c CA270000 		.4byte	.LASF124
 2671 0890 08       		.byte	0x8
 2672 0891 33       		.byte	0x33
 2673 0892 EC000000 		.4byte	0xec
 2674 0896 0402     		.2byte	0x204
 2675 0898 0D       		.uleb128 0xd
 2676 0899 6C000000 		.4byte	.LASF125
 2677 089d 08       		.byte	0x8
 2678 089e 34       		.byte	0x34
 2679 089f EC000000 		.4byte	0xec
 2680 08a3 0802     		.2byte	0x208
 2681 08a5 0D       		.uleb128 0xd
 2682 08a6 79240000 		.4byte	.LASF126
 2683 08aa 08       		.byte	0x8
 2684 08ab 35       		.byte	0x35
 2685 08ac EC000000 		.4byte	0xec
 2686 08b0 0C02     		.2byte	0x20c
 2687 08b2 0D       		.uleb128 0xd
 2688 08b3 C9120000 		.4byte	.LASF24
 2689 08b7 08       		.byte	0x8
 2690 08b8 36       		.byte	0x36
 2691 08b9 E7000000 		.4byte	0xe7
 2692 08bd 1002     		.2byte	0x210
 2693 08bf 0D       		.uleb128 0xd
 2694 08c0 E11B0000 		.4byte	.LASF27
 2695 08c4 08       		.byte	0x8
 2696 08c5 37       		.byte	0x37
 2697 08c6 E7000000 		.4byte	0xe7
 2698 08ca 1402     		.2byte	0x214
 2699 08cc 0D       		.uleb128 0xd
 2700 08cd D6030000 		.4byte	.LASF25
 2701 08d1 08       		.byte	0x8
 2702 08d2 38       		.byte	0x38
 2703 08d3 E7000000 		.4byte	0xe7
 2704 08d7 1802     		.2byte	0x218
 2705 08d9 0D       		.uleb128 0xd
 2706 08da 6A1C0000 		.4byte	.LASF26
 2707 08de 08       		.byte	0x8
 2708 08df 39       		.byte	0x39
 2709 08e0 EC000000 		.4byte	0xec
 2710 08e4 1C02     		.2byte	0x21c
 2711 08e6 0D       		.uleb128 0xd
 2712 08e7 BD190000 		.4byte	.LASF127
 2713 08eb 08       		.byte	0x8
 2714 08ec 3A       		.byte	0x3a
 2715 08ed E7000000 		.4byte	0xe7
 2716 08f1 2002     		.2byte	0x220
 2717 08f3 0D       		.uleb128 0xd
 2718 08f4 0E030000 		.4byte	.LASF128
 2719 08f8 08       		.byte	0x8
 2720 08f9 3B       		.byte	0x3b
 2721 08fa E7000000 		.4byte	0xe7
ARM GAS  C:\Users\xhuli\AppData\Local\Temp\ccrNCJrA.s 			page 93


 2722 08fe 2402     		.2byte	0x224
 2723 0900 0D       		.uleb128 0xd
 2724 0901 14200000 		.4byte	.LASF129
 2725 0905 08       		.byte	0x8
 2726 0906 3C       		.byte	0x3c
 2727 0907 E7000000 		.4byte	0xe7
 2728 090b 2802     		.2byte	0x228
 2729 090d 0D       		.uleb128 0xd
 2730 090e CE230000 		.4byte	.LASF130
 2731 0912 08       		.byte	0x8
 2732 0913 3D       		.byte	0x3d
 2733 0914 EC000000 		.4byte	0xec
 2734 0918 2C02     		.2byte	0x22c
 2735 091a 0D       		.uleb128 0xd
 2736 091b 520B0000 		.4byte	.LASF131
 2737 091f 08       		.byte	0x8
 2738 0920 3E       		.byte	0x3e
 2739 0921 E7000000 		.4byte	0xe7
 2740 0925 3002     		.2byte	0x230
 2741 0927 0D       		.uleb128 0xd
 2742 0928 9B050000 		.4byte	.LASF132
 2743 092c 08       		.byte	0x8
 2744 092d 3F       		.byte	0x3f
 2745 092e E7000000 		.4byte	0xe7
 2746 0932 3402     		.2byte	0x234
 2747 0934 0D       		.uleb128 0xd
 2748 0935 2C100000 		.4byte	.LASF133
 2749 0939 08       		.byte	0x8
 2750 093a 40       		.byte	0x40
 2751 093b E7000000 		.4byte	0xe7
 2752 093f 3802     		.2byte	0x238
 2753 0941 0D       		.uleb128 0xd
 2754 0942 E80E0000 		.4byte	.LASF134
 2755 0946 08       		.byte	0x8
 2756 0947 41       		.byte	0x41
 2757 0948 EC000000 		.4byte	0xec
 2758 094c 3C02     		.2byte	0x23c
 2759 094e 0D       		.uleb128 0xd
 2760 094f 06010000 		.4byte	.LASF81
 2761 0953 08       		.byte	0x8
 2762 0954 42       		.byte	0x42
 2763 0955 EC000000 		.4byte	0xec
 2764 0959 4002     		.2byte	0x240
 2765 095b 0D       		.uleb128 0xd
 2766 095c 330A0000 		.4byte	.LASF69
 2767 0960 08       		.byte	0x8
 2768 0961 43       		.byte	0x43
 2769 0962 990A0000 		.4byte	0xa99
 2770 0966 4402     		.2byte	0x244
 2771 0968 0D       		.uleb128 0xd
 2772 0969 8F010000 		.4byte	.LASF135
 2773 096d 08       		.byte	0x8
 2774 096e 44       		.byte	0x44
 2775 096f E7000000 		.4byte	0xe7
 2776 0973 8002     		.2byte	0x280
 2777 0975 0D       		.uleb128 0xd
 2778 0976 3D0A0000 		.4byte	.LASF73
ARM GAS  C:\Users\xhuli\AppData\Local\Temp\ccrNCJrA.s 			page 94


 2779 097a 08       		.byte	0x8
 2780 097b 45       		.byte	0x45
 2781 097c A30A0000 		.4byte	0xaa3
 2782 0980 8402     		.2byte	0x284
 2783 0982 0D       		.uleb128 0xd
 2784 0983 650B0000 		.4byte	.LASF136
 2785 0987 08       		.byte	0x8
 2786 0988 46       		.byte	0x46
 2787 0989 EC000000 		.4byte	0xec
 2788 098d 9002     		.2byte	0x290
 2789 098f 0D       		.uleb128 0xd
 2790 0990 470A0000 		.4byte	.LASF75
 2791 0994 08       		.byte	0x8
 2792 0995 47       		.byte	0x47
 2793 0996 AD0A0000 		.4byte	0xaad
 2794 099a 9402     		.2byte	0x294
 2795 099c 0D       		.uleb128 0xd
 2796 099d 94200000 		.4byte	.LASF47
 2797 09a1 08       		.byte	0x8
 2798 09a2 48       		.byte	0x48
 2799 09a3 EC000000 		.4byte	0xec
 2800 09a7 A002     		.2byte	0x2a0
 2801 09a9 0D       		.uleb128 0xd
 2802 09aa F81B0000 		.4byte	.LASF137
 2803 09ae 08       		.byte	0x8
 2804 09af 49       		.byte	0x49
 2805 09b0 EC000000 		.4byte	0xec
 2806 09b4 A402     		.2byte	0x2a4
 2807 09b6 0D       		.uleb128 0xd
 2808 09b7 510A0000 		.4byte	.LASF78
 2809 09bb 08       		.byte	0x8
 2810 09bc 4A       		.byte	0x4a
 2811 09bd B70A0000 		.4byte	0xab7
 2812 09c1 A802     		.2byte	0x2a8
 2813 09c3 0D       		.uleb128 0xd
 2814 09c4 02030000 		.4byte	.LASF138
 2815 09c8 08       		.byte	0x8
 2816 09c9 4B       		.byte	0x4b
 2817 09ca E7000000 		.4byte	0xe7
 2818 09ce 0003     		.2byte	0x300
 2819 09d0 0D       		.uleb128 0xd
 2820 09d1 F50D0000 		.4byte	.LASF139
 2821 09d5 08       		.byte	0x8
 2822 09d6 4C       		.byte	0x4c
 2823 09d7 E7000000 		.4byte	0xe7
 2824 09db 0403     		.2byte	0x304
 2825 09dd 0D       		.uleb128 0xd
 2826 09de 5B0A0000 		.4byte	.LASF80
 2827 09e2 08       		.byte	0x8
 2828 09e3 4D       		.byte	0x4d
 2829 09e4 D10A0000 		.4byte	0xad1
 2830 09e8 0803     		.2byte	0x308
 2831 09ea 0D       		.uleb128 0xd
 2832 09eb 4E010000 		.4byte	.LASF140
 2833 09ef 08       		.byte	0x8
 2834 09f0 4E       		.byte	0x4e
 2835 09f1 E7000000 		.4byte	0xe7
ARM GAS  C:\Users\xhuli\AppData\Local\Temp\ccrNCJrA.s 			page 95


 2836 09f5 4003     		.2byte	0x340
 2837 09f7 0D       		.uleb128 0xd
 2838 09f8 20030000 		.4byte	.LASF141
 2839 09fc 08       		.byte	0x8
 2840 09fd 4F       		.byte	0x4f
 2841 09fe E7000000 		.4byte	0xe7
 2842 0a02 4403     		.2byte	0x344
 2843 0a04 0D       		.uleb128 0xd
 2844 0a05 2B140000 		.4byte	.LASF142
 2845 0a09 08       		.byte	0x8
 2846 0a0a 50       		.byte	0x50
 2847 0a0b EC000000 		.4byte	0xec
 2848 0a0f 4803     		.2byte	0x348
 2849 0a11 0D       		.uleb128 0xd
 2850 0a12 591E0000 		.4byte	.LASF82
 2851 0a16 08       		.byte	0x8
 2852 0a17 51       		.byte	0x51
 2853 0a18 EC0A0000 		.4byte	0xaec
 2854 0a1c 4C03     		.2byte	0x34c
 2855 0a1e 0D       		.uleb128 0xd
 2856 0a1f 96290000 		.4byte	.LASF143
 2857 0a23 08       		.byte	0x8
 2858 0a24 52       		.byte	0x52
 2859 0a25 E7000000 		.4byte	0xe7
 2860 0a29 000F     		.2byte	0xf00
 2861 0a2b 0D       		.uleb128 0xd
 2862 0a2c A0290000 		.4byte	.LASF144
 2863 0a30 08       		.byte	0x8
 2864 0a31 53       		.byte	0x53
 2865 0a32 E7000000 		.4byte	0xe7
 2866 0a36 040F     		.2byte	0xf04
 2867 0a38 00       		.byte	0
 2868 0a39 05       		.uleb128 0x5
 2869 0a3a F1000000 		.4byte	0xf1
 2870 0a3e 06       		.uleb128 0x6
 2871 0a3f 390A0000 		.4byte	0xa39
 2872 0a43 07       		.uleb128 0x7
 2873 0a44 EC000000 		.4byte	0xec
 2874 0a48 530A0000 		.4byte	0xa53
 2875 0a4c 08       		.uleb128 0x8
 2876 0a4d E0000000 		.4byte	0xe0
 2877 0a51 15       		.byte	0x15
 2878 0a52 00       		.byte	0
 2879 0a53 05       		.uleb128 0x5
 2880 0a54 430A0000 		.4byte	0xa43
 2881 0a58 06       		.uleb128 0x6
 2882 0a59 530A0000 		.4byte	0xa53
 2883 0a5d 05       		.uleb128 0x5
 2884 0a5e 11010000 		.4byte	0x111
 2885 0a62 05       		.uleb128 0x5
 2886 0a63 51010000 		.4byte	0x151
 2887 0a67 06       		.uleb128 0x6
 2888 0a68 620A0000 		.4byte	0xa62
 2889 0a6c 05       		.uleb128 0x5
 2890 0a6d 51010000 		.4byte	0x151
 2891 0a71 06       		.uleb128 0x6
 2892 0a72 6C0A0000 		.4byte	0xa6c
ARM GAS  C:\Users\xhuli\AppData\Local\Temp\ccrNCJrA.s 			page 96


 2893 0a76 05       		.uleb128 0x5
 2894 0a77 51010000 		.4byte	0x151
 2895 0a7b 06       		.uleb128 0x6
 2896 0a7c 760A0000 		.4byte	0xa76
 2897 0a80 05       		.uleb128 0x5
 2898 0a81 51010000 		.4byte	0x151
 2899 0a85 06       		.uleb128 0x6
 2900 0a86 800A0000 		.4byte	0xa80
 2901 0a8a 05       		.uleb128 0x5
 2902 0a8b 51010000 		.4byte	0x151
 2903 0a8f 06       		.uleb128 0x6
 2904 0a90 8A0A0000 		.4byte	0xa8a
 2905 0a94 05       		.uleb128 0x5
 2906 0a95 81010000 		.4byte	0x181
 2907 0a99 06       		.uleb128 0x6
 2908 0a9a 940A0000 		.4byte	0xa94
 2909 0a9e 05       		.uleb128 0x5
 2910 0a9f 71010000 		.4byte	0x171
 2911 0aa3 06       		.uleb128 0x6
 2912 0aa4 9E0A0000 		.4byte	0xa9e
 2913 0aa8 05       		.uleb128 0x5
 2914 0aa9 71010000 		.4byte	0x171
 2915 0aad 06       		.uleb128 0x6
 2916 0aae A80A0000 		.4byte	0xaa8
 2917 0ab2 05       		.uleb128 0x5
 2918 0ab3 430A0000 		.4byte	0xa43
 2919 0ab7 06       		.uleb128 0x6
 2920 0ab8 B20A0000 		.4byte	0xab2
 2921 0abc 07       		.uleb128 0x7
 2922 0abd EC000000 		.4byte	0xec
 2923 0ac1 CC0A0000 		.4byte	0xacc
 2924 0ac5 08       		.uleb128 0x8
 2925 0ac6 E0000000 		.4byte	0xe0
 2926 0aca 0D       		.byte	0xd
 2927 0acb 00       		.byte	0
 2928 0acc 05       		.uleb128 0x5
 2929 0acd BC0A0000 		.4byte	0xabc
 2930 0ad1 06       		.uleb128 0x6
 2931 0ad2 CC0A0000 		.4byte	0xacc
 2932 0ad6 07       		.uleb128 0x7
 2933 0ad7 EC000000 		.4byte	0xec
 2934 0adb E70A0000 		.4byte	0xae7
 2935 0adf 0E       		.uleb128 0xe
 2936 0ae0 E0000000 		.4byte	0xe0
 2937 0ae4 EC02     		.2byte	0x2ec
 2938 0ae6 00       		.byte	0
 2939 0ae7 05       		.uleb128 0x5
 2940 0ae8 D60A0000 		.4byte	0xad6
 2941 0aec 06       		.uleb128 0x6
 2942 0aed E70A0000 		.4byte	0xae7
 2943 0af1 03       		.uleb128 0x3
 2944 0af2 2F090000 		.4byte	.LASF145
 2945 0af6 08       		.byte	0x8
 2946 0af7 54       		.byte	0x54
 2947 0af8 B1070000 		.4byte	0x7b1
 2948 0afc 0F       		.uleb128 0xf
 2949 0afd F5210000 		.4byte	.LASF146
ARM GAS  C:\Users\xhuli\AppData\Local\Temp\ccrNCJrA.s 			page 97


 2950 0b01 09       		.byte	0x9
 2951 0b02 3106     		.2byte	0x631
 2952 0b04 9F020000 		.4byte	0x29f
 2953 0b08 0F       		.uleb128 0xf
 2954 0b09 761C0000 		.4byte	.LASF147
 2955 0b0d 09       		.byte	0x9
 2956 0b0e 3206     		.2byte	0x632
 2957 0b10 45030000 		.4byte	0x345
 2958 0b14 0F       		.uleb128 0xf
 2959 0b15 7A1B0000 		.4byte	.LASF148
 2960 0b19 09       		.byte	0x9
 2961 0b1a 4F06     		.2byte	0x64f
 2962 0b1c A6070000 		.4byte	0x7a6
 2963 0b20 0F       		.uleb128 0xf
 2964 0b21 CC1B0000 		.4byte	.LASF149
 2965 0b25 09       		.byte	0x9
 2966 0b26 5206     		.2byte	0x652
 2967 0b28 F10A0000 		.4byte	0xaf1
 2968 0b2c 02       		.uleb128 0x2
 2969 0b2d 08       		.byte	0x8
 2970 0b2e 04       		.byte	0x4
 2971 0b2f D51B0000 		.4byte	.LASF150
 2972 0b33 09       		.uleb128 0x9
 2973 0b34 B8       		.byte	0xb8
 2974 0b35 0A       		.byte	0xa
 2975 0b36 34       		.byte	0x34
 2976 0b37 440F0000 		.4byte	0xf44
 2977 0b3b 0B       		.uleb128 0xb
 2978 0b3c 64140000 		.4byte	.LASF151
 2979 0b40 0A       		.byte	0xa
 2980 0b41 37       		.byte	0x37
 2981 0b42 D5000000 		.4byte	0xd5
 2982 0b46 00       		.byte	0
 2983 0b47 0B       		.uleb128 0xb
 2984 0b48 F2090000 		.4byte	.LASF152
 2985 0b4c 0A       		.byte	0xa
 2986 0b4d 38       		.byte	0x38
 2987 0b4e D5000000 		.4byte	0xd5
 2988 0b52 04       		.byte	0x4
 2989 0b53 0B       		.uleb128 0xb
 2990 0b54 4F100000 		.4byte	.LASF153
 2991 0b58 0A       		.byte	0xa
 2992 0b59 39       		.byte	0x39
 2993 0b5a D5000000 		.4byte	0xd5
 2994 0b5e 08       		.byte	0x8
 2995 0b5f 0B       		.uleb128 0xb
 2996 0b60 D80D0000 		.4byte	.LASF154
 2997 0b64 0A       		.byte	0xa
 2998 0b65 3A       		.byte	0x3a
 2999 0b66 D5000000 		.4byte	0xd5
 3000 0b6a 0C       		.byte	0xc
 3001 0b6b 0B       		.uleb128 0xb
 3002 0b6c 6E140000 		.4byte	.LASF155
 3003 0b70 0A       		.byte	0xa
 3004 0b71 3B       		.byte	0x3b
 3005 0b72 D5000000 		.4byte	0xd5
 3006 0b76 10       		.byte	0x10
ARM GAS  C:\Users\xhuli\AppData\Local\Temp\ccrNCJrA.s 			page 98


 3007 0b77 0B       		.uleb128 0xb
 3008 0b78 9F010000 		.4byte	.LASF156
 3009 0b7c 0A       		.byte	0xa
 3010 0b7d 3C       		.byte	0x3c
 3011 0b7e D5000000 		.4byte	0xd5
 3012 0b82 14       		.byte	0x14
 3013 0b83 0B       		.uleb128 0xb
 3014 0b84 1E210000 		.4byte	.LASF157
 3015 0b88 0A       		.byte	0xa
 3016 0b89 3D       		.byte	0x3d
 3017 0b8a D5000000 		.4byte	0xd5
 3018 0b8e 18       		.byte	0x18
 3019 0b8f 0B       		.uleb128 0xb
 3020 0b90 760B0000 		.4byte	.LASF158
 3021 0b94 0A       		.byte	0xa
 3022 0b95 3E       		.byte	0x3e
 3023 0b96 D5000000 		.4byte	0xd5
 3024 0b9a 1C       		.byte	0x1c
 3025 0b9b 0B       		.uleb128 0xb
 3026 0b9c 4C260000 		.4byte	.LASF159
 3027 0ba0 0A       		.byte	0xa
 3028 0ba1 3F       		.byte	0x3f
 3029 0ba2 D5000000 		.4byte	0xd5
 3030 0ba6 20       		.byte	0x20
 3031 0ba7 0B       		.uleb128 0xb
 3032 0ba8 41000000 		.4byte	.LASF160
 3033 0bac 0A       		.byte	0xa
 3034 0bad 40       		.byte	0x40
 3035 0bae D5000000 		.4byte	0xd5
 3036 0bb2 24       		.byte	0x24
 3037 0bb3 0B       		.uleb128 0xb
 3038 0bb4 1C120000 		.4byte	.LASF161
 3039 0bb8 0A       		.byte	0xa
 3040 0bb9 43       		.byte	0x43
 3041 0bba A9000000 		.4byte	0xa9
 3042 0bbe 28       		.byte	0x28
 3043 0bbf 0B       		.uleb128 0xb
 3044 0bc0 14160000 		.4byte	.LASF162
 3045 0bc4 0A       		.byte	0xa
 3046 0bc5 44       		.byte	0x44
 3047 0bc6 A9000000 		.4byte	0xa9
 3048 0bca 29       		.byte	0x29
 3049 0bcb 0B       		.uleb128 0xb
 3050 0bcc E3200000 		.4byte	.LASF163
 3051 0bd0 0A       		.byte	0xa
 3052 0bd1 45       		.byte	0x45
 3053 0bd2 A9000000 		.4byte	0xa9
 3054 0bd6 2A       		.byte	0x2a
 3055 0bd7 0B       		.uleb128 0xb
 3056 0bd8 BF180000 		.4byte	.LASF164
 3057 0bdc 0A       		.byte	0xa
 3058 0bdd 46       		.byte	0x46
 3059 0bde A9000000 		.4byte	0xa9
 3060 0be2 2B       		.byte	0x2b
 3061 0be3 0B       		.uleb128 0xb
 3062 0be4 CD240000 		.4byte	.LASF165
 3063 0be8 0A       		.byte	0xa
ARM GAS  C:\Users\xhuli\AppData\Local\Temp\ccrNCJrA.s 			page 99


 3064 0be9 47       		.byte	0x47
 3065 0bea A9000000 		.4byte	0xa9
 3066 0bee 2C       		.byte	0x2c
 3067 0bef 0B       		.uleb128 0xb
 3068 0bf0 C7290000 		.4byte	.LASF166
 3069 0bf4 0A       		.byte	0xa
 3070 0bf5 48       		.byte	0x48
 3071 0bf6 A9000000 		.4byte	0xa9
 3072 0bfa 2D       		.byte	0x2d
 3073 0bfb 0B       		.uleb128 0xb
 3074 0bfc 77140000 		.4byte	.LASF167
 3075 0c00 0A       		.byte	0xa
 3076 0c01 49       		.byte	0x49
 3077 0c02 A9000000 		.4byte	0xa9
 3078 0c06 2E       		.byte	0x2e
 3079 0c07 0B       		.uleb128 0xb
 3080 0c08 0D230000 		.4byte	.LASF168
 3081 0c0c 0A       		.byte	0xa
 3082 0c0d 4A       		.byte	0x4a
 3083 0c0e A9000000 		.4byte	0xa9
 3084 0c12 2F       		.byte	0x2f
 3085 0c13 0B       		.uleb128 0xb
 3086 0c14 D5220000 		.4byte	.LASF169
 3087 0c18 0A       		.byte	0xa
 3088 0c19 4B       		.byte	0x4b
 3089 0c1a A9000000 		.4byte	0xa9
 3090 0c1e 30       		.byte	0x30
 3091 0c1f 0B       		.uleb128 0xb
 3092 0c20 52170000 		.4byte	.LASF170
 3093 0c24 0A       		.byte	0xa
 3094 0c25 4E       		.byte	0x4e
 3095 0c26 A9000000 		.4byte	0xa9
 3096 0c2a 31       		.byte	0x31
 3097 0c2b 0B       		.uleb128 0xb
 3098 0c2c C5210000 		.4byte	.LASF171
 3099 0c30 0A       		.byte	0xa
 3100 0c31 4F       		.byte	0x4f
 3101 0c32 A9000000 		.4byte	0xa9
 3102 0c36 32       		.byte	0x32
 3103 0c37 0B       		.uleb128 0xb
 3104 0c38 C51F0000 		.4byte	.LASF172
 3105 0c3c 0A       		.byte	0xa
 3106 0c3d 50       		.byte	0x50
 3107 0c3e A9000000 		.4byte	0xa9
 3108 0c42 33       		.byte	0x33
 3109 0c43 0B       		.uleb128 0xb
 3110 0c44 E9100000 		.4byte	.LASF173
 3111 0c48 0A       		.byte	0xa
 3112 0c49 51       		.byte	0x51
 3113 0c4a A9000000 		.4byte	0xa9
 3114 0c4e 34       		.byte	0x34
 3115 0c4f 0B       		.uleb128 0xb
 3116 0c50 8E0D0000 		.4byte	.LASF174
 3117 0c54 0A       		.byte	0xa
 3118 0c55 52       		.byte	0x52
 3119 0c56 B4000000 		.4byte	0xb4
 3120 0c5a 36       		.byte	0x36
ARM GAS  C:\Users\xhuli\AppData\Local\Temp\ccrNCJrA.s 			page 100


 3121 0c5b 0B       		.uleb128 0xb
 3122 0c5c 5A120000 		.4byte	.LASF175
 3123 0c60 0A       		.byte	0xa
 3124 0c61 53       		.byte	0x53
 3125 0c62 B4000000 		.4byte	0xb4
 3126 0c66 38       		.byte	0x38
 3127 0c67 0B       		.uleb128 0xb
 3128 0c68 17100000 		.4byte	.LASF176
 3129 0c6c 0A       		.byte	0xa
 3130 0c6d 54       		.byte	0x54
 3131 0c6e B4000000 		.4byte	0xb4
 3132 0c72 3A       		.byte	0x3a
 3133 0c73 0B       		.uleb128 0xb
 3134 0c74 C4010000 		.4byte	.LASF177
 3135 0c78 0A       		.byte	0xa
 3136 0c79 55       		.byte	0x55
 3137 0c7a A9000000 		.4byte	0xa9
 3138 0c7e 3C       		.byte	0x3c
 3139 0c7f 0B       		.uleb128 0xb
 3140 0c80 11120000 		.4byte	.LASF178
 3141 0c84 0A       		.byte	0xa
 3142 0c85 56       		.byte	0x56
 3143 0c86 A9000000 		.4byte	0xa9
 3144 0c8a 3D       		.byte	0x3d
 3145 0c8b 0B       		.uleb128 0xb
 3146 0c8c 6F030000 		.4byte	.LASF179
 3147 0c90 0A       		.byte	0xa
 3148 0c91 57       		.byte	0x57
 3149 0c92 A9000000 		.4byte	0xa9
 3150 0c96 3E       		.byte	0x3e
 3151 0c97 0B       		.uleb128 0xb
 3152 0c98 DF080000 		.4byte	.LASF180
 3153 0c9c 0A       		.byte	0xa
 3154 0c9d 58       		.byte	0x58
 3155 0c9e A9000000 		.4byte	0xa9
 3156 0ca2 3F       		.byte	0x3f
 3157 0ca3 0B       		.uleb128 0xb
 3158 0ca4 2D130000 		.4byte	.LASF181
 3159 0ca8 0A       		.byte	0xa
 3160 0ca9 59       		.byte	0x59
 3161 0caa A9000000 		.4byte	0xa9
 3162 0cae 40       		.byte	0x40
 3163 0caf 0B       		.uleb128 0xb
 3164 0cb0 C2140000 		.4byte	.LASF182
 3165 0cb4 0A       		.byte	0xa
 3166 0cb5 5A       		.byte	0x5a
 3167 0cb6 A9000000 		.4byte	0xa9
 3168 0cba 41       		.byte	0x41
 3169 0cbb 0B       		.uleb128 0xb
 3170 0cbc 89110000 		.4byte	.LASF183
 3171 0cc0 0A       		.byte	0xa
 3172 0cc1 5B       		.byte	0x5b
 3173 0cc2 A9000000 		.4byte	0xa9
 3174 0cc6 42       		.byte	0x42
 3175 0cc7 0B       		.uleb128 0xb
 3176 0cc8 55250000 		.4byte	.LASF184
 3177 0ccc 0A       		.byte	0xa
ARM GAS  C:\Users\xhuli\AppData\Local\Temp\ccrNCJrA.s 			page 101


 3178 0ccd 5C       		.byte	0x5c
 3179 0cce A9000000 		.4byte	0xa9
 3180 0cd2 43       		.byte	0x43
 3181 0cd3 0B       		.uleb128 0xb
 3182 0cd4 63210000 		.4byte	.LASF185
 3183 0cd8 0A       		.byte	0xa
 3184 0cd9 5D       		.byte	0x5d
 3185 0cda A9000000 		.4byte	0xa9
 3186 0cde 44       		.byte	0x44
 3187 0cdf 0B       		.uleb128 0xb
 3188 0ce0 90120000 		.4byte	.LASF186
 3189 0ce4 0A       		.byte	0xa
 3190 0ce5 5E       		.byte	0x5e
 3191 0ce6 D5000000 		.4byte	0xd5
 3192 0cea 48       		.byte	0x48
 3193 0ceb 0B       		.uleb128 0xb
 3194 0cec 40010000 		.4byte	.LASF187
 3195 0cf0 0A       		.byte	0xa
 3196 0cf1 5F       		.byte	0x5f
 3197 0cf2 D5000000 		.4byte	0xd5
 3198 0cf6 4C       		.byte	0x4c
 3199 0cf7 0B       		.uleb128 0xb
 3200 0cf8 70160000 		.4byte	.LASF188
 3201 0cfc 0A       		.byte	0xa
 3202 0cfd 60       		.byte	0x60
 3203 0cfe A9000000 		.4byte	0xa9
 3204 0d02 50       		.byte	0x50
 3205 0d03 0B       		.uleb128 0xb
 3206 0d04 FA060000 		.4byte	.LASF189
 3207 0d08 0A       		.byte	0xa
 3208 0d09 61       		.byte	0x61
 3209 0d0a A9000000 		.4byte	0xa9
 3210 0d0e 51       		.byte	0x51
 3211 0d0f 0B       		.uleb128 0xb
 3212 0d10 60160000 		.4byte	.LASF190
 3213 0d14 0A       		.byte	0xa
 3214 0d15 62       		.byte	0x62
 3215 0d16 A9000000 		.4byte	0xa9
 3216 0d1a 52       		.byte	0x52
 3217 0d1b 0B       		.uleb128 0xb
 3218 0d1c 67240000 		.4byte	.LASF191
 3219 0d20 0A       		.byte	0xa
 3220 0d21 63       		.byte	0x63
 3221 0d22 A9000000 		.4byte	0xa9
 3222 0d26 53       		.byte	0x53
 3223 0d27 0B       		.uleb128 0xb
 3224 0d28 851B0000 		.4byte	.LASF192
 3225 0d2c 0A       		.byte	0xa
 3226 0d2d 64       		.byte	0x64
 3227 0d2e A9000000 		.4byte	0xa9
 3228 0d32 54       		.byte	0x54
 3229 0d33 0B       		.uleb128 0xb
 3230 0d34 B3290000 		.4byte	.LASF193
 3231 0d38 0A       		.byte	0xa
 3232 0d39 65       		.byte	0x65
 3233 0d3a A9000000 		.4byte	0xa9
 3234 0d3e 55       		.byte	0x55
ARM GAS  C:\Users\xhuli\AppData\Local\Temp\ccrNCJrA.s 			page 102


 3235 0d3f 0B       		.uleb128 0xb
 3236 0d40 AD230000 		.4byte	.LASF194
 3237 0d44 0A       		.byte	0xa
 3238 0d45 66       		.byte	0x66
 3239 0d46 A9000000 		.4byte	0xa9
 3240 0d4a 56       		.byte	0x56
 3241 0d4b 0B       		.uleb128 0xb
 3242 0d4c F51C0000 		.4byte	.LASF195
 3243 0d50 0A       		.byte	0xa
 3244 0d51 67       		.byte	0x67
 3245 0d52 A9000000 		.4byte	0xa9
 3246 0d56 57       		.byte	0x57
 3247 0d57 0B       		.uleb128 0xb
 3248 0d58 81160000 		.4byte	.LASF196
 3249 0d5c 0A       		.byte	0xa
 3250 0d5d 68       		.byte	0x68
 3251 0d5e A9000000 		.4byte	0xa9
 3252 0d62 58       		.byte	0x58
 3253 0d63 0B       		.uleb128 0xb
 3254 0d64 830F0000 		.4byte	.LASF197
 3255 0d68 0A       		.byte	0xa
 3256 0d69 69       		.byte	0x69
 3257 0d6a A9000000 		.4byte	0xa9
 3258 0d6e 59       		.byte	0x59
 3259 0d6f 0B       		.uleb128 0xb
 3260 0d70 252A0000 		.4byte	.LASF198
 3261 0d74 0A       		.byte	0xa
 3262 0d75 6E       		.byte	0x6e
 3263 0d76 BF000000 		.4byte	0xbf
 3264 0d7a 5A       		.byte	0x5a
 3265 0d7b 0B       		.uleb128 0xb
 3266 0d7c B0120000 		.4byte	.LASF199
 3267 0d80 0A       		.byte	0xa
 3268 0d81 6F       		.byte	0x6f
 3269 0d82 BF000000 		.4byte	0xbf
 3270 0d86 5C       		.byte	0x5c
 3271 0d87 0B       		.uleb128 0xb
 3272 0d88 3D260000 		.4byte	.LASF200
 3273 0d8c 0A       		.byte	0xa
 3274 0d8d 70       		.byte	0x70
 3275 0d8e A9000000 		.4byte	0xa9
 3276 0d92 5E       		.byte	0x5e
 3277 0d93 0B       		.uleb128 0xb
 3278 0d94 B0260000 		.4byte	.LASF201
 3279 0d98 0A       		.byte	0xa
 3280 0d99 71       		.byte	0x71
 3281 0d9a A9000000 		.4byte	0xa9
 3282 0d9e 5F       		.byte	0x5f
 3283 0d9f 0B       		.uleb128 0xb
 3284 0da0 23040000 		.4byte	.LASF202
 3285 0da4 0A       		.byte	0xa
 3286 0da5 72       		.byte	0x72
 3287 0da6 A9000000 		.4byte	0xa9
 3288 0daa 60       		.byte	0x60
 3289 0dab 0B       		.uleb128 0xb
 3290 0dac 121B0000 		.4byte	.LASF203
 3291 0db0 0A       		.byte	0xa
ARM GAS  C:\Users\xhuli\AppData\Local\Temp\ccrNCJrA.s 			page 103


 3292 0db1 73       		.byte	0x73
 3293 0db2 D5000000 		.4byte	0xd5
 3294 0db6 64       		.byte	0x64
 3295 0db7 0B       		.uleb128 0xb
 3296 0db8 FF270000 		.4byte	.LASF204
 3297 0dbc 0A       		.byte	0xa
 3298 0dbd 76       		.byte	0x76
 3299 0dbe BF000000 		.4byte	0xbf
 3300 0dc2 68       		.byte	0x68
 3301 0dc3 0B       		.uleb128 0xb
 3302 0dc4 E8060000 		.4byte	.LASF205
 3303 0dc8 0A       		.byte	0xa
 3304 0dc9 77       		.byte	0x77
 3305 0dca BF000000 		.4byte	0xbf
 3306 0dce 6A       		.byte	0x6a
 3307 0dcf 0B       		.uleb128 0xb
 3308 0dd0 390E0000 		.4byte	.LASF206
 3309 0dd4 0A       		.byte	0xa
 3310 0dd5 78       		.byte	0x78
 3311 0dd6 BF000000 		.4byte	0xbf
 3312 0dda 6C       		.byte	0x6c
 3313 0ddb 0B       		.uleb128 0xb
 3314 0ddc 4D070000 		.4byte	.LASF207
 3315 0de0 0A       		.byte	0xa
 3316 0de1 79       		.byte	0x79
 3317 0de2 BF000000 		.4byte	0xbf
 3318 0de6 6E       		.byte	0x6e
 3319 0de7 0B       		.uleb128 0xb
 3320 0de8 F91E0000 		.4byte	.LASF208
 3321 0dec 0A       		.byte	0xa
 3322 0ded 7B       		.byte	0x7b
 3323 0dee A9000000 		.4byte	0xa9
 3324 0df2 70       		.byte	0x70
 3325 0df3 0B       		.uleb128 0xb
 3326 0df4 4F140000 		.4byte	.LASF209
 3327 0df8 0A       		.byte	0xa
 3328 0df9 7C       		.byte	0x7c
 3329 0dfa A9000000 		.4byte	0xa9
 3330 0dfe 71       		.byte	0x71
 3331 0dff 0B       		.uleb128 0xb
 3332 0e00 6E090000 		.4byte	.LASF210
 3333 0e04 0A       		.byte	0xa
 3334 0e05 7D       		.byte	0x7d
 3335 0e06 A9000000 		.4byte	0xa9
 3336 0e0a 72       		.byte	0x72
 3337 0e0b 0B       		.uleb128 0xb
 3338 0e0c 62270000 		.4byte	.LASF211
 3339 0e10 0A       		.byte	0xa
 3340 0e11 7E       		.byte	0x7e
 3341 0e12 A9000000 		.4byte	0xa9
 3342 0e16 73       		.byte	0x73
 3343 0e17 0B       		.uleb128 0xb
 3344 0e18 2C070000 		.4byte	.LASF212
 3345 0e1c 0A       		.byte	0xa
 3346 0e1d 80       		.byte	0x80
 3347 0e1e BF000000 		.4byte	0xbf
 3348 0e22 74       		.byte	0x74
ARM GAS  C:\Users\xhuli\AppData\Local\Temp\ccrNCJrA.s 			page 104


 3349 0e23 0B       		.uleb128 0xb
 3350 0e24 CD130000 		.4byte	.LASF213
 3351 0e28 0A       		.byte	0xa
 3352 0e29 81       		.byte	0x81
 3353 0e2a BF000000 		.4byte	0xbf
 3354 0e2e 76       		.byte	0x76
 3355 0e2f 0B       		.uleb128 0xb
 3356 0e30 AA160000 		.4byte	.LASF214
 3357 0e34 0A       		.byte	0xa
 3358 0e35 82       		.byte	0x82
 3359 0e36 BF000000 		.4byte	0xbf
 3360 0e3a 78       		.byte	0x78
 3361 0e3b 0B       		.uleb128 0xb
 3362 0e3c D11F0000 		.4byte	.LASF215
 3363 0e40 0A       		.byte	0xa
 3364 0e41 83       		.byte	0x83
 3365 0e42 BF000000 		.4byte	0xbf
 3366 0e46 7A       		.byte	0x7a
 3367 0e47 0B       		.uleb128 0xb
 3368 0e48 0A190000 		.4byte	.LASF216
 3369 0e4c 0A       		.byte	0xa
 3370 0e4d 86       		.byte	0x86
 3371 0e4e A9000000 		.4byte	0xa9
 3372 0e52 7C       		.byte	0x7c
 3373 0e53 0B       		.uleb128 0xb
 3374 0e54 3B030000 		.4byte	.LASF217
 3375 0e58 0A       		.byte	0xa
 3376 0e59 87       		.byte	0x87
 3377 0e5a A9000000 		.4byte	0xa9
 3378 0e5e 7D       		.byte	0x7d
 3379 0e5f 0B       		.uleb128 0xb
 3380 0e60 3C100000 		.4byte	.LASF218
 3381 0e64 0A       		.byte	0xa
 3382 0e65 88       		.byte	0x88
 3383 0e66 A9000000 		.4byte	0xa9
 3384 0e6a 7E       		.byte	0x7e
 3385 0e6b 0B       		.uleb128 0xb
 3386 0e6c 00160000 		.4byte	.LASF219
 3387 0e70 0A       		.byte	0xa
 3388 0e71 89       		.byte	0x89
 3389 0e72 A9000000 		.4byte	0xa9
 3390 0e76 7F       		.byte	0x7f
 3391 0e77 0B       		.uleb128 0xb
 3392 0e78 D9240000 		.4byte	.LASF220
 3393 0e7c 0A       		.byte	0xa
 3394 0e7d 8A       		.byte	0x8a
 3395 0e7e A9000000 		.4byte	0xa9
 3396 0e82 80       		.byte	0x80
 3397 0e83 0B       		.uleb128 0xb
 3398 0e84 220E0000 		.4byte	.LASF221
 3399 0e88 0A       		.byte	0xa
 3400 0e89 8D       		.byte	0x8d
 3401 0e8a D5000000 		.4byte	0xd5
 3402 0e8e 84       		.byte	0x84
 3403 0e8f 0B       		.uleb128 0xb
 3404 0e90 991F0000 		.4byte	.LASF222
 3405 0e94 0A       		.byte	0xa
ARM GAS  C:\Users\xhuli\AppData\Local\Temp\ccrNCJrA.s 			page 105


 3406 0e95 8E       		.byte	0x8e
 3407 0e96 D5000000 		.4byte	0xd5
 3408 0e9a 88       		.byte	0x88
 3409 0e9b 0B       		.uleb128 0xb
 3410 0e9c 70260000 		.4byte	.LASF223
 3411 0ea0 0A       		.byte	0xa
 3412 0ea1 8F       		.byte	0x8f
 3413 0ea2 D5000000 		.4byte	0xd5
 3414 0ea6 8C       		.byte	0x8c
 3415 0ea7 0B       		.uleb128 0xb
 3416 0ea8 4C000000 		.4byte	.LASF224
 3417 0eac 0A       		.byte	0xa
 3418 0ead 90       		.byte	0x90
 3419 0eae D5000000 		.4byte	0xd5
 3420 0eb2 90       		.byte	0x90
 3421 0eb3 0B       		.uleb128 0xb
 3422 0eb4 500F0000 		.4byte	.LASF225
 3423 0eb8 0A       		.byte	0xa
 3424 0eb9 91       		.byte	0x91
 3425 0eba D5000000 		.4byte	0xd5
 3426 0ebe 94       		.byte	0x94
 3427 0ebf 0B       		.uleb128 0xb
 3428 0ec0 3C0B0000 		.4byte	.LASF226
 3429 0ec4 0A       		.byte	0xa
 3430 0ec5 92       		.byte	0x92
 3431 0ec6 D5000000 		.4byte	0xd5
 3432 0eca 98       		.byte	0x98
 3433 0ecb 0B       		.uleb128 0xb
 3434 0ecc 7F0B0000 		.4byte	.LASF227
 3435 0ed0 0A       		.byte	0xa
 3436 0ed1 93       		.byte	0x93
 3437 0ed2 D5000000 		.4byte	0xd5
 3438 0ed6 9C       		.byte	0x9c
 3439 0ed7 0B       		.uleb128 0xb
 3440 0ed8 E0130000 		.4byte	.LASF228
 3441 0edc 0A       		.byte	0xa
 3442 0edd 94       		.byte	0x94
 3443 0ede D5000000 		.4byte	0xd5
 3444 0ee2 A0       		.byte	0xa0
 3445 0ee3 0B       		.uleb128 0xb
 3446 0ee4 BD1C0000 		.4byte	.LASF229
 3447 0ee8 0A       		.byte	0xa
 3448 0ee9 95       		.byte	0x95
 3449 0eea BF000000 		.4byte	0xbf
 3450 0eee A4       		.byte	0xa4
 3451 0eef 0B       		.uleb128 0xb
 3452 0ef0 801C0000 		.4byte	.LASF230
 3453 0ef4 0A       		.byte	0xa
 3454 0ef5 96       		.byte	0x96
 3455 0ef6 BF000000 		.4byte	0xbf
 3456 0efa A6       		.byte	0xa6
 3457 0efb 0B       		.uleb128 0xb
 3458 0efc 8F090000 		.4byte	.LASF231
 3459 0f00 0A       		.byte	0xa
 3460 0f01 97       		.byte	0x97
 3461 0f02 BF000000 		.4byte	0xbf
 3462 0f06 A8       		.byte	0xa8
ARM GAS  C:\Users\xhuli\AppData\Local\Temp\ccrNCJrA.s 			page 106


 3463 0f07 0B       		.uleb128 0xb
 3464 0f08 F21F0000 		.4byte	.LASF232
 3465 0f0c 0A       		.byte	0xa
 3466 0f0d 98       		.byte	0x98
 3467 0f0e BF000000 		.4byte	0xbf
 3468 0f12 AA       		.byte	0xaa
 3469 0f13 0B       		.uleb128 0xb
 3470 0f14 1F190000 		.4byte	.LASF233
 3471 0f18 0A       		.byte	0xa
 3472 0f19 99       		.byte	0x99
 3473 0f1a BF000000 		.4byte	0xbf
 3474 0f1e AC       		.byte	0xac
 3475 0f1f 0B       		.uleb128 0xb
 3476 0f20 CC110000 		.4byte	.LASF234
 3477 0f24 0A       		.byte	0xa
 3478 0f25 9A       		.byte	0x9a
 3479 0f26 BF000000 		.4byte	0xbf
 3480 0f2a AE       		.byte	0xae
 3481 0f2b 0B       		.uleb128 0xb
 3482 0f2c A7270000 		.4byte	.LASF235
 3483 0f30 0A       		.byte	0xa
 3484 0f31 9D       		.byte	0x9d
 3485 0f32 BF000000 		.4byte	0xbf
 3486 0f36 B0       		.byte	0xb0
 3487 0f37 0B       		.uleb128 0xb
 3488 0f38 620E0000 		.4byte	.LASF236
 3489 0f3c 0A       		.byte	0xa
 3490 0f3d 9E       		.byte	0x9e
 3491 0f3e D5000000 		.4byte	0xd5
 3492 0f42 B4       		.byte	0xb4
 3493 0f43 00       		.byte	0
 3494 0f44 03       		.uleb128 0x3
 3495 0f45 A2150000 		.4byte	.LASF237
 3496 0f49 0A       		.byte	0xa
 3497 0f4a 9F       		.byte	0x9f
 3498 0f4b 330B0000 		.4byte	0xb33
 3499 0f4f 0F       		.uleb128 0xf
 3500 0f50 4B1D0000 		.4byte	.LASF238
 3501 0f54 0B       		.byte	0xb
 3502 0f55 F601     		.2byte	0x1f6
 3503 0f57 5B0F0000 		.4byte	0xf5b
 3504 0f5b 02       		.uleb128 0x2
 3505 0f5c 01       		.byte	0x1
 3506 0f5d 08       		.byte	0x8
 3507 0f5e FE0B0000 		.4byte	.LASF239
 3508 0f62 02       		.uleb128 0x2
 3509 0f63 08       		.byte	0x8
 3510 0f64 04       		.byte	0x4
 3511 0f65 F9150000 		.4byte	.LASF240
 3512 0f69 10       		.uleb128 0x10
 3513 0f6a 04       		.byte	0x4
 3514 0f6b 02       		.uleb128 0x2
 3515 0f6c 01       		.byte	0x1
 3516 0f6d 02       		.byte	0x2
 3517 0f6e 700B0000 		.4byte	.LASF241
 3518 0f72 11       		.uleb128 0x11
 3519 0f73 01       		.byte	0x1
ARM GAS  C:\Users\xhuli\AppData\Local\Temp\ccrNCJrA.s 			page 107


 3520 0f74 45000000 		.4byte	0x45
 3521 0f78 0C       		.byte	0xc
 3522 0f79 1304     		.2byte	0x413
 3523 0f7b 980F0000 		.4byte	0xf98
 3524 0f7f 12       		.uleb128 0x12
 3525 0f80 2A1A0000 		.4byte	.LASF242
 3526 0f84 00       		.byte	0
 3527 0f85 12       		.uleb128 0x12
 3528 0f86 93220000 		.4byte	.LASF243
 3529 0f8a 01       		.byte	0x1
 3530 0f8b 12       		.uleb128 0x12
 3531 0f8c 5A1A0000 		.4byte	.LASF244
 3532 0f90 02       		.byte	0x2
 3533 0f91 12       		.uleb128 0x12
 3534 0f92 E6110000 		.4byte	.LASF245
 3535 0f96 03       		.byte	0x3
 3536 0f97 00       		.byte	0
 3537 0f98 0F       		.uleb128 0xf
 3538 0f99 7D030000 		.4byte	.LASF246
 3539 0f9d 0C       		.byte	0xc
 3540 0f9e 1804     		.2byte	0x418
 3541 0fa0 720F0000 		.4byte	0xf72
 3542 0fa4 13       		.uleb128 0x13
 3543 0fa5 78       		.byte	0x78
 3544 0fa6 0C       		.byte	0xc
 3545 0fa7 0205     		.2byte	0x502
 3546 0fa9 71100000 		.4byte	0x1071
 3547 0fad 14       		.uleb128 0x14
 3548 0fae E70A0000 		.4byte	.LASF247
 3549 0fb2 0C       		.byte	0xc
 3550 0fb3 0405     		.2byte	0x504
 3551 0fb5 D5000000 		.4byte	0xd5
 3552 0fb9 00       		.byte	0
 3553 0fba 14       		.uleb128 0x14
 3554 0fbb D11E0000 		.4byte	.LASF248
 3555 0fbf 0C       		.byte	0xc
 3556 0fc0 0505     		.2byte	0x505
 3557 0fc2 D5000000 		.4byte	0xd5
 3558 0fc6 04       		.byte	0x4
 3559 0fc7 14       		.uleb128 0x14
 3560 0fc8 B2150000 		.4byte	.LASF249
 3561 0fcc 0C       		.byte	0xc
 3562 0fcd 0605     		.2byte	0x506
 3563 0fcf D5000000 		.4byte	0xd5
 3564 0fd3 08       		.byte	0x8
 3565 0fd4 14       		.uleb128 0x14
 3566 0fd5 08150000 		.4byte	.LASF250
 3567 0fd9 0C       		.byte	0xc
 3568 0fda 0705     		.2byte	0x507
 3569 0fdc D5000000 		.4byte	0xd5
 3570 0fe0 0C       		.byte	0xc
 3571 0fe1 14       		.uleb128 0x14
 3572 0fe2 FB1A0000 		.4byte	.LASF251
 3573 0fe6 0C       		.byte	0xc
 3574 0fe7 0805     		.2byte	0x508
 3575 0fe9 D5000000 		.4byte	0xd5
 3576 0fed 10       		.byte	0x10
ARM GAS  C:\Users\xhuli\AppData\Local\Temp\ccrNCJrA.s 			page 108


 3577 0fee 14       		.uleb128 0x14
 3578 0fef EB250000 		.4byte	.LASF252
 3579 0ff3 0C       		.byte	0xc
 3580 0ff4 0905     		.2byte	0x509
 3581 0ff6 980F0000 		.4byte	0xf98
 3582 0ffa 14       		.byte	0x14
 3583 0ffb 14       		.uleb128 0x14
 3584 0ffc E9000000 		.4byte	.LASF253
 3585 1000 0C       		.byte	0xc
 3586 1001 0A05     		.2byte	0x50a
 3587 1003 D5000000 		.4byte	0xd5
 3588 1007 18       		.byte	0x18
 3589 1008 14       		.uleb128 0x14
 3590 1009 61000000 		.4byte	.LASF254
 3591 100d 0C       		.byte	0xc
 3592 100e 0B05     		.2byte	0x50b
 3593 1010 71100000 		.4byte	0x1071
 3594 1014 1C       		.byte	0x1c
 3595 1015 14       		.uleb128 0x14
 3596 1016 EC210000 		.4byte	.LASF255
 3597 101a 0C       		.byte	0xc
 3598 101b 0C05     		.2byte	0x50c
 3599 101d D5000000 		.4byte	0xd5
 3600 1021 5C       		.byte	0x5c
 3601 1022 14       		.uleb128 0x14
 3602 1023 7E0A0000 		.4byte	.LASF256
 3603 1027 0C       		.byte	0xc
 3604 1028 0D05     		.2byte	0x50d
 3605 102a D5000000 		.4byte	0xd5
 3606 102e 60       		.byte	0x60
 3607 102f 14       		.uleb128 0x14
 3608 1030 AA050000 		.4byte	.LASF257
 3609 1034 0C       		.byte	0xc
 3610 1035 0E05     		.2byte	0x50e
 3611 1037 D5000000 		.4byte	0xd5
 3612 103b 64       		.byte	0x64
 3613 103c 14       		.uleb128 0x14
 3614 103d 62220000 		.4byte	.LASF258
 3615 1041 0C       		.byte	0xc
 3616 1042 0F05     		.2byte	0x50f
 3617 1044 D5000000 		.4byte	0xd5
 3618 1048 68       		.byte	0x68
 3619 1049 14       		.uleb128 0x14
 3620 104a ED240000 		.4byte	.LASF259
 3621 104e 0C       		.byte	0xc
 3622 104f 1005     		.2byte	0x510
 3623 1051 D5000000 		.4byte	0xd5
 3624 1055 6C       		.byte	0x6c
 3625 1056 14       		.uleb128 0x14
 3626 1057 3D1D0000 		.4byte	.LASF260
 3627 105b 0C       		.byte	0xc
 3628 105c 1105     		.2byte	0x511
 3629 105e 6B0F0000 		.4byte	0xf6b
 3630 1062 70       		.byte	0x70
 3631 1063 14       		.uleb128 0x14
 3632 1064 300B0000 		.4byte	.LASF261
 3633 1068 0C       		.byte	0xc
ARM GAS  C:\Users\xhuli\AppData\Local\Temp\ccrNCJrA.s 			page 109


 3634 1069 1205     		.2byte	0x512
 3635 106b D5000000 		.4byte	0xd5
 3636 106f 74       		.byte	0x74
 3637 1070 00       		.byte	0
 3638 1071 07       		.uleb128 0x7
 3639 1072 D5000000 		.4byte	0xd5
 3640 1076 81100000 		.4byte	0x1081
 3641 107a 08       		.uleb128 0x8
 3642 107b E0000000 		.4byte	0xe0
 3643 107f 0F       		.byte	0xf
 3644 1080 00       		.byte	0
 3645 1081 0F       		.uleb128 0xf
 3646 1082 C40D0000 		.4byte	.LASF262
 3647 1086 0C       		.byte	0xc
 3648 1087 1305     		.2byte	0x513
 3649 1089 A40F0000 		.4byte	0xfa4
 3650 108d 11       		.uleb128 0x11
 3651 108e 01       		.byte	0x1
 3652 108f 45000000 		.4byte	0x45
 3653 1093 0D       		.byte	0xd
 3654 1094 1D02     		.2byte	0x21d
 3655 1096 A7100000 		.4byte	0x10a7
 3656 109a 12       		.uleb128 0x12
 3657 109b 3B090000 		.4byte	.LASF263
 3658 109f 00       		.byte	0
 3659 10a0 12       		.uleb128 0x12
 3660 10a1 DE0F0000 		.4byte	.LASF264
 3661 10a5 01       		.byte	0x1
 3662 10a6 00       		.byte	0
 3663 10a7 11       		.uleb128 0x11
 3664 10a8 01       		.byte	0x1
 3665 10a9 45000000 		.4byte	0x45
 3666 10ad 0D       		.byte	0xd
 3667 10ae 2402     		.2byte	0x224
 3668 10b0 C1100000 		.4byte	0x10c1
 3669 10b4 12       		.uleb128 0x12
 3670 10b5 740F0000 		.4byte	.LASF265
 3671 10b9 00       		.byte	0
 3672 10ba 12       		.uleb128 0x12
 3673 10bb 2E260000 		.4byte	.LASF266
 3674 10bf 01       		.byte	0x1
 3675 10c0 00       		.byte	0
 3676 10c1 0F       		.uleb128 0xf
 3677 10c2 95110000 		.4byte	.LASF267
 3678 10c6 0D       		.byte	0xd
 3679 10c7 2702     		.2byte	0x227
 3680 10c9 A7100000 		.4byte	0x10a7
 3681 10cd 0F       		.uleb128 0xf
 3682 10ce 82180000 		.4byte	.LASF268
 3683 10d2 0D       		.byte	0xd
 3684 10d3 3902     		.2byte	0x239
 3685 10d5 D9100000 		.4byte	0x10d9
 3686 10d9 15       		.uleb128 0x15
 3687 10da 04       		.byte	0x4
 3688 10db DF100000 		.4byte	0x10df
 3689 10df 16       		.uleb128 0x16
 3690 10e0 EA100000 		.4byte	0x10ea
ARM GAS  C:\Users\xhuli\AppData\Local\Temp\ccrNCJrA.s 			page 110


 3691 10e4 17       		.uleb128 0x17
 3692 10e5 D5000000 		.4byte	0xd5
 3693 10e9 00       		.byte	0
 3694 10ea 0F       		.uleb128 0xf
 3695 10eb 092A0000 		.4byte	.LASF269
 3696 10ef 0D       		.byte	0xd
 3697 10f0 4402     		.2byte	0x244
 3698 10f2 F6100000 		.4byte	0x10f6
 3699 10f6 15       		.uleb128 0x15
 3700 10f7 04       		.byte	0x4
 3701 10f8 FC100000 		.4byte	0x10fc
 3702 10fc 18       		.uleb128 0x18
 3703 10fd C1100000 		.4byte	0x10c1
 3704 1101 0B110000 		.4byte	0x110b
 3705 1105 17       		.uleb128 0x17
 3706 1106 D5000000 		.4byte	0xd5
 3707 110a 00       		.byte	0
 3708 110b 19       		.uleb128 0x19
 3709 110c CA280000 		.4byte	.LASF293
 3710 1110 4C       		.byte	0x4c
 3711 1111 0D       		.byte	0xd
 3712 1112 C302     		.2byte	0x2c3
 3713 1114 2A120000 		.4byte	0x122a
 3714 1118 14       		.uleb128 0x14
 3715 1119 91050000 		.4byte	.LASF270
 3716 111d 0D       		.byte	0xd
 3717 111e C602     		.2byte	0x2c6
 3718 1120 6B0F0000 		.4byte	0xf6b
 3719 1124 00       		.byte	0
 3720 1125 14       		.uleb128 0x14
 3721 1126 331D0000 		.4byte	.LASF271
 3722 112a 0D       		.byte	0xd
 3723 112b C702     		.2byte	0x2c7
 3724 112d 6B0F0000 		.4byte	0xf6b
 3725 1131 01       		.byte	0x1
 3726 1132 14       		.uleb128 0x14
 3727 1133 FC020000 		.4byte	.LASF272
 3728 1137 0D       		.byte	0xd
 3729 1138 C902     		.2byte	0x2c9
 3730 113a E7000000 		.4byte	0xe7
 3731 113e 04       		.byte	0x4
 3732 113f 14       		.uleb128 0x14
 3733 1140 5A240000 		.4byte	.LASF273
 3734 1144 0D       		.byte	0xd
 3735 1145 CB02     		.2byte	0x2cb
 3736 1147 E7000000 		.4byte	0xe7
 3737 114b 08       		.byte	0x8
 3738 114c 14       		.uleb128 0x14
 3739 114d 00260000 		.4byte	.LASF274
 3740 1151 0D       		.byte	0xd
 3741 1152 CC02     		.2byte	0x2cc
 3742 1154 6B0F0000 		.4byte	0xf6b
 3743 1158 0C       		.byte	0xc
 3744 1159 14       		.uleb128 0x14
 3745 115a 0C260000 		.4byte	.LASF275
 3746 115e 0D       		.byte	0xd
 3747 115f CD02     		.2byte	0x2cd
ARM GAS  C:\Users\xhuli\AppData\Local\Temp\ccrNCJrA.s 			page 111


 3748 1161 6B0F0000 		.4byte	0xf6b
 3749 1165 0D       		.byte	0xd
 3750 1166 14       		.uleb128 0x14
 3751 1167 4E220000 		.4byte	.LASF276
 3752 116b 0D       		.byte	0xd
 3753 116c CF02     		.2byte	0x2cf
 3754 116e 2A120000 		.4byte	0x122a
 3755 1172 10       		.byte	0x10
 3756 1173 14       		.uleb128 0x14
 3757 1174 C2100000 		.4byte	.LASF277
 3758 1178 0D       		.byte	0xd
 3759 1179 D002     		.2byte	0x2d0
 3760 117b D5000000 		.4byte	0xd5
 3761 117f 14       		.byte	0x14
 3762 1180 14       		.uleb128 0x14
 3763 1181 39240000 		.4byte	.LASF278
 3764 1185 0D       		.byte	0xd
 3765 1186 D102     		.2byte	0x2d1
 3766 1188 E7000000 		.4byte	0xe7
 3767 118c 18       		.byte	0x18
 3768 118d 14       		.uleb128 0x14
 3769 118e 74150000 		.4byte	.LASF279
 3770 1192 0D       		.byte	0xd
 3771 1193 D202     		.2byte	0x2d2
 3772 1195 E7000000 		.4byte	0xe7
 3773 1199 1C       		.byte	0x1c
 3774 119a 14       		.uleb128 0x14
 3775 119b 65120000 		.4byte	.LASF280
 3776 119f 0D       		.byte	0xd
 3777 11a0 D402     		.2byte	0x2d4
 3778 11a2 E7000000 		.4byte	0xe7
 3779 11a6 20       		.byte	0x20
 3780 11a7 14       		.uleb128 0x14
 3781 11a8 B40D0000 		.4byte	.LASF281
 3782 11ac 0D       		.byte	0xd
 3783 11ad D502     		.2byte	0x2d5
 3784 11af 30120000 		.4byte	0x1230
 3785 11b3 24       		.byte	0x24
 3786 11b4 14       		.uleb128 0x14
 3787 11b5 FA140000 		.4byte	.LASF282
 3788 11b9 0D       		.byte	0xd
 3789 11ba D702     		.2byte	0x2d7
 3790 11bc 2A120000 		.4byte	0x122a
 3791 11c0 28       		.byte	0x28
 3792 11c1 14       		.uleb128 0x14
 3793 11c2 3D140000 		.4byte	.LASF283
 3794 11c6 0D       		.byte	0xd
 3795 11c7 D802     		.2byte	0x2d8
 3796 11c9 D5000000 		.4byte	0xd5
 3797 11cd 2C       		.byte	0x2c
 3798 11ce 14       		.uleb128 0x14
 3799 11cf 9B090000 		.4byte	.LASF284
 3800 11d3 0D       		.byte	0xd
 3801 11d4 D902     		.2byte	0x2d9
 3802 11d6 E7000000 		.4byte	0xe7
 3803 11da 30       		.byte	0x30
 3804 11db 14       		.uleb128 0x14
ARM GAS  C:\Users\xhuli\AppData\Local\Temp\ccrNCJrA.s 			page 112


 3805 11dc 510E0000 		.4byte	.LASF285
 3806 11e0 0D       		.byte	0xd
 3807 11e1 DA02     		.2byte	0x2da
 3808 11e3 E7000000 		.4byte	0xe7
 3809 11e7 34       		.byte	0x34
 3810 11e8 14       		.uleb128 0x14
 3811 11e9 FD090000 		.4byte	.LASF286
 3812 11ed 0D       		.byte	0xd
 3813 11ee DC02     		.2byte	0x2dc
 3814 11f0 2A120000 		.4byte	0x122a
 3815 11f4 38       		.byte	0x38
 3816 11f5 14       		.uleb128 0x14
 3817 11f6 931A0000 		.4byte	.LASF287
 3818 11fa 0D       		.byte	0xd
 3819 11fb DD02     		.2byte	0x2dd
 3820 11fd D5000000 		.4byte	0xd5
 3821 1201 3C       		.byte	0x3c
 3822 1202 14       		.uleb128 0x14
 3823 1203 34270000 		.4byte	.LASF288
 3824 1207 0D       		.byte	0xd
 3825 1208 DE02     		.2byte	0x2de
 3826 120a E7000000 		.4byte	0xe7
 3827 120e 40       		.byte	0x40
 3828 120f 14       		.uleb128 0x14
 3829 1210 04110000 		.4byte	.LASF289
 3830 1214 0D       		.byte	0xd
 3831 1215 E402     		.2byte	0x2e4
 3832 1217 CD100000 		.4byte	0x10cd
 3833 121b 44       		.byte	0x44
 3834 121c 14       		.uleb128 0x14
 3835 121d 5B220000 		.4byte	.LASF290
 3836 1221 0D       		.byte	0xd
 3837 1222 EB02     		.2byte	0x2eb
 3838 1224 EA100000 		.4byte	0x10ea
 3839 1228 48       		.byte	0x48
 3840 1229 00       		.byte	0
 3841 122a 15       		.uleb128 0x15
 3842 122b 04       		.byte	0x4
 3843 122c A9000000 		.4byte	0xa9
 3844 1230 05       		.uleb128 0x5
 3845 1231 6B0F0000 		.4byte	0xf6b
 3846 1235 0F       		.uleb128 0xf
 3847 1236 650A0000 		.4byte	.LASF291
 3848 123a 0D       		.byte	0xd
 3849 123b EE02     		.2byte	0x2ee
 3850 123d 0B110000 		.4byte	0x110b
 3851 1241 0F       		.uleb128 0xf
 3852 1242 011C0000 		.4byte	.LASF292
 3853 1246 0E       		.byte	0xe
 3854 1247 D901     		.2byte	0x1d9
 3855 1249 D9100000 		.4byte	0x10d9
 3856 124d 19       		.uleb128 0x19
 3857 124e D1000000 		.4byte	.LASF294
 3858 1252 38       		.byte	0x38
 3859 1253 0E       		.byte	0xe
 3860 1254 7502     		.2byte	0x275
 3861 1256 11130000 		.4byte	0x1311
ARM GAS  C:\Users\xhuli\AppData\Local\Temp\ccrNCJrA.s 			page 113


 3862 125a 14       		.uleb128 0x14
 3863 125b E4020000 		.4byte	.LASF295
 3864 125f 0E       		.byte	0xe
 3865 1260 7802     		.2byte	0x278
 3866 1262 E7000000 		.4byte	0xe7
 3867 1266 00       		.byte	0
 3868 1267 14       		.uleb128 0x14
 3869 1268 45220000 		.4byte	.LASF296
 3870 126c 0E       		.byte	0xe
 3871 126d 7902     		.2byte	0x279
 3872 126f E7000000 		.4byte	0xe7
 3873 1273 04       		.byte	0x4
 3874 1274 14       		.uleb128 0x14
 3875 1275 C0280000 		.4byte	.LASF297
 3876 1279 0E       		.byte	0xe
 3877 127a 7B02     		.2byte	0x27b
 3878 127c 690F0000 		.4byte	0xf69
 3879 1280 08       		.byte	0x8
 3880 1281 14       		.uleb128 0x14
 3881 1282 6C1B0000 		.4byte	.LASF298
 3882 1286 0E       		.byte	0xe
 3883 1287 7C02     		.2byte	0x27c
 3884 1289 D5000000 		.4byte	0xd5
 3885 128d 0C       		.byte	0xc
 3886 128e 14       		.uleb128 0x14
 3887 128f A2120000 		.4byte	.LASF299
 3888 1293 0E       		.byte	0xe
 3889 1294 7D02     		.2byte	0x27d
 3890 1296 E7000000 		.4byte	0xe7
 3891 129a 10       		.byte	0x10
 3892 129b 14       		.uleb128 0x14
 3893 129c 33280000 		.4byte	.LASF300
 3894 12a0 0E       		.byte	0xe
 3895 12a1 7E02     		.2byte	0x27e
 3896 12a3 E7000000 		.4byte	0xe7
 3897 12a7 14       		.byte	0x14
 3898 12a8 14       		.uleb128 0x14
 3899 12a9 1B010000 		.4byte	.LASF301
 3900 12ad 0E       		.byte	0xe
 3901 12ae 8002     		.2byte	0x280
 3902 12b0 690F0000 		.4byte	0xf69
 3903 12b4 18       		.byte	0x18
 3904 12b5 14       		.uleb128 0x14
 3905 12b6 A40C0000 		.4byte	.LASF302
 3906 12ba 0E       		.byte	0xe
 3907 12bb 8102     		.2byte	0x281
 3908 12bd D5000000 		.4byte	0xd5
 3909 12c1 1C       		.byte	0x1c
 3910 12c2 14       		.uleb128 0x14
 3911 12c3 A1160000 		.4byte	.LASF303
 3912 12c7 0E       		.byte	0xe
 3913 12c8 8202     		.2byte	0x282
 3914 12ca E7000000 		.4byte	0xe7
 3915 12ce 20       		.byte	0x20
 3916 12cf 14       		.uleb128 0x14
 3917 12d0 F31E0000 		.4byte	.LASF304
 3918 12d4 0E       		.byte	0xe
ARM GAS  C:\Users\xhuli\AppData\Local\Temp\ccrNCJrA.s 			page 114


 3919 12d5 8402     		.2byte	0x284
 3920 12d7 690F0000 		.4byte	0xf69
 3921 12db 24       		.byte	0x24
 3922 12dc 14       		.uleb128 0x14
 3923 12dd E3050000 		.4byte	.LASF305
 3924 12e1 0E       		.byte	0xe
 3925 12e2 8502     		.2byte	0x285
 3926 12e4 D5000000 		.4byte	0xd5
 3927 12e8 28       		.byte	0x28
 3928 12e9 14       		.uleb128 0x14
 3929 12ea 00120000 		.4byte	.LASF306
 3930 12ee 0E       		.byte	0xe
 3931 12ef 8602     		.2byte	0x286
 3932 12f1 E7000000 		.4byte	0xe7
 3933 12f5 2C       		.byte	0x2c
 3934 12f6 14       		.uleb128 0x14
 3935 12f7 04110000 		.4byte	.LASF289
 3936 12fb 0E       		.byte	0xe
 3937 12fc 8B02     		.2byte	0x28b
 3938 12fe 41120000 		.4byte	0x1241
 3939 1302 30       		.byte	0x30
 3940 1303 14       		.uleb128 0x14
 3941 1304 05230000 		.4byte	.LASF307
 3942 1308 0E       		.byte	0xe
 3943 1309 8E02     		.2byte	0x28e
 3944 130b D5000000 		.4byte	0xd5
 3945 130f 34       		.byte	0x34
 3946 1310 00       		.byte	0
 3947 1311 0F       		.uleb128 0xf
 3948 1312 15150000 		.4byte	.LASF308
 3949 1316 0E       		.byte	0xe
 3950 1317 9102     		.2byte	0x291
 3951 1319 4D120000 		.4byte	0x124d
 3952 131d 11       		.uleb128 0x11
 3953 131e 02       		.byte	0x2
 3954 131f 62000000 		.4byte	0x62
 3955 1323 0F       		.byte	0xf
 3956 1324 5401     		.2byte	0x154
 3957 1326 5D160000 		.4byte	0x165d
 3958 132a 12       		.uleb128 0x12
 3959 132b B31A0000 		.4byte	.LASF309
 3960 132f 00       		.byte	0
 3961 1330 1A       		.uleb128 0x1a
 3962 1331 29120000 		.4byte	.LASF310
 3963 1335 0010     		.2byte	0x1000
 3964 1337 1A       		.uleb128 0x1a
 3965 1338 49080000 		.4byte	.LASF311
 3966 133c 0110     		.2byte	0x1001
 3967 133e 1A       		.uleb128 0x1a
 3968 133f ED050000 		.4byte	.LASF312
 3969 1343 0210     		.2byte	0x1002
 3970 1345 1A       		.uleb128 0x1a
 3971 1346 82140000 		.4byte	.LASF313
 3972 134a 0310     		.2byte	0x1003
 3973 134c 1A       		.uleb128 0x1a
 3974 134d 00000000 		.4byte	.LASF314
 3975 1351 0410     		.2byte	0x1004
ARM GAS  C:\Users\xhuli\AppData\Local\Temp\ccrNCJrA.s 			page 115


 3976 1353 1A       		.uleb128 0x1a
 3977 1354 DE270000 		.4byte	.LASF315
 3978 1358 0510     		.2byte	0x1005
 3979 135a 1A       		.uleb128 0x1a
 3980 135b 8B020000 		.4byte	.LASF316
 3981 135f 0020     		.2byte	0x2000
 3982 1361 1A       		.uleb128 0x1a
 3983 1362 B0020000 		.4byte	.LASF317
 3984 1366 0120     		.2byte	0x2001
 3985 1368 1A       		.uleb128 0x1a
 3986 1369 AC220000 		.4byte	.LASF318
 3987 136d 0220     		.2byte	0x2002
 3988 136f 1A       		.uleb128 0x1a
 3989 1370 E1220000 		.4byte	.LASF319
 3990 1374 0320     		.2byte	0x2003
 3991 1376 1A       		.uleb128 0x1a
 3992 1377 53020000 		.4byte	.LASF320
 3993 137b 0420     		.2byte	0x2004
 3994 137d 1A       		.uleb128 0x1a
 3995 137e AB1D0000 		.4byte	.LASF321
 3996 1382 0520     		.2byte	0x2005
 3997 1384 1A       		.uleb128 0x1a
 3998 1385 201C0000 		.4byte	.LASF322
 3999 1389 0620     		.2byte	0x2006
 4000 138b 1A       		.uleb128 0x1a
 4001 138c 43290000 		.4byte	.LASF323
 4002 1390 0720     		.2byte	0x2007
 4003 1392 1A       		.uleb128 0x1a
 4004 1393 E6160000 		.4byte	.LASF324
 4005 1397 0820     		.2byte	0x2008
 4006 1399 1A       		.uleb128 0x1a
 4007 139a 2D190000 		.4byte	.LASF325
 4008 139e 0920     		.2byte	0x2009
 4009 13a0 1A       		.uleb128 0x1a
 4010 13a1 9B1E0000 		.4byte	.LASF326
 4011 13a5 0A20     		.2byte	0x200a
 4012 13a7 1A       		.uleb128 0x1a
 4013 13a8 95240000 		.4byte	.LASF327
 4014 13ac 0B20     		.2byte	0x200b
 4015 13ae 1A       		.uleb128 0x1a
 4016 13af AD110000 		.4byte	.LASF328
 4017 13b3 0C20     		.2byte	0x200c
 4018 13b5 1A       		.uleb128 0x1a
 4019 13b6 D21C0000 		.4byte	.LASF329
 4020 13ba 0D20     		.2byte	0x200d
 4021 13bc 1A       		.uleb128 0x1a
 4022 13bd D3070000 		.4byte	.LASF330
 4023 13c1 0E20     		.2byte	0x200e
 4024 13c3 1A       		.uleb128 0x1a
 4025 13c4 18290000 		.4byte	.LASF331
 4026 13c8 0F20     		.2byte	0x200f
 4027 13ca 1A       		.uleb128 0x1a
 4028 13cb 77080000 		.4byte	.LASF332
 4029 13cf 1020     		.2byte	0x2010
 4030 13d1 1A       		.uleb128 0x1a
 4031 13d2 64050000 		.4byte	.LASF333
 4032 13d6 1120     		.2byte	0x2011
ARM GAS  C:\Users\xhuli\AppData\Local\Temp\ccrNCJrA.s 			page 116


 4033 13d8 1A       		.uleb128 0x1a
 4034 13d9 E6280000 		.4byte	.LASF334
 4035 13dd 1220     		.2byte	0x2012
 4036 13df 1A       		.uleb128 0x1a
 4037 13e0 370C0000 		.4byte	.LASF335
 4038 13e4 1320     		.2byte	0x2013
 4039 13e6 1A       		.uleb128 0x1a
 4040 13e7 060F0000 		.4byte	.LASF336
 4041 13eb 1420     		.2byte	0x2014
 4042 13ed 1A       		.uleb128 0x1a
 4043 13ee A6100000 		.4byte	.LASF337
 4044 13f2 1520     		.2byte	0x2015
 4045 13f4 1A       		.uleb128 0x1a
 4046 13f5 CD150000 		.4byte	.LASF338
 4047 13f9 1620     		.2byte	0x2016
 4048 13fb 1A       		.uleb128 0x1a
 4049 13fc 5A070000 		.4byte	.LASF339
 4050 1400 1720     		.2byte	0x2017
 4051 1402 1A       		.uleb128 0x1a
 4052 1403 E0030000 		.4byte	.LASF340
 4053 1407 0030     		.2byte	0x3000
 4054 1409 1A       		.uleb128 0x1a
 4055 140a 21010000 		.4byte	.LASF341
 4056 140e 0130     		.2byte	0x3001
 4057 1410 1A       		.uleb128 0x1a
 4058 1411 A4000000 		.4byte	.LASF342
 4059 1415 0230     		.2byte	0x3002
 4060 1417 1A       		.uleb128 0x1a
 4061 1418 91250000 		.4byte	.LASF343
 4062 141c 0330     		.2byte	0x3003
 4063 141e 1A       		.uleb128 0x1a
 4064 141f 89100000 		.4byte	.LASF344
 4065 1423 0430     		.2byte	0x3004
 4066 1425 1A       		.uleb128 0x1a
 4067 1426 5E230000 		.4byte	.LASF345
 4068 142a 0530     		.2byte	0x3005
 4069 142c 1A       		.uleb128 0x1a
 4070 142d 66280000 		.4byte	.LASF346
 4071 1431 0630     		.2byte	0x3006
 4072 1433 1A       		.uleb128 0x1a
 4073 1434 D3010000 		.4byte	.LASF347
 4074 1438 0730     		.2byte	0x3007
 4075 143a 1A       		.uleb128 0x1a
 4076 143b 61010000 		.4byte	.LASF348
 4077 143f 0830     		.2byte	0x3008
 4078 1441 1A       		.uleb128 0x1a
 4079 1442 AA130000 		.4byte	.LASF349
 4080 1446 0930     		.2byte	0x3009
 4081 1448 1A       		.uleb128 0x1a
 4082 1449 B5250000 		.4byte	.LASF350
 4083 144d 0A30     		.2byte	0x300a
 4084 144f 1A       		.uleb128 0x1a
 4085 1450 E21D0000 		.4byte	.LASF351
 4086 1454 0B30     		.2byte	0x300b
 4087 1456 1A       		.uleb128 0x1a
 4088 1457 730C0000 		.4byte	.LASF352
 4089 145b 0C30     		.2byte	0x300c
ARM GAS  C:\Users\xhuli\AppData\Local\Temp\ccrNCJrA.s 			page 117


 4090 145d 1A       		.uleb128 0x1a
 4091 145e 3A130000 		.4byte	.LASF353
 4092 1462 1130     		.2byte	0x3011
 4093 1464 1A       		.uleb128 0x1a
 4094 1465 2D230000 		.4byte	.LASF354
 4095 1469 1230     		.2byte	0x3012
 4096 146b 1A       		.uleb128 0x1a
 4097 146c 45270000 		.4byte	.LASF355
 4098 1470 1330     		.2byte	0x3013
 4099 1472 1A       		.uleb128 0x1a
 4100 1473 1A240000 		.4byte	.LASF356
 4101 1477 1430     		.2byte	0x3014
 4102 1479 1A       		.uleb128 0x1a
 4103 147a 34250000 		.4byte	.LASF357
 4104 147e 1530     		.2byte	0x3015
 4105 1480 1A       		.uleb128 0x1a
 4106 1481 6E060000 		.4byte	.LASF358
 4107 1485 1630     		.2byte	0x3016
 4108 1487 1A       		.uleb128 0x1a
 4109 1488 4A1B0000 		.4byte	.LASF359
 4110 148c 1730     		.2byte	0x3017
 4111 148e 1A       		.uleb128 0x1a
 4112 148f C20E0000 		.4byte	.LASF360
 4113 1493 1830     		.2byte	0x3018
 4114 1495 1A       		.uleb128 0x1a
 4115 1496 421A0000 		.4byte	.LASF361
 4116 149a 1930     		.2byte	0x3019
 4117 149c 1A       		.uleb128 0x1a
 4118 149d F30C0000 		.4byte	.LASF362
 4119 14a1 0040     		.2byte	0x4000
 4120 14a3 1A       		.uleb128 0x1a
 4121 14a4 29170000 		.4byte	.LASF363
 4122 14a8 0140     		.2byte	0x4001
 4123 14aa 1A       		.uleb128 0x1a
 4124 14ab 0B0B0000 		.4byte	.LASF364
 4125 14af 0240     		.2byte	0x4002
 4126 14b1 1A       		.uleb128 0x1a
 4127 14b2 521D0000 		.4byte	.LASF365
 4128 14b6 0340     		.2byte	0x4003
 4129 14b8 1A       		.uleb128 0x1a
 4130 14b9 AF1B0000 		.4byte	.LASF366
 4131 14bd 0440     		.2byte	0x4004
 4132 14bf 1A       		.uleb128 0x1a
 4133 14c0 3C050000 		.4byte	.LASF367
 4134 14c4 0540     		.2byte	0x4005
 4135 14c6 1A       		.uleb128 0x1a
 4136 14c7 1C220000 		.4byte	.LASF368
 4137 14cb 0640     		.2byte	0x4006
 4138 14cd 1A       		.uleb128 0x1a
 4139 14ce FA230000 		.4byte	.LASF369
 4140 14d2 0740     		.2byte	0x4007
 4141 14d4 1A       		.uleb128 0x1a
 4142 14d5 11270000 		.4byte	.LASF370
 4143 14d9 0840     		.2byte	0x4008
 4144 14db 1A       		.uleb128 0x1a
 4145 14dc 8A070000 		.4byte	.LASF371
 4146 14e0 0940     		.2byte	0x4009
ARM GAS  C:\Users\xhuli\AppData\Local\Temp\ccrNCJrA.s 			page 118


 4147 14e2 1A       		.uleb128 0x1a
 4148 14e3 091D0000 		.4byte	.LASF372
 4149 14e7 0A40     		.2byte	0x400a
 4150 14e9 1A       		.uleb128 0x1a
 4151 14ea 5B110000 		.4byte	.LASF373
 4152 14ee 0B40     		.2byte	0x400b
 4153 14f0 1A       		.uleb128 0x1a
 4154 14f1 71290000 		.4byte	.LASF374
 4155 14f5 0C40     		.2byte	0x400c
 4156 14f7 1A       		.uleb128 0x1a
 4157 14f8 D9260000 		.4byte	.LASF375
 4158 14fc 0D40     		.2byte	0x400d
 4159 14fe 1A       		.uleb128 0x1a
 4160 14ff DF180000 		.4byte	.LASF376
 4161 1503 0E40     		.2byte	0x400e
 4162 1505 1A       		.uleb128 0x1a
 4163 1506 980E0000 		.4byte	.LASF377
 4164 150a 0F40     		.2byte	0x400f
 4165 150c 1A       		.uleb128 0x1a
 4166 150d 180D0000 		.4byte	.LASF378
 4167 1511 1040     		.2byte	0x4010
 4168 1513 1A       		.uleb128 0x1a
 4169 1514 05090000 		.4byte	.LASF379
 4170 1518 1140     		.2byte	0x4011
 4171 151a 1A       		.uleb128 0x1a
 4172 151b 4F200000 		.4byte	.LASF380
 4173 151f 1240     		.2byte	0x4012
 4174 1521 1A       		.uleb128 0x1a
 4175 1522 950A0000 		.4byte	.LASF381
 4176 1526 1340     		.2byte	0x4013
 4177 1528 1A       		.uleb128 0x1a
 4178 1529 D4290000 		.4byte	.LASF382
 4179 152d 1440     		.2byte	0x4014
 4180 152f 1A       		.uleb128 0x1a
 4181 1530 131E0000 		.4byte	.LASF383
 4182 1534 1540     		.2byte	0x4015
 4183 1536 1A       		.uleb128 0x1a
 4184 1537 82040000 		.4byte	.LASF384
 4185 153b 1640     		.2byte	0x4016
 4186 153d 1A       		.uleb128 0x1a
 4187 153e A8070000 		.4byte	.LASF385
 4188 1542 1740     		.2byte	0x4017
 4189 1544 1A       		.uleb128 0x1a
 4190 1545 10170000 		.4byte	.LASF386
 4191 1549 1840     		.2byte	0x4018
 4192 154b 1A       		.uleb128 0x1a
 4193 154c 79270000 		.4byte	.LASF387
 4194 1550 1940     		.2byte	0x4019
 4195 1552 1A       		.uleb128 0x1a
 4196 1553 C0030000 		.4byte	.LASF388
 4197 1557 1A40     		.2byte	0x401a
 4198 1559 1A       		.uleb128 0x1a
 4199 155a 970F0000 		.4byte	.LASF389
 4200 155e 0050     		.2byte	0x5000
 4201 1560 1A       		.uleb128 0x1a
 4202 1561 88190000 		.4byte	.LASF390
 4203 1565 0150     		.2byte	0x5001
ARM GAS  C:\Users\xhuli\AppData\Local\Temp\ccrNCJrA.s 			page 119


 4204 1567 1A       		.uleb128 0x1a
 4205 1568 71120000 		.4byte	.LASF391
 4206 156c 0250     		.2byte	0x5002
 4207 156e 1A       		.uleb128 0x1a
 4208 156f 37060000 		.4byte	.LASF392
 4209 1573 0350     		.2byte	0x5003
 4210 1575 1A       		.uleb128 0x1a
 4211 1576 3A1E0000 		.4byte	.LASF393
 4212 157a 0450     		.2byte	0x5004
 4213 157c 1A       		.uleb128 0x1a
 4214 157d 17110000 		.4byte	.LASF394
 4215 1581 0550     		.2byte	0x5005
 4216 1583 1A       		.uleb128 0x1a
 4217 1584 1F000000 		.4byte	.LASF395
 4218 1588 0650     		.2byte	0x5006
 4219 158a 1A       		.uleb128 0x1a
 4220 158b EC0A0000 		.4byte	.LASF396
 4221 158f 0750     		.2byte	0x5007
 4222 1591 1A       		.uleb128 0x1a
 4223 1592 CE120000 		.4byte	.LASF397
 4224 1596 0850     		.2byte	0x5008
 4225 1598 1A       		.uleb128 0x1a
 4226 1599 13130000 		.4byte	.LASF398
 4227 159d 0950     		.2byte	0x5009
 4228 159f 1A       		.uleb128 0x1a
 4229 15a0 FF200000 		.4byte	.LASF399
 4230 15a4 0A50     		.2byte	0x500a
 4231 15a6 1A       		.uleb128 0x1a
 4232 15a7 A0030000 		.4byte	.LASF400
 4233 15ab 0B50     		.2byte	0x500b
 4234 15ad 1A       		.uleb128 0x1a
 4235 15ae B5060000 		.4byte	.LASF401
 4236 15b2 0C50     		.2byte	0x500c
 4237 15b4 1A       		.uleb128 0x1a
 4238 15b5 070E0000 		.4byte	.LASF402
 4239 15b9 0D50     		.2byte	0x500d
 4240 15bb 1A       		.uleb128 0x1a
 4241 15bc DC1A0000 		.4byte	.LASF403
 4242 15c0 0E50     		.2byte	0x500e
 4243 15c2 1A       		.uleb128 0x1a
 4244 15c3 B20F0000 		.4byte	.LASF404
 4245 15c7 0F50     		.2byte	0x500f
 4246 15c9 1A       		.uleb128 0x1a
 4247 15ca 0B140000 		.4byte	.LASF405
 4248 15ce 1050     		.2byte	0x5010
 4249 15d0 1A       		.uleb128 0x1a
 4250 15d1 3C040000 		.4byte	.LASF406
 4251 15d5 1150     		.2byte	0x5011
 4252 15d7 1A       		.uleb128 0x1a
 4253 15d8 760E0000 		.4byte	.LASF407
 4254 15dc 1250     		.2byte	0x5012
 4255 15de 1A       		.uleb128 0x1a
 4256 15df C1050000 		.4byte	.LASF408
 4257 15e3 1350     		.2byte	0x5013
 4258 15e5 1A       		.uleb128 0x1a
 4259 15e6 D0090000 		.4byte	.LASF409
 4260 15ea 1450     		.2byte	0x5014
ARM GAS  C:\Users\xhuli\AppData\Local\Temp\ccrNCJrA.s 			page 120


 4261 15ec 1A       		.uleb128 0x1a
 4262 15ed 7F000000 		.4byte	.LASF410
 4263 15f1 1550     		.2byte	0x5015
 4264 15f3 1A       		.uleb128 0x1a
 4265 15f4 030C0000 		.4byte	.LASF411
 4266 15f8 1650     		.2byte	0x5016
 4267 15fa 1A       		.uleb128 0x1a
 4268 15fb 74210000 		.4byte	.LASF412
 4269 15ff 1750     		.2byte	0x5017
 4270 1601 1A       		.uleb128 0x1a
 4271 1602 B2040000 		.4byte	.LASF413
 4272 1606 1850     		.2byte	0x5018
 4273 1608 1A       		.uleb128 0x1a
 4274 1609 4D0D0000 		.4byte	.LASF414
 4275 160d 0060     		.2byte	0x6000
 4276 160f 1A       		.uleb128 0x1a
 4277 1610 A9200000 		.4byte	.LASF415
 4278 1614 0160     		.2byte	0x6001
 4279 1616 1A       		.uleb128 0x1a
 4280 1617 3D120000 		.4byte	.LASF416
 4281 161b 0260     		.2byte	0x6002
 4282 161d 1A       		.uleb128 0x1a
 4283 161e 58100000 		.4byte	.LASF417
 4284 1622 0360     		.2byte	0x6003
 4285 1624 1A       		.uleb128 0x1a
 4286 1625 E5040000 		.4byte	.LASF418
 4287 1629 0460     		.2byte	0x6004
 4288 162b 1A       		.uleb128 0x1a
 4289 162c B1080000 		.4byte	.LASF419
 4290 1630 0560     		.2byte	0x6005
 4291 1632 1A       		.uleb128 0x1a
 4292 1633 52150000 		.4byte	.LASF420
 4293 1637 0660     		.2byte	0x6006
 4294 1639 1A       		.uleb128 0x1a
 4295 163a 22160000 		.4byte	.LASF421
 4296 163e 0760     		.2byte	0x6007
 4297 1640 1A       		.uleb128 0x1a
 4298 1641 AC090000 		.4byte	.LASF422
 4299 1645 0860     		.2byte	0x6008
 4300 1647 1A       		.uleb128 0x1a
 4301 1648 F30F0000 		.4byte	.LASF423
 4302 164c 0960     		.2byte	0x6009
 4303 164e 1A       		.uleb128 0x1a
 4304 164f 741F0000 		.4byte	.LASF424
 4305 1653 0A60     		.2byte	0x600a
 4306 1655 1A       		.uleb128 0x1a
 4307 1656 ED020000 		.4byte	.LASF425
 4308 165a FFFF     		.2byte	0xffff
 4309 165c 00       		.byte	0
 4310 165d 13       		.uleb128 0x13
 4311 165e 02       		.byte	0x2
 4312 165f 10       		.byte	0x10
 4313 1660 6401     		.2byte	0x164
 4314 1662 81160000 		.4byte	0x1681
 4315 1666 14       		.uleb128 0x14
 4316 1667 04050000 		.4byte	.LASF426
 4317 166b 10       		.byte	0x10
ARM GAS  C:\Users\xhuli\AppData\Local\Temp\ccrNCJrA.s 			page 121


 4318 166c 6E01     		.2byte	0x16e
 4319 166e A9000000 		.4byte	0xa9
 4320 1672 00       		.byte	0
 4321 1673 14       		.uleb128 0x14
 4322 1674 19280000 		.4byte	.LASF427
 4323 1678 10       		.byte	0x10
 4324 1679 7201     		.2byte	0x172
 4325 167b A9000000 		.4byte	0xa9
 4326 167f 01       		.byte	0x1
 4327 1680 00       		.byte	0
 4328 1681 0F       		.uleb128 0xf
 4329 1682 03220000 		.4byte	.LASF428
 4330 1686 10       		.byte	0x10
 4331 1687 7401     		.2byte	0x174
 4332 1689 5D160000 		.4byte	0x165d
 4333 168d 0F       		.uleb128 0xf
 4334 168e 51090000 		.4byte	.LASF429
 4335 1692 11       		.byte	0x11
 4336 1693 7F01     		.2byte	0x17f
 4337 1695 BF000000 		.4byte	0xbf
 4338 1699 13       		.uleb128 0x13
 4339 169a 08       		.byte	0x8
 4340 169b 11       		.byte	0x11
 4341 169c 9401     		.2byte	0x194
 4342 169e CA160000 		.4byte	0x16ca
 4343 16a2 1B       		.uleb128 0x1b
 4344 16a3 76616C00 		.ascii	"val\000"
 4345 16a7 11       		.byte	0x11
 4346 16a8 9701     		.2byte	0x197
 4347 16aa 2A120000 		.4byte	0x122a
 4348 16ae 00       		.byte	0
 4349 16af 1B       		.uleb128 0x1b
 4350 16b0 6C656E00 		.ascii	"len\000"
 4351 16b4 11       		.byte	0x11
 4352 16b5 9A01     		.2byte	0x19a
 4353 16b7 BF000000 		.4byte	0xbf
 4354 16bb 04       		.byte	0x4
 4355 16bc 14       		.uleb128 0x14
 4356 16bd B5270000 		.4byte	.LASF430
 4357 16c1 11       		.byte	0x11
 4358 16c2 A101     		.2byte	0x1a1
 4359 16c4 BF000000 		.4byte	0xbf
 4360 16c8 06       		.byte	0x6
 4361 16c9 00       		.byte	0
 4362 16ca 0F       		.uleb128 0xf
 4363 16cb 14070000 		.4byte	.LASF431
 4364 16cf 11       		.byte	0x11
 4365 16d0 A301     		.2byte	0x1a3
 4366 16d2 99160000 		.4byte	0x1699
 4367 16d6 13       		.uleb128 0x13
 4368 16d7 0C       		.byte	0xc
 4369 16d8 11       		.byte	0x11
 4370 16d9 A601     		.2byte	0x1a6
 4371 16db FA160000 		.4byte	0x16fa
 4372 16df 14       		.uleb128 0x14
 4373 16e0 9F0B0000 		.4byte	.LASF432
 4374 16e4 11       		.byte	0x11
ARM GAS  C:\Users\xhuli\AppData\Local\Temp\ccrNCJrA.s 			page 122


 4375 16e5 A901     		.2byte	0x1a9
 4376 16e7 CA160000 		.4byte	0x16ca
 4377 16eb 00       		.byte	0
 4378 16ec 14       		.uleb128 0x14
 4379 16ed 67170000 		.4byte	.LASF433
 4380 16f1 11       		.byte	0x11
 4381 16f2 AC01     		.2byte	0x1ac
 4382 16f4 8D160000 		.4byte	0x168d
 4383 16f8 08       		.byte	0x8
 4384 16f9 00       		.byte	0
 4385 16fa 0F       		.uleb128 0xf
 4386 16fb 27210000 		.4byte	.LASF434
 4387 16ff 11       		.byte	0x11
 4388 1700 AE01     		.2byte	0x1ae
 4389 1702 D6160000 		.4byte	0x16d6
 4390 1706 13       		.uleb128 0x13
 4391 1707 10       		.byte	0x10
 4392 1708 11       		.byte	0x11
 4393 1709 D201     		.2byte	0x1d2
 4394 170b 2A170000 		.4byte	0x172a
 4395 170f 14       		.uleb128 0x14
 4396 1710 50230000 		.4byte	.LASF435
 4397 1714 11       		.byte	0x11
 4398 1715 D501     		.2byte	0x1d5
 4399 1717 FA160000 		.4byte	0x16fa
 4400 171b 00       		.byte	0
 4401 171c 14       		.uleb128 0x14
 4402 171d 9F130000 		.4byte	.LASF436
 4403 1721 11       		.byte	0x11
 4404 1722 D801     		.2byte	0x1d8
 4405 1724 81160000 		.4byte	0x1681
 4406 1728 0C       		.byte	0xc
 4407 1729 00       		.byte	0
 4408 172a 0F       		.uleb128 0xf
 4409 172b 42160000 		.4byte	.LASF437
 4410 172f 11       		.byte	0x11
 4411 1730 DA01     		.2byte	0x1da
 4412 1732 06170000 		.4byte	0x1706
 4413 1736 1C       		.uleb128 0x1c
 4414 1737 01       		.byte	0x1
 4415 1738 45000000 		.4byte	0x45
 4416 173c 12       		.byte	0x12
 4417 173d 69       		.byte	0x69
 4418 173e 55170000 		.4byte	0x1755
 4419 1742 12       		.uleb128 0x12
 4420 1743 3D150000 		.4byte	.LASF438
 4421 1747 00       		.byte	0
 4422 1748 12       		.uleb128 0x12
 4423 1749 740D0000 		.4byte	.LASF439
 4424 174d 01       		.byte	0x1
 4425 174e 12       		.uleb128 0x12
 4426 174f 72040000 		.4byte	.LASF440
 4427 1753 02       		.byte	0x2
 4428 1754 00       		.byte	0
 4429 1755 03       		.uleb128 0x3
 4430 1756 79020000 		.4byte	.LASF441
 4431 175a 12       		.byte	0x12
ARM GAS  C:\Users\xhuli\AppData\Local\Temp\ccrNCJrA.s 			page 123


 4432 175b 70       		.byte	0x70
 4433 175c 36170000 		.4byte	0x1736
 4434 1760 1C       		.uleb128 0x1c
 4435 1761 01       		.byte	0x1
 4436 1762 45000000 		.4byte	0x45
 4437 1766 12       		.byte	0x12
 4438 1767 7E       		.byte	0x7e
 4439 1768 85170000 		.4byte	0x1785
 4440 176c 12       		.uleb128 0x12
 4441 176d CB190000 		.4byte	.LASF442
 4442 1771 00       		.byte	0
 4443 1772 12       		.uleb128 0x12
 4444 1773 2A080000 		.4byte	.LASF443
 4445 1777 01       		.byte	0x1
 4446 1778 12       		.uleb128 0x12
 4447 1779 2D020000 		.4byte	.LASF444
 4448 177d 02       		.byte	0x2
 4449 177e 12       		.uleb128 0x12
 4450 177f 2F1F0000 		.4byte	.LASF445
 4451 1783 03       		.byte	0x3
 4452 1784 00       		.byte	0
 4453 1785 03       		.uleb128 0x3
 4454 1786 141A0000 		.4byte	.LASF446
 4455 178a 12       		.byte	0x12
 4456 178b 83       		.byte	0x83
 4457 178c 60170000 		.4byte	0x1760
 4458 1790 1C       		.uleb128 0x1c
 4459 1791 01       		.byte	0x1
 4460 1792 45000000 		.4byte	0x45
 4461 1796 12       		.byte	0x12
 4462 1797 87       		.byte	0x87
 4463 1798 CD170000 		.4byte	0x17cd
 4464 179c 12       		.uleb128 0x12
 4465 179d A0180000 		.4byte	.LASF447
 4466 17a1 00       		.byte	0
 4467 17a2 12       		.uleb128 0x12
 4468 17a3 84170000 		.4byte	.LASF448
 4469 17a7 01       		.byte	0x1
 4470 17a8 12       		.uleb128 0x12
 4471 17a9 6C220000 		.4byte	.LASF449
 4472 17ad 02       		.byte	0x2
 4473 17ae 12       		.uleb128 0x12
 4474 17af 75130000 		.4byte	.LASF450
 4475 17b3 03       		.byte	0x3
 4476 17b4 12       		.uleb128 0x12
 4477 17b5 5E190000 		.4byte	.LASF451
 4478 17b9 04       		.byte	0x4
 4479 17ba 12       		.uleb128 0x12
 4480 17bb BD0A0000 		.4byte	.LASF452
 4481 17bf 05       		.byte	0x5
 4482 17c0 12       		.uleb128 0x12
 4483 17c1 F6010000 		.4byte	.LASF453
 4484 17c5 06       		.byte	0x6
 4485 17c6 12       		.uleb128 0x12
 4486 17c7 91060000 		.4byte	.LASF454
 4487 17cb 07       		.byte	0x7
 4488 17cc 00       		.byte	0
ARM GAS  C:\Users\xhuli\AppData\Local\Temp\ccrNCJrA.s 			page 124


 4489 17cd 03       		.uleb128 0x3
 4490 17ce DC1E0000 		.4byte	.LASF455
 4491 17d2 12       		.byte	0x12
 4492 17d3 90       		.byte	0x90
 4493 17d4 90170000 		.4byte	0x1790
 4494 17d8 03       		.uleb128 0x3
 4495 17d9 231B0000 		.4byte	.LASF456
 4496 17dd 13       		.byte	0x13
 4497 17de 74       		.byte	0x74
 4498 17df 2A170000 		.4byte	0x172a
 4499 17e3 09       		.uleb128 0x9
 4500 17e4 14       		.byte	0x14
 4501 17e5 02       		.byte	0x2
 4502 17e6 3B       		.byte	0x3b
 4503 17e7 28180000 		.4byte	0x1828
 4504 17eb 0B       		.uleb128 0xb
 4505 17ec D3080000 		.4byte	.LASF457
 4506 17f0 02       		.byte	0x2
 4507 17f1 3D       		.byte	0x3d
 4508 17f2 D5000000 		.4byte	0xd5
 4509 17f6 00       		.byte	0
 4510 17f7 0B       		.uleb128 0xb
 4511 17f8 21020000 		.4byte	.LASF458
 4512 17fc 02       		.byte	0x2
 4513 17fd 3E       		.byte	0x3e
 4514 17fe D5000000 		.4byte	0xd5
 4515 1802 04       		.byte	0x4
 4516 1803 0B       		.uleb128 0xb
 4517 1804 D20F0000 		.4byte	.LASF459
 4518 1808 02       		.byte	0x2
 4519 1809 3F       		.byte	0x3f
 4520 180a 28180000 		.4byte	0x1828
 4521 180e 08       		.byte	0x8
 4522 180f 0B       		.uleb128 0xb
 4523 1810 441C0000 		.4byte	.LASF460
 4524 1814 02       		.byte	0x2
 4525 1815 40       		.byte	0x40
 4526 1816 D5000000 		.4byte	0xd5
 4527 181a 0C       		.byte	0xc
 4528 181b 0B       		.uleb128 0xb
 4529 181c B9120000 		.4byte	.LASF461
 4530 1820 02       		.byte	0x2
 4531 1821 45       		.byte	0x45
 4532 1822 D5000000 		.4byte	0xd5
 4533 1826 10       		.byte	0x10
 4534 1827 00       		.byte	0
 4535 1828 15       		.uleb128 0x15
 4536 1829 04       		.byte	0x4
 4537 182a 2E180000 		.4byte	0x182e
 4538 182e 06       		.uleb128 0x6
 4539 182f 81100000 		.4byte	0x1081
 4540 1833 03       		.uleb128 0x3
 4541 1834 1A250000 		.4byte	.LASF462
 4542 1838 02       		.byte	0x2
 4543 1839 48       		.byte	0x48
 4544 183a E3170000 		.4byte	0x17e3
 4545 183e 03       		.uleb128 0x3
ARM GAS  C:\Users\xhuli\AppData\Local\Temp\ccrNCJrA.s 			page 125


 4546 183f A5020000 		.4byte	.LASF463
 4547 1843 14       		.byte	0x14
 4548 1844 38       		.byte	0x38
 4549 1845 74000000 		.4byte	0x74
 4550 1849 03       		.uleb128 0x3
 4551 184a 691F0000 		.4byte	.LASF464
 4552 184e 14       		.byte	0x14
 4553 184f 3F       		.byte	0x3f
 4554 1850 D5000000 		.4byte	0xd5
 4555 1854 03       		.uleb128 0x3
 4556 1855 EB080000 		.4byte	.LASF465
 4557 1859 15       		.byte	0x15
 4558 185a 2E       		.byte	0x2e
 4559 185b 690F0000 		.4byte	0xf69
 4560 185f 03       		.uleb128 0x3
 4561 1860 BB0C0000 		.4byte	.LASF466
 4562 1864 16       		.byte	0x16
 4563 1865 25       		.byte	0x25
 4564 1866 54180000 		.4byte	0x1854
 4565 186a 03       		.uleb128 0x3
 4566 186b 9B0D0000 		.4byte	.LASF467
 4567 186f 17       		.byte	0x17
 4568 1870 6C       		.byte	0x6c
 4569 1871 A2000000 		.4byte	0xa2
 4570 1875 1D       		.uleb128 0x1d
 4571 1876 FA0E0000 		.4byte	.LASF470
 4572 187a 03       		.byte	0x3
 4573 187b 6403     		.2byte	0x364
 4574 187d 03       		.byte	0x3
 4575 187e 9B180000 		.4byte	0x189b
 4576 1882 1E       		.uleb128 0x1e
 4577 1883 0C270000 		.4byte	.LASF468
 4578 1887 03       		.byte	0x3
 4579 1888 6403     		.2byte	0x364
 4580 188a 9B180000 		.4byte	0x189b
 4581 188e 1E       		.uleb128 0x1e
 4582 188f 8E240000 		.4byte	.LASF469
 4583 1893 03       		.byte	0x3
 4584 1894 6403     		.2byte	0x364
 4585 1896 D5000000 		.4byte	0xd5
 4586 189a 00       		.byte	0
 4587 189b 15       		.uleb128 0x15
 4588 189c 04       		.byte	0x4
 4589 189d FC0A0000 		.4byte	0xafc
 4590 18a1 1D       		.uleb128 0x1d
 4591 18a2 85260000 		.4byte	.LASF471
 4592 18a6 03       		.byte	0x3
 4593 18a7 7F03     		.2byte	0x37f
 4594 18a9 03       		.byte	0x3
 4595 18aa C7180000 		.4byte	0x18c7
 4596 18ae 1E       		.uleb128 0x1e
 4597 18af 0C270000 		.4byte	.LASF468
 4598 18b3 03       		.byte	0x3
 4599 18b4 7F03     		.2byte	0x37f
 4600 18b6 9B180000 		.4byte	0x189b
 4601 18ba 1E       		.uleb128 0x1e
 4602 18bb 8E240000 		.4byte	.LASF469
ARM GAS  C:\Users\xhuli\AppData\Local\Temp\ccrNCJrA.s 			page 126


 4603 18bf 03       		.byte	0x3
 4604 18c0 7F03     		.2byte	0x37f
 4605 18c2 D5000000 		.4byte	0xd5
 4606 18c6 00       		.byte	0
 4607 18c7 1D       		.uleb128 0x1d
 4608 18c8 B2280000 		.4byte	.LASF472
 4609 18cc 03       		.byte	0x3
 4610 18cd 2503     		.2byte	0x325
 4611 18cf 03       		.byte	0x3
 4612 18d0 F9180000 		.4byte	0x18f9
 4613 18d4 1E       		.uleb128 0x1e
 4614 18d5 0C270000 		.4byte	.LASF468
 4615 18d9 03       		.byte	0x3
 4616 18da 2503     		.2byte	0x325
 4617 18dc 9B180000 		.4byte	0x189b
 4618 18e0 1E       		.uleb128 0x1e
 4619 18e1 8E240000 		.4byte	.LASF469
 4620 18e5 03       		.byte	0x3
 4621 18e6 2503     		.2byte	0x325
 4622 18e8 D5000000 		.4byte	0xd5
 4623 18ec 1E       		.uleb128 0x1e
 4624 18ed 9F0B0000 		.4byte	.LASF432
 4625 18f1 03       		.byte	0x3
 4626 18f2 2503     		.2byte	0x325
 4627 18f4 D5000000 		.4byte	0xd5
 4628 18f8 00       		.byte	0
 4629 18f9 1F       		.uleb128 0x1f
 4630 18fa 4B190000 		.4byte	.LASF474
 4631 18fe 01       		.byte	0x1
 4632 18ff 7001     		.2byte	0x170
 4633 1901 00000000 		.4byte	.LFB597
 4634 1905 38000000 		.4byte	.LFE597-.LFB597
 4635 1909 01       		.uleb128 0x1
 4636 190a 9C       		.byte	0x9c
 4637 190b 2F190000 		.4byte	0x192f
 4638 190f 20       		.uleb128 0x20
 4639 1910 41280000 		.4byte	.LASF476
 4640 1914 01       		.byte	0x1
 4641 1915 7101     		.2byte	0x171
 4642 1917 3E180000 		.4byte	0x183e
 4643 191b 02       		.uleb128 0x2
 4644 191c 91       		.byte	0x91
 4645 191d 74       		.sleb128 -12
 4646 191e 21       		.uleb128 0x21
 4647 191f 14000000 		.4byte	.LVL0
 4648 1923 D6260000 		.4byte	0x26d6
 4649 1927 22       		.uleb128 0x22
 4650 1928 01       		.uleb128 0x1
 4651 1929 51       		.byte	0x51
 4652 192a 02       		.uleb128 0x2
 4653 192b 91       		.byte	0x91
 4654 192c 74       		.sleb128 -12
 4655 192d 00       		.byte	0
 4656 192e 00       		.byte	0
 4657 192f 23       		.uleb128 0x23
 4658 1930 12060000 		.4byte	.LASF567
 4659 1934 02       		.byte	0x2
ARM GAS  C:\Users\xhuli\AppData\Local\Temp\ccrNCJrA.s 			page 127


 4660 1935 D503     		.2byte	0x3d5
 4661 1937 B4000000 		.4byte	0xb4
 4662 193b 03       		.byte	0x3
 4663 193c 4D190000 		.4byte	0x194d
 4664 1940 1E       		.uleb128 0x1e
 4665 1941 A50B0000 		.4byte	.LASF473
 4666 1945 02       		.byte	0x2
 4667 1946 D503     		.2byte	0x3d5
 4668 1948 D5000000 		.4byte	0xd5
 4669 194c 00       		.byte	0
 4670 194d 24       		.uleb128 0x24
 4671 194e A3280000 		.4byte	.LASF475
 4672 1952 01       		.byte	0x1
 4673 1953 27       		.byte	0x27
 4674 1954 00000000 		.4byte	.LFB586
 4675 1958 74000000 		.4byte	.LFE586-.LFB586
 4676 195c 01       		.uleb128 0x1
 4677 195d 9C       		.byte	0x9c
 4678 195e F3190000 		.4byte	0x19f3
 4679 1962 25       		.uleb128 0x25
 4680 1963 08000000 		.4byte	.LBB28
 4681 1967 50000000 		.4byte	.LBE28-.LBB28
 4682 196b DF190000 		.4byte	0x19df
 4683 196f 26       		.uleb128 0x26
 4684 1970 6900     		.ascii	"i\000"
 4685 1972 01       		.byte	0x1
 4686 1973 29       		.byte	0x29
 4687 1974 9B000000 		.4byte	0x9b
 4688 1978 00000000 		.4byte	.LLST0
 4689 197c 27       		.uleb128 0x27
 4690 197d 2F190000 		.4byte	0x192f
 4691 1981 16000000 		.4byte	.LBB29
 4692 1985 24000000 		.4byte	.LBE29-.LBB29
 4693 1989 01       		.byte	0x1
 4694 198a 2B       		.byte	0x2b
 4695 198b CF190000 		.4byte	0x19cf
 4696 198f 28       		.uleb128 0x28
 4697 1990 40190000 		.4byte	0x1940
 4698 1994 1F000000 		.4byte	.LLST1
 4699 1998 29       		.uleb128 0x29
 4700 1999 32000000 		.4byte	.LVL4
 4701 199d E2260000 		.4byte	0x26e2
 4702 19a1 B6190000 		.4byte	0x19b6
 4703 19a5 22       		.uleb128 0x22
 4704 19a6 01       		.uleb128 0x1
 4705 19a7 50       		.byte	0x50
 4706 19a8 05       		.uleb128 0x5
 4707 19a9 03       		.byte	0x3
 4708 19aa 20000000 		.4byte	.LC1
 4709 19ae 22       		.uleb128 0x22
 4710 19af 01       		.uleb128 0x1
 4711 19b0 51       		.byte	0x51
 4712 19b1 03       		.uleb128 0x3
 4713 19b2 0A       		.byte	0xa
 4714 19b3 D803     		.2byte	0x3d8
 4715 19b5 00       		.byte	0
 4716 19b6 21       		.uleb128 0x21
ARM GAS  C:\Users\xhuli\AppData\Local\Temp\ccrNCJrA.s 			page 128


 4717 19b7 3A000000 		.4byte	.LVL5
 4718 19bb EE260000 		.4byte	0x26ee
 4719 19bf 22       		.uleb128 0x22
 4720 19c0 01       		.uleb128 0x1
 4721 19c1 50       		.byte	0x50
 4722 19c2 05       		.uleb128 0x5
 4723 19c3 0C       		.byte	0xc
 4724 19c4 00001D41 		.4byte	0x411d0000
 4725 19c8 22       		.uleb128 0x22
 4726 19c9 01       		.uleb128 0x1
 4727 19ca 51       		.byte	0x51
 4728 19cb 01       		.uleb128 0x1
 4729 19cc 30       		.byte	0x30
 4730 19cd 00       		.byte	0
 4731 19ce 00       		.byte	0
 4732 19cf 21       		.uleb128 0x21
 4733 19d0 52000000 		.4byte	.LVL6
 4734 19d4 FA260000 		.4byte	0x26fa
 4735 19d8 22       		.uleb128 0x22
 4736 19d9 01       		.uleb128 0x1
 4737 19da 50       		.byte	0x50
 4738 19db 01       		.uleb128 0x1
 4739 19dc 3A       		.byte	0x3a
 4740 19dd 00       		.byte	0
 4741 19de 00       		.byte	0
 4742 19df 21       		.uleb128 0x21
 4743 19e0 08000000 		.4byte	.LVL1
 4744 19e4 06270000 		.4byte	0x2706
 4745 19e8 22       		.uleb128 0x22
 4746 19e9 01       		.uleb128 0x1
 4747 19ea 50       		.byte	0x50
 4748 19eb 05       		.uleb128 0x5
 4749 19ec 03       		.byte	0x3
 4750 19ed 00000000 		.4byte	.LC0
 4751 19f1 00       		.byte	0
 4752 19f2 00       		.byte	0
 4753 19f3 2A       		.uleb128 0x2a
 4754 19f4 C71E0000 		.4byte	.LASF478
 4755 19f8 01       		.byte	0x1
 4756 19f9 33       		.byte	0x33
 4757 19fa 25000000 		.4byte	0x25
 4758 19fe 00000000 		.4byte	.LFB587
 4759 1a02 30000000 		.4byte	.LFE587-.LFB587
 4760 1a06 01       		.uleb128 0x1
 4761 1a07 9C       		.byte	0x9c
 4762 1a08 541A0000 		.4byte	0x1a54
 4763 1a0c 2B       		.uleb128 0x2b
 4764 1a0d E1280000 		.4byte	.LASF477
 4765 1a11 01       		.byte	0x1
 4766 1a12 33       		.byte	0x33
 4767 1a13 541A0000 		.4byte	0x1a54
 4768 1a17 33000000 		.4byte	.LLST2
 4769 1a1b 2C       		.uleb128 0x2c
 4770 1a1c 6C656E00 		.ascii	"len\000"
 4771 1a20 01       		.byte	0x1
 4772 1a21 33       		.byte	0x33
 4773 1a22 9B000000 		.4byte	0x9b
ARM GAS  C:\Users\xhuli\AppData\Local\Temp\ccrNCJrA.s 			page 129


 4774 1a26 01       		.uleb128 0x1
 4775 1a27 51       		.byte	0x51
 4776 1a28 26       		.uleb128 0x26
 4777 1a29 73756D00 		.ascii	"sum\000"
 4778 1a2d 01       		.byte	0x1
 4779 1a2e 34       		.byte	0x34
 4780 1a2f 25000000 		.4byte	0x25
 4781 1a33 54000000 		.4byte	.LLST3
 4782 1a37 2D       		.uleb128 0x2d
 4783 1a38 C71E0000 		.4byte	.LASF478
 4784 1a3c 01       		.byte	0x1
 4785 1a3d 34       		.byte	0x34
 4786 1a3e 25000000 		.4byte	0x25
 4787 1a42 78000000 		.4byte	.LLST4
 4788 1a46 26       		.uleb128 0x26
 4789 1a47 6900     		.ascii	"i\000"
 4790 1a49 01       		.byte	0x1
 4791 1a4a 35       		.byte	0x35
 4792 1a4b 9B000000 		.4byte	0x9b
 4793 1a4f AE000000 		.4byte	.LLST5
 4794 1a53 00       		.byte	0
 4795 1a54 15       		.uleb128 0x15
 4796 1a55 04       		.byte	0x4
 4797 1a56 25000000 		.4byte	0x25
 4798 1a5a 2E       		.uleb128 0x2e
 4799 1a5b 5C080000 		.4byte	.LASF479
 4800 1a5f 01       		.byte	0x1
 4801 1a60 40       		.byte	0x40
 4802 1a61 25000000 		.4byte	0x25
 4803 1a65 00000000 		.4byte	.LFB588
 4804 1a69 7E000000 		.4byte	.LFE588-.LFB588
 4805 1a6d 01       		.uleb128 0x1
 4806 1a6e 9C       		.byte	0x9c
 4807 1a6f E91A0000 		.4byte	0x1ae9
 4808 1a73 2B       		.uleb128 0x2b
 4809 1a74 E1280000 		.4byte	.LASF477
 4810 1a78 01       		.byte	0x1
 4811 1a79 40       		.byte	0x40
 4812 1a7a 541A0000 		.4byte	0x1a54
 4813 1a7e CD000000 		.4byte	.LLST6
 4814 1a82 2F       		.uleb128 0x2f
 4815 1a83 6C656E00 		.ascii	"len\000"
 4816 1a87 01       		.byte	0x1
 4817 1a88 40       		.byte	0x40
 4818 1a89 9B000000 		.4byte	0x9b
 4819 1a8d EB000000 		.4byte	.LLST7
 4820 1a91 2D       		.uleb128 0x2d
 4821 1a92 6A0C0000 		.4byte	.LASF480
 4822 1a96 01       		.byte	0x1
 4823 1a97 41       		.byte	0x41
 4824 1a98 25000000 		.4byte	0x25
 4825 1a9c 09010000 		.4byte	.LLST8
 4826 1aa0 2D       		.uleb128 0x2d
 4827 1aa1 E4190000 		.4byte	.LASF481
 4828 1aa5 01       		.byte	0x1
 4829 1aa6 42       		.byte	0x42
 4830 1aa7 25000000 		.4byte	0x25
ARM GAS  C:\Users\xhuli\AppData\Local\Temp\ccrNCJrA.s 			page 130


 4831 1aab 28010000 		.4byte	.LLST9
 4832 1aaf 26       		.uleb128 0x26
 4833 1ab0 6900     		.ascii	"i\000"
 4834 1ab2 01       		.byte	0x1
 4835 1ab3 43       		.byte	0x43
 4836 1ab4 9B000000 		.4byte	0x9b
 4837 1ab8 61010000 		.4byte	.LLST10
 4838 1abc 29       		.uleb128 0x29
 4839 1abd 10000000 		.4byte	.LVL17
 4840 1ac1 F3190000 		.4byte	0x19f3
 4841 1ac5 D61A0000 		.4byte	0x1ad6
 4842 1ac9 22       		.uleb128 0x22
 4843 1aca 01       		.uleb128 0x1
 4844 1acb 50       		.byte	0x50
 4845 1acc 02       		.uleb128 0x2
 4846 1acd 79       		.byte	0x79
 4847 1ace 00       		.sleb128 0
 4848 1acf 22       		.uleb128 0x22
 4849 1ad0 01       		.uleb128 0x1
 4850 1ad1 51       		.byte	0x51
 4851 1ad2 02       		.uleb128 0x2
 4852 1ad3 78       		.byte	0x78
 4853 1ad4 00       		.sleb128 0
 4854 1ad5 00       		.byte	0
 4855 1ad6 30       		.uleb128 0x30
 4856 1ad7 38000000 		.4byte	.LVL21
 4857 1adb 15270000 		.4byte	0x2715
 4858 1adf 30       		.uleb128 0x30
 4859 1ae0 72000000 		.4byte	.LVL29
 4860 1ae4 20270000 		.4byte	0x2720
 4861 1ae8 00       		.byte	0
 4862 1ae9 31       		.uleb128 0x31
 4863 1aea C61A0000 		.4byte	.LASF482
 4864 1aee 01       		.byte	0x1
 4865 1aef 4D       		.byte	0x4d
 4866 1af0 00000000 		.4byte	.LFB589
 4867 1af4 58020000 		.4byte	.LFE589-.LFB589
 4868 1af8 01       		.uleb128 0x1
 4869 1af9 9C       		.byte	0x9c
 4870 1afa B31C0000 		.4byte	0x1cb3
 4871 1afe 2D       		.uleb128 0x2d
 4872 1aff 5D170000 		.4byte	.LASF483
 4873 1b03 01       		.byte	0x1
 4874 1b04 50       		.byte	0x50
 4875 1b05 25000000 		.4byte	0x25
 4876 1b09 80010000 		.4byte	.LLST11
 4877 1b0d 32       		.uleb128 0x32
 4878 1b0e 6C616700 		.ascii	"lag\000"
 4879 1b12 01       		.byte	0x1
 4880 1b13 51       		.byte	0x51
 4881 1b14 9B000000 		.4byte	0x9b
 4882 1b18 03       		.byte	0x3
 4883 1b19 2D       		.uleb128 0x2d
 4884 1b1a 9B200000 		.4byte	.LASF484
 4885 1b1e 01       		.byte	0x1
 4886 1b1f 52       		.byte	0x52
 4887 1b20 6B0F0000 		.4byte	0xf6b
ARM GAS  C:\Users\xhuli\AppData\Local\Temp\ccrNCJrA.s 			page 131


 4888 1b24 BB010000 		.4byte	.LLST12
 4889 1b28 2D       		.uleb128 0x2d
 4890 1b29 89230000 		.4byte	.LASF485
 4891 1b2d 01       		.byte	0x1
 4892 1b2e 53       		.byte	0x53
 4893 1b2f 6B0F0000 		.4byte	0xf6b
 4894 1b33 08020000 		.4byte	.LLST13
 4895 1b37 2D       		.uleb128 0x2d
 4896 1b38 F5290000 		.4byte	.LASF486
 4897 1b3c 01       		.byte	0x1
 4898 1b3d 55       		.byte	0x55
 4899 1b3e 25000000 		.4byte	0x25
 4900 1b42 55020000 		.4byte	.LLST14
 4901 1b46 2D       		.uleb128 0x2d
 4902 1b47 18260000 		.4byte	.LASF487
 4903 1b4b 01       		.byte	0x1
 4904 1b4c 56       		.byte	0x56
 4905 1b4d 25000000 		.4byte	0x25
 4906 1b51 91020000 		.4byte	.LLST15
 4907 1b55 2D       		.uleb128 0x2d
 4908 1b56 F5250000 		.4byte	.LASF488
 4909 1b5a 01       		.byte	0x1
 4910 1b5b 58       		.byte	0x58
 4911 1b5c 25000000 		.4byte	0x25
 4912 1b60 E5020000 		.4byte	.LLST16
 4913 1b64 2D       		.uleb128 0x2d
 4914 1b65 65040000 		.4byte	.LASF489
 4915 1b69 01       		.byte	0x1
 4916 1b6a 59       		.byte	0x59
 4917 1b6b 25000000 		.4byte	0x25
 4918 1b6f 11030000 		.4byte	.LLST17
 4919 1b73 33       		.uleb128 0x33
 4920 1b74 DA020000 		.4byte	.LASF490
 4921 1b78 01       		.byte	0x1
 4922 1b79 5A       		.byte	0x5a
 4923 1b7a B31C0000 		.4byte	0x1cb3
 4924 1b7e 03       		.uleb128 0x3
 4925 1b7f 91       		.byte	0x91
 4926 1b80 B079     		.sleb128 -848
 4927 1b82 33       		.uleb128 0x33
 4928 1b83 D21A0000 		.4byte	.LASF491
 4929 1b87 01       		.byte	0x1
 4930 1b88 5B       		.byte	0x5b
 4931 1b89 B31C0000 		.4byte	0x1cb3
 4932 1b8d 03       		.uleb128 0x3
 4933 1b8e 91       		.byte	0x91
 4934 1b8f 9073     		.sleb128 -1648
 4935 1b91 33       		.uleb128 0x33
 4936 1b92 950B0000 		.4byte	.LASF492
 4937 1b96 01       		.byte	0x1
 4938 1b97 5F       		.byte	0x5f
 4939 1b98 B31C0000 		.4byte	0x1cb3
 4940 1b9c 03       		.uleb128 0x3
 4941 1b9d 91       		.byte	0x91
 4942 1b9e F06C     		.sleb128 -2448
 4943 1ba0 34       		.uleb128 0x34
 4944 1ba1 00000000 		.4byte	.Ldebug_ranges0+0
ARM GAS  C:\Users\xhuli\AppData\Local\Temp\ccrNCJrA.s 			page 132


 4945 1ba5 FE1B0000 		.4byte	0x1bfe
 4946 1ba9 26       		.uleb128 0x26
 4947 1baa 6900     		.ascii	"i\000"
 4948 1bac 01       		.byte	0x1
 4949 1bad 61       		.byte	0x61
 4950 1bae 9B000000 		.4byte	0x9b
 4951 1bb2 35030000 		.4byte	.LLST18
 4952 1bb6 29       		.uleb128 0x29
 4953 1bb7 5E000000 		.4byte	.LVL37
 4954 1bbb F3190000 		.4byte	0x19f3
 4955 1bbf CF1B0000 		.4byte	0x1bcf
 4956 1bc3 22       		.uleb128 0x22
 4957 1bc4 01       		.uleb128 0x1
 4958 1bc5 50       		.byte	0x50
 4959 1bc6 02       		.uleb128 0x2
 4960 1bc7 76       		.byte	0x76
 4961 1bc8 00       		.sleb128 0
 4962 1bc9 22       		.uleb128 0x22
 4963 1bca 01       		.uleb128 0x1
 4964 1bcb 51       		.byte	0x51
 4965 1bcc 01       		.uleb128 0x1
 4966 1bcd 33       		.byte	0x33
 4967 1bce 00       		.byte	0
 4968 1bcf 29       		.uleb128 0x29
 4969 1bd0 70000000 		.4byte	.LVL38
 4970 1bd4 5A1A0000 		.4byte	0x1a5a
 4971 1bd8 E81B0000 		.4byte	0x1be8
 4972 1bdc 22       		.uleb128 0x22
 4973 1bdd 01       		.uleb128 0x1
 4974 1bde 50       		.byte	0x50
 4975 1bdf 02       		.uleb128 0x2
 4976 1be0 76       		.byte	0x76
 4977 1be1 00       		.sleb128 0
 4978 1be2 22       		.uleb128 0x22
 4979 1be3 01       		.uleb128 0x1
 4980 1be4 51       		.byte	0x51
 4981 1be5 01       		.uleb128 0x1
 4982 1be6 33       		.byte	0x33
 4983 1be7 00       		.byte	0
 4984 1be8 21       		.uleb128 0x21
 4985 1be9 D6010000 		.4byte	.LVL61
 4986 1bed F3190000 		.4byte	0x19f3
 4987 1bf1 22       		.uleb128 0x22
 4988 1bf2 01       		.uleb128 0x1
 4989 1bf3 50       		.byte	0x50
 4990 1bf4 02       		.uleb128 0x2
 4991 1bf5 76       		.byte	0x76
 4992 1bf6 00       		.sleb128 0
 4993 1bf7 22       		.uleb128 0x22
 4994 1bf8 01       		.uleb128 0x1
 4995 1bf9 51       		.byte	0x51
 4996 1bfa 01       		.uleb128 0x1
 4997 1bfb 33       		.byte	0x33
 4998 1bfc 00       		.byte	0
 4999 1bfd 00       		.byte	0
 5000 1bfe 30       		.uleb128 0x30
 5001 1bff 10000000 		.4byte	.LVL31
ARM GAS  C:\Users\xhuli\AppData\Local\Temp\ccrNCJrA.s 			page 133


 5002 1c03 4D190000 		.4byte	0x194d
 5003 1c07 29       		.uleb128 0x29
 5004 1c08 16000000 		.4byte	.LVL32
 5005 1c0c 06270000 		.4byte	0x2706
 5006 1c10 1E1C0000 		.4byte	0x1c1e
 5007 1c14 22       		.uleb128 0x22
 5008 1c15 01       		.uleb128 0x1
 5009 1c16 50       		.byte	0x50
 5010 1c17 05       		.uleb128 0x5
 5011 1c18 03       		.byte	0x3
 5012 1c19 40000000 		.4byte	.LC2
 5013 1c1d 00       		.byte	0
 5014 1c1e 29       		.uleb128 0x29
 5015 1c1f 20000000 		.4byte	.LVL33
 5016 1c23 F3190000 		.4byte	0x19f3
 5017 1c27 371C0000 		.4byte	0x1c37
 5018 1c2b 22       		.uleb128 0x22
 5019 1c2c 01       		.uleb128 0x1
 5020 1c2d 50       		.byte	0x50
 5021 1c2e 02       		.uleb128 0x2
 5022 1c2f 74       		.byte	0x74
 5023 1c30 00       		.sleb128 0
 5024 1c31 22       		.uleb128 0x22
 5025 1c32 01       		.uleb128 0x1
 5026 1c33 51       		.byte	0x51
 5027 1c34 01       		.uleb128 0x1
 5028 1c35 33       		.byte	0x33
 5029 1c36 00       		.byte	0
 5030 1c37 29       		.uleb128 0x29
 5031 1c38 2E000000 		.4byte	.LVL34
 5032 1c3c 5A1A0000 		.4byte	0x1a5a
 5033 1c40 501C0000 		.4byte	0x1c50
 5034 1c44 22       		.uleb128 0x22
 5035 1c45 01       		.uleb128 0x1
 5036 1c46 50       		.byte	0x50
 5037 1c47 02       		.uleb128 0x2
 5038 1c48 74       		.byte	0x74
 5039 1c49 00       		.sleb128 0
 5040 1c4a 22       		.uleb128 0x22
 5041 1c4b 01       		.uleb128 0x1
 5042 1c4c 51       		.byte	0x51
 5043 1c4d 01       		.uleb128 0x1
 5044 1c4e 33       		.byte	0x33
 5045 1c4f 00       		.byte	0
 5046 1c50 29       		.uleb128 0x29
 5047 1c51 3C000000 		.4byte	.LVL35
 5048 1c55 2B270000 		.4byte	0x272b
 5049 1c59 711C0000 		.4byte	0x1c71
 5050 1c5d 22       		.uleb128 0x22
 5051 1c5e 01       		.uleb128 0x1
 5052 1c5f 50       		.byte	0x50
 5053 1c60 02       		.uleb128 0x2
 5054 1c61 7D       		.byte	0x7d
 5055 1c62 00       		.sleb128 0
 5056 1c63 22       		.uleb128 0x22
 5057 1c64 01       		.uleb128 0x1
 5058 1c65 51       		.byte	0x51
ARM GAS  C:\Users\xhuli\AppData\Local\Temp\ccrNCJrA.s 			page 134


 5059 1c66 02       		.uleb128 0x2
 5060 1c67 74       		.byte	0x74
 5061 1c68 00       		.sleb128 0
 5062 1c69 22       		.uleb128 0x22
 5063 1c6a 01       		.uleb128 0x1
 5064 1c6b 52       		.byte	0x52
 5065 1c6c 03       		.uleb128 0x3
 5066 1c6d 0A       		.byte	0xa
 5067 1c6e 2003     		.2byte	0x320
 5068 1c70 00       		.byte	0
 5069 1c71 29       		.uleb128 0x29
 5070 1c72 FE010000 		.4byte	.LVL65
 5071 1c76 34270000 		.4byte	0x2734
 5072 1c7a 881C0000 		.4byte	0x1c88
 5073 1c7e 22       		.uleb128 0x22
 5074 1c7f 01       		.uleb128 0x1
 5075 1c80 50       		.byte	0x50
 5076 1c81 05       		.uleb128 0x5
 5077 1c82 03       		.byte	0x3
 5078 1c83 5C000000 		.4byte	.LC3
 5079 1c87 00       		.byte	0
 5080 1c88 29       		.uleb128 0x29
 5081 1c89 08020000 		.4byte	.LVL66
 5082 1c8d 34270000 		.4byte	0x2734
 5083 1c91 9F1C0000 		.4byte	0x1c9f
 5084 1c95 22       		.uleb128 0x22
 5085 1c96 01       		.uleb128 0x1
 5086 1c97 50       		.byte	0x50
 5087 1c98 05       		.uleb128 0x5
 5088 1c99 03       		.byte	0x3
 5089 1c9a 7C000000 		.4byte	.LC4
 5090 1c9e 00       		.byte	0
 5091 1c9f 21       		.uleb128 0x21
 5092 1ca0 16020000 		.4byte	.LVL67
 5093 1ca4 34270000 		.4byte	0x2734
 5094 1ca8 22       		.uleb128 0x22
 5095 1ca9 01       		.uleb128 0x1
 5096 1caa 50       		.byte	0x50
 5097 1cab 05       		.uleb128 0x5
 5098 1cac 03       		.byte	0x3
 5099 1cad 9C000000 		.4byte	.LC5
 5100 1cb1 00       		.byte	0
 5101 1cb2 00       		.byte	0
 5102 1cb3 07       		.uleb128 0x7
 5103 1cb4 25000000 		.4byte	0x25
 5104 1cb8 C31C0000 		.4byte	0x1cc3
 5105 1cbc 08       		.uleb128 0x8
 5106 1cbd E0000000 		.4byte	0xe0
 5107 1cc1 C7       		.byte	0xc7
 5108 1cc2 00       		.byte	0
 5109 1cc3 24       		.uleb128 0x24
 5110 1cc4 3D0D0000 		.4byte	.LASF493
 5111 1cc8 01       		.byte	0x1
 5112 1cc9 A7       		.byte	0xa7
 5113 1cca 00000000 		.4byte	.LFB590
 5114 1cce 20000000 		.4byte	.LFE590-.LFB590
 5115 1cd2 01       		.uleb128 0x1
ARM GAS  C:\Users\xhuli\AppData\Local\Temp\ccrNCJrA.s 			page 135


 5116 1cd3 9C       		.byte	0x9c
 5117 1cd4 101D0000 		.4byte	0x1d10
 5118 1cd8 30       		.uleb128 0x30
 5119 1cd9 06000000 		.4byte	.LVL70
 5120 1cdd 3F270000 		.4byte	0x273f
 5121 1ce1 30       		.uleb128 0x30
 5122 1ce2 0A000000 		.4byte	.LVL71
 5123 1ce6 4A270000 		.4byte	0x274a
 5124 1cea 30       		.uleb128 0x30
 5125 1ceb 0E000000 		.4byte	.LVL72
 5126 1cef 55270000 		.4byte	0x2755
 5127 1cf3 30       		.uleb128 0x30
 5128 1cf4 12000000 		.4byte	.LVL73
 5129 1cf8 60270000 		.4byte	0x2760
 5130 1cfc 21       		.uleb128 0x21
 5131 1cfd 18000000 		.4byte	.LVL74
 5132 1d01 06270000 		.4byte	0x2706
 5133 1d05 22       		.uleb128 0x22
 5134 1d06 01       		.uleb128 0x1
 5135 1d07 50       		.byte	0x50
 5136 1d08 05       		.uleb128 0x5
 5137 1d09 03       		.byte	0x3
 5138 1d0a BC000000 		.4byte	.LC6
 5139 1d0e 00       		.byte	0
 5140 1d0f 00       		.byte	0
 5141 1d10 35       		.uleb128 0x35
 5142 1d11 77200000 		.4byte	.LASF500
 5143 1d15 01       		.byte	0x1
 5144 1d16 B2       		.byte	0xb2
 5145 1d17 25000000 		.4byte	0x25
 5146 1d1b 00000000 		.4byte	.LFB591
 5147 1d1f C4000000 		.4byte	.LFE591-.LFB591
 5148 1d23 01       		.uleb128 0x1
 5149 1d24 9C       		.byte	0x9c
 5150 1d25 411E0000 		.4byte	0x1e41
 5151 1d29 26       		.uleb128 0x26
 5152 1d2a 72617700 		.ascii	"raw\000"
 5153 1d2e 01       		.byte	0x1
 5154 1d2f B3       		.byte	0xb3
 5155 1d30 25000000 		.4byte	0x25
 5156 1d34 54030000 		.4byte	.LLST19
 5157 1d38 2D       		.uleb128 0x2d
 5158 1d39 C4120000 		.4byte	.LASF494
 5159 1d3d 01       		.byte	0x1
 5160 1d3e B4       		.byte	0xb4
 5161 1d3f 25000000 		.4byte	0x25
 5162 1d43 78030000 		.4byte	.LLST20
 5163 1d47 25       		.uleb128 0x25
 5164 1d48 36000000 		.4byte	.LBB33
 5165 1d4c 4C000000 		.4byte	.LBE33-.LBB33
 5166 1d50 8B1D0000 		.4byte	0x1d8b
 5167 1d54 26       		.uleb128 0x26
 5168 1d55 6900     		.ascii	"i\000"
 5169 1d57 01       		.byte	0x1
 5170 1d58 BA       		.byte	0xba
 5171 1d59 6A180000 		.4byte	0x186a
 5172 1d5d 9B030000 		.4byte	.LLST21
ARM GAS  C:\Users\xhuli\AppData\Local\Temp\ccrNCJrA.s 			page 136


 5173 1d61 21       		.uleb128 0x21
 5174 1d62 50000000 		.4byte	.LVL80
 5175 1d66 6B270000 		.4byte	0x276b
 5176 1d6a 22       		.uleb128 0x22
 5177 1d6b 01       		.uleb128 0x1
 5178 1d6c 50       		.byte	0x50
 5179 1d6d 05       		.uleb128 0x5
 5180 1d6e 0C       		.byte	0xc
 5181 1d6f 00006740 		.4byte	0x40670000
 5182 1d73 22       		.uleb128 0x22
 5183 1d74 01       		.uleb128 0x1
 5184 1d75 51       		.byte	0x51
 5185 1d76 01       		.uleb128 0x1
 5186 1d77 30       		.byte	0x30
 5187 1d78 22       		.uleb128 0x22
 5188 1d79 01       		.uleb128 0x1
 5189 1d7a 52       		.byte	0x52
 5190 1d7b 08       		.uleb128 0x8
 5191 1d7c 75       		.byte	0x75
 5192 1d7d 00       		.sleb128 0
 5193 1d7e 74       		.byte	0x74
 5194 1d7f 00       		.sleb128 0
 5195 1d80 22       		.byte	0x22
 5196 1d81 23       		.byte	0x23
 5197 1d82 B406     		.uleb128 0x334
 5198 1d84 22       		.uleb128 0x22
 5199 1d85 01       		.uleb128 0x1
 5200 1d86 53       		.byte	0x53
 5201 1d87 01       		.uleb128 0x1
 5202 1d88 30       		.byte	0x30
 5203 1d89 00       		.byte	0
 5204 1d8a 00       		.byte	0
 5205 1d8b 29       		.uleb128 0x29
 5206 1d8c 1C000000 		.4byte	.LVL76
 5207 1d90 77270000 		.4byte	0x2777
 5208 1d94 B01D0000 		.4byte	0x1db0
 5209 1d98 22       		.uleb128 0x22
 5210 1d99 01       		.uleb128 0x1
 5211 1d9a 50       		.byte	0x50
 5212 1d9b 02       		.uleb128 0x2
 5213 1d9c 74       		.byte	0x74
 5214 1d9d 00       		.sleb128 0
 5215 1d9e 22       		.uleb128 0x22
 5216 1d9f 01       		.uleb128 0x1
 5217 1da0 52       		.byte	0x52
 5218 1da1 01       		.uleb128 0x1
 5219 1da2 30       		.byte	0x30
 5220 1da3 22       		.uleb128 0x22
 5221 1da4 01       		.uleb128 0x1
 5222 1da5 53       		.byte	0x53
 5223 1da6 01       		.uleb128 0x1
 5224 1da7 30       		.byte	0x30
 5225 1da8 22       		.uleb128 0x22
 5226 1da9 02       		.uleb128 0x2
 5227 1daa 7D       		.byte	0x7d
 5228 1dab 00       		.sleb128 0
 5229 1dac 02       		.uleb128 0x2
ARM GAS  C:\Users\xhuli\AppData\Local\Temp\ccrNCJrA.s 			page 137


 5230 1dad 75       		.byte	0x75
 5231 1dae 00       		.sleb128 0
 5232 1daf 00       		.byte	0
 5233 1db0 29       		.uleb128 0x29
 5234 1db1 28000000 		.4byte	.LVL77
 5235 1db5 83270000 		.4byte	0x2783
 5236 1db9 D41D0000 		.4byte	0x1dd4
 5237 1dbd 22       		.uleb128 0x22
 5238 1dbe 01       		.uleb128 0x1
 5239 1dbf 50       		.byte	0x50
 5240 1dc0 02       		.uleb128 0x2
 5241 1dc1 74       		.byte	0x74
 5242 1dc2 00       		.sleb128 0
 5243 1dc3 22       		.uleb128 0x22
 5244 1dc4 01       		.uleb128 0x1
 5245 1dc5 51       		.byte	0x51
 5246 1dc6 01       		.uleb128 0x1
 5247 1dc7 30       		.byte	0x30
 5248 1dc8 22       		.uleb128 0x22
 5249 1dc9 01       		.uleb128 0x1
 5250 1dca 52       		.byte	0x52
 5251 1dcb 01       		.uleb128 0x1
 5252 1dcc 30       		.byte	0x30
 5253 1dcd 22       		.uleb128 0x22
 5254 1dce 01       		.uleb128 0x1
 5255 1dcf 53       		.byte	0x53
 5256 1dd0 02       		.uleb128 0x2
 5257 1dd1 75       		.byte	0x75
 5258 1dd2 00       		.sleb128 0
 5259 1dd3 00       		.byte	0
 5260 1dd4 29       		.uleb128 0x29
 5261 1dd5 36000000 		.4byte	.LVL78
 5262 1dd9 8F270000 		.4byte	0x278f
 5263 1ddd F91D0000 		.4byte	0x1df9
 5264 1de1 22       		.uleb128 0x22
 5265 1de2 01       		.uleb128 0x1
 5266 1de3 50       		.byte	0x50
 5267 1de4 02       		.uleb128 0x2
 5268 1de5 74       		.byte	0x74
 5269 1de6 00       		.sleb128 0
 5270 1de7 22       		.uleb128 0x22
 5271 1de8 01       		.uleb128 0x1
 5272 1de9 52       		.byte	0x52
 5273 1dea 01       		.uleb128 0x1
 5274 1deb 31       		.byte	0x31
 5275 1dec 22       		.uleb128 0x22
 5276 1ded 01       		.uleb128 0x1
 5277 1dee 53       		.byte	0x53
 5278 1def 01       		.uleb128 0x1
 5279 1df0 30       		.byte	0x30
 5280 1df1 22       		.uleb128 0x22
 5281 1df2 02       		.uleb128 0x2
 5282 1df3 7D       		.byte	0x7d
 5283 1df4 00       		.sleb128 0
 5284 1df5 02       		.uleb128 0x2
 5285 1df6 75       		.byte	0x75
 5286 1df7 00       		.sleb128 0
ARM GAS  C:\Users\xhuli\AppData\Local\Temp\ccrNCJrA.s 			page 138


 5287 1df8 00       		.byte	0
 5288 1df9 29       		.uleb128 0x29
 5289 1dfa 98000000 		.4byte	.LVL88
 5290 1dfe 6B270000 		.4byte	0x276b
 5291 1e02 251E0000 		.4byte	0x1e25
 5292 1e06 22       		.uleb128 0x22
 5293 1e07 01       		.uleb128 0x1
 5294 1e08 50       		.byte	0x50
 5295 1e09 02       		.uleb128 0x2
 5296 1e0a 75       		.byte	0x75
 5297 1e0b 00       		.sleb128 0
 5298 1e0c 22       		.uleb128 0x22
 5299 1e0d 01       		.uleb128 0x1
 5300 1e0e 51       		.byte	0x51
 5301 1e0f 01       		.uleb128 0x1
 5302 1e10 31       		.byte	0x31
 5303 1e11 22       		.uleb128 0x22
 5304 1e12 01       		.uleb128 0x1
 5305 1e13 52       		.byte	0x52
 5306 1e14 03       		.uleb128 0x3
 5307 1e15 74       		.byte	0x74
 5308 1e16 B706     		.sleb128 823
 5309 1e18 22       		.uleb128 0x22
 5310 1e19 01       		.uleb128 0x1
 5311 1e1a 53       		.byte	0x53
 5312 1e1b 01       		.uleb128 0x1
 5313 1e1c 30       		.byte	0x30
 5314 1e1d 22       		.uleb128 0x22
 5315 1e1e 02       		.uleb128 0x2
 5316 1e1f 7D       		.byte	0x7d
 5317 1e20 00       		.sleb128 0
 5318 1e21 02       		.uleb128 0x2
 5319 1e22 76       		.byte	0x76
 5320 1e23 00       		.sleb128 0
 5321 1e24 00       		.byte	0
 5322 1e25 21       		.uleb128 0x21
 5323 1e26 A2000000 		.4byte	.LVL89
 5324 1e2a 9B270000 		.4byte	0x279b
 5325 1e2e 22       		.uleb128 0x22
 5326 1e2f 01       		.uleb128 0x1
 5327 1e30 50       		.byte	0x50
 5328 1e31 02       		.uleb128 0x2
 5329 1e32 75       		.byte	0x75
 5330 1e33 00       		.sleb128 0
 5331 1e34 22       		.uleb128 0x22
 5332 1e35 01       		.uleb128 0x1
 5333 1e36 51       		.byte	0x51
 5334 1e37 01       		.uleb128 0x1
 5335 1e38 30       		.byte	0x30
 5336 1e39 22       		.uleb128 0x22
 5337 1e3a 01       		.uleb128 0x1
 5338 1e3b 52       		.byte	0x52
 5339 1e3c 02       		.uleb128 0x2
 5340 1e3d 76       		.byte	0x76
 5341 1e3e 00       		.sleb128 0
 5342 1e3f 00       		.byte	0
 5343 1e40 00       		.byte	0
ARM GAS  C:\Users\xhuli\AppData\Local\Temp\ccrNCJrA.s 			page 139


 5344 1e41 31       		.uleb128 0x31
 5345 1e42 A70D0000 		.4byte	.LASF495
 5346 1e46 01       		.byte	0x1
 5347 1e47 CA       		.byte	0xca
 5348 1e48 00000000 		.4byte	.LFB592
 5349 1e4c 5C000000 		.4byte	.LFE592-.LFB592
 5350 1e50 01       		.uleb128 0x1
 5351 1e51 9C       		.byte	0x9c
 5352 1e52 C41E0000 		.4byte	0x1ec4
 5353 1e56 33       		.uleb128 0x33
 5354 1e57 24050000 		.4byte	.LASF496
 5355 1e5b 01       		.byte	0x1
 5356 1e5c CC       		.byte	0xcc
 5357 1e5d FA160000 		.4byte	0x16fa
 5358 1e61 02       		.uleb128 0x2
 5359 1e62 91       		.byte	0x91
 5360 1e63 6C       		.sleb128 -20
 5361 1e64 33       		.uleb128 0x33
 5362 1e65 A9210000 		.4byte	.LASF497
 5363 1e69 01       		.byte	0x1
 5364 1e6a CF       		.byte	0xcf
 5365 1e6b C41E0000 		.4byte	0x1ec4
 5366 1e6f 02       		.uleb128 0x2
 5367 1e70 91       		.byte	0x91
 5368 1e71 64       		.sleb128 -28
 5369 1e72 25       		.uleb128 0x25
 5370 1e73 1E000000 		.4byte	.LBB34
 5371 1e77 1A000000 		.4byte	.LBE34-.LBB34
 5372 1e7b 8D1E0000 		.4byte	0x1e8d
 5373 1e7f 26       		.uleb128 0x26
 5374 1e80 6900     		.ascii	"i\000"
 5375 1e82 01       		.byte	0x1
 5376 1e83 D3       		.byte	0xd3
 5377 1e84 6A180000 		.4byte	0x186a
 5378 1e88 BA030000 		.4byte	.LLST22
 5379 1e8c 00       		.byte	0
 5380 1e8d 30       		.uleb128 0x30
 5381 1e8e 0E000000 		.4byte	.LVL90
 5382 1e92 101D0000 		.4byte	0x1d10
 5383 1e96 29       		.uleb128 0x29
 5384 1e97 1E000000 		.4byte	.LVL92
 5385 1e9b A7270000 		.4byte	0x27a7
 5386 1e9f B31E0000 		.4byte	0x1eb3
 5387 1ea3 22       		.uleb128 0x22
 5388 1ea4 01       		.uleb128 0x1
 5389 1ea5 50       		.byte	0x50
 5390 1ea6 02       		.uleb128 0x2
 5391 1ea7 91       		.byte	0x91
 5392 1ea8 64       		.sleb128 -28
 5393 1ea9 22       		.uleb128 0x22
 5394 1eaa 01       		.uleb128 0x1
 5395 1eab 51       		.byte	0x51
 5396 1eac 05       		.uleb128 0x5
 5397 1ead 03       		.byte	0x3
 5398 1eae D8000000 		.4byte	.LC7
 5399 1eb2 00       		.byte	0
 5400 1eb3 21       		.uleb128 0x21
ARM GAS  C:\Users\xhuli\AppData\Local\Temp\ccrNCJrA.s 			page 140


 5401 1eb4 4A000000 		.4byte	.LVL96
 5402 1eb8 B2270000 		.4byte	0x27b2
 5403 1ebc 22       		.uleb128 0x22
 5404 1ebd 01       		.uleb128 0x1
 5405 1ebe 50       		.byte	0x50
 5406 1ebf 02       		.uleb128 0x2
 5407 1ec0 91       		.byte	0x91
 5408 1ec1 6C       		.sleb128 -20
 5409 1ec2 00       		.byte	0
 5410 1ec3 00       		.byte	0
 5411 1ec4 07       		.uleb128 0x7
 5412 1ec5 5B0F0000 		.4byte	0xf5b
 5413 1ec9 D41E0000 		.4byte	0x1ed4
 5414 1ecd 08       		.uleb128 0x8
 5415 1ece E0000000 		.4byte	0xe0
 5416 1ed2 04       		.byte	0x4
 5417 1ed3 00       		.byte	0
 5418 1ed4 24       		.uleb128 0x24
 5419 1ed5 0D050000 		.4byte	.LASF498
 5420 1ed9 01       		.byte	0x1
 5421 1eda E1       		.byte	0xe1
 5422 1edb 00000000 		.4byte	.LFB593
 5423 1edf 88000000 		.4byte	.LFE593-.LFB593
 5424 1ee3 01       		.uleb128 0x1
 5425 1ee4 9C       		.byte	0x9c
 5426 1ee5 A11F0000 		.4byte	0x1fa1
 5427 1ee9 33       		.uleb128 0x33
 5428 1eea 24050000 		.4byte	.LASF496
 5429 1eee 01       		.byte	0x1
 5430 1eef E3       		.byte	0xe3
 5431 1ef0 FA160000 		.4byte	0x16fa
 5432 1ef4 02       		.uleb128 0x2
 5433 1ef5 91       		.byte	0x91
 5434 1ef6 6C       		.sleb128 -20
 5435 1ef7 33       		.uleb128 0x33
 5436 1ef8 60030000 		.4byte	.LASF499
 5437 1efc 01       		.byte	0x1
 5438 1efd EA       		.byte	0xea
 5439 1efe C41E0000 		.4byte	0x1ec4
 5440 1f02 02       		.uleb128 0x2
 5441 1f03 91       		.byte	0x91
 5442 1f04 64       		.sleb128 -28
 5443 1f05 27       		.uleb128 0x27
 5444 1f06 2F190000 		.4byte	0x192f
 5445 1f0a 0A000000 		.4byte	.LBB38
 5446 1f0e 24000000 		.4byte	.LBE38-.LBB38
 5447 1f12 01       		.byte	0x1
 5448 1f13 E8       		.byte	0xe8
 5449 1f14 581F0000 		.4byte	0x1f58
 5450 1f18 28       		.uleb128 0x28
 5451 1f19 40190000 		.4byte	0x1940
 5452 1f1d D9030000 		.4byte	.LLST23
 5453 1f21 29       		.uleb128 0x29
 5454 1f22 26000000 		.4byte	.LVL98
 5455 1f26 E2260000 		.4byte	0x26e2
 5456 1f2a 3F1F0000 		.4byte	0x1f3f
 5457 1f2e 22       		.uleb128 0x22
ARM GAS  C:\Users\xhuli\AppData\Local\Temp\ccrNCJrA.s 			page 141


 5458 1f2f 01       		.uleb128 0x1
 5459 1f30 50       		.byte	0x50
 5460 1f31 05       		.uleb128 0x5
 5461 1f32 03       		.byte	0x3
 5462 1f33 20000000 		.4byte	.LC1
 5463 1f37 22       		.uleb128 0x22
 5464 1f38 01       		.uleb128 0x1
 5465 1f39 51       		.byte	0x51
 5466 1f3a 03       		.uleb128 0x3
 5467 1f3b 0A       		.byte	0xa
 5468 1f3c D803     		.2byte	0x3d8
 5469 1f3e 00       		.byte	0
 5470 1f3f 21       		.uleb128 0x21
 5471 1f40 2E000000 		.4byte	.LVL99
 5472 1f44 EE260000 		.4byte	0x26ee
 5473 1f48 22       		.uleb128 0x22
 5474 1f49 01       		.uleb128 0x1
 5475 1f4a 50       		.byte	0x50
 5476 1f4b 05       		.uleb128 0x5
 5477 1f4c 0C       		.byte	0xc
 5478 1f4d 00001D41 		.4byte	0x411d0000
 5479 1f51 22       		.uleb128 0x22
 5480 1f52 01       		.uleb128 0x1
 5481 1f53 51       		.byte	0x51
 5482 1f54 01       		.uleb128 0x1
 5483 1f55 30       		.byte	0x30
 5484 1f56 00       		.byte	0
 5485 1f57 00       		.byte	0
 5486 1f58 25       		.uleb128 0x25
 5487 1f59 38000000 		.4byte	.LBB40
 5488 1f5d 1A000000 		.4byte	.LBE40-.LBB40
 5489 1f61 731F0000 		.4byte	0x1f73
 5490 1f65 26       		.uleb128 0x26
 5491 1f66 6900     		.ascii	"i\000"
 5492 1f68 01       		.byte	0x1
 5493 1f69 EE       		.byte	0xee
 5494 1f6a 9B000000 		.4byte	0x9b
 5495 1f6e ED030000 		.4byte	.LLST24
 5496 1f72 00       		.byte	0
 5497 1f73 29       		.uleb128 0x29
 5498 1f74 38000000 		.4byte	.LVL100
 5499 1f78 A7270000 		.4byte	0x27a7
 5500 1f7c 901F0000 		.4byte	0x1f90
 5501 1f80 22       		.uleb128 0x22
 5502 1f81 01       		.uleb128 0x1
 5503 1f82 50       		.byte	0x50
 5504 1f83 02       		.uleb128 0x2
 5505 1f84 91       		.byte	0x91
 5506 1f85 64       		.sleb128 -28
 5507 1f86 22       		.uleb128 0x22
 5508 1f87 01       		.uleb128 0x1
 5509 1f88 51       		.byte	0x51
 5510 1f89 05       		.uleb128 0x5
 5511 1f8a 03       		.byte	0x3
 5512 1f8b DC000000 		.4byte	.LC8
 5513 1f8f 00       		.byte	0
 5514 1f90 21       		.uleb128 0x21
ARM GAS  C:\Users\xhuli\AppData\Local\Temp\ccrNCJrA.s 			page 142


 5515 1f91 64000000 		.4byte	.LVL104
 5516 1f95 B2270000 		.4byte	0x27b2
 5517 1f99 22       		.uleb128 0x22
 5518 1f9a 01       		.uleb128 0x1
 5519 1f9b 50       		.byte	0x50
 5520 1f9c 02       		.uleb128 0x2
 5521 1f9d 91       		.byte	0x91
 5522 1f9e 6C       		.sleb128 -20
 5523 1f9f 00       		.byte	0
 5524 1fa0 00       		.byte	0
 5525 1fa1 36       		.uleb128 0x36
 5526 1fa2 480E0000 		.4byte	.LASF501
 5527 1fa6 01       		.byte	0x1
 5528 1fa7 FC       		.byte	0xfc
 5529 1fa8 00000000 		.4byte	.LFB594
 5530 1fac 60000000 		.4byte	.LFE594-.LFB594
 5531 1fb0 01       		.uleb128 0x1
 5532 1fb1 9C       		.byte	0x9c
 5533 1fb2 C1200000 		.4byte	0x20c1
 5534 1fb6 2B       		.uleb128 0x2b
 5535 1fb7 CE160000 		.4byte	.LASF502
 5536 1fbb 01       		.byte	0x1
 5537 1fbc FC       		.byte	0xfc
 5538 1fbd BF000000 		.4byte	0xbf
 5539 1fc1 0C040000 		.4byte	.LLST25
 5540 1fc5 2B       		.uleb128 0x2b
 5541 1fc6 14250000 		.4byte	.LASF503
 5542 1fca 01       		.byte	0x1
 5543 1fcb FC       		.byte	0xfc
 5544 1fcc BF000000 		.4byte	0xbf
 5545 1fd0 2D040000 		.4byte	.LLST26
 5546 1fd4 26       		.uleb128 0x26
 5547 1fd5 6900     		.ascii	"i\000"
 5548 1fd7 01       		.byte	0x1
 5549 1fd8 FE       		.byte	0xfe
 5550 1fd9 A9000000 		.4byte	0xa9
 5551 1fdd 56040000 		.4byte	.LLST27
 5552 1fe1 37       		.uleb128 0x37
 5553 1fe2 B8050000 		.4byte	.LASF504
 5554 1fe6 01       		.byte	0x1
 5555 1fe7 FF       		.byte	0xff
 5556 1fe8 BF000000 		.4byte	0xbf
 5557 1fec 80807E   		.sleb128 -32768
 5558 1fef 38       		.uleb128 0x38
 5559 1ff0 03270000 		.4byte	.LASF505
 5560 1ff4 01       		.byte	0x1
 5561 1ff5 0001     		.2byte	0x100
 5562 1ff7 BF000000 		.4byte	0xbf
 5563 1ffb 01       		.byte	0x1
 5564 1ffc 39       		.uleb128 0x39
 5565 1ffd 300C0000 		.4byte	.LASF506
 5566 2001 01       		.byte	0x1
 5567 2002 0401     		.2byte	0x104
 5568 2004 6B0F0000 		.4byte	0xf6b
 5569 2008 80040000 		.4byte	.LLST28
 5570 200c 3A       		.uleb128 0x3a
 5571 200d 75180000 		.4byte	0x1875
ARM GAS  C:\Users\xhuli\AppData\Local\Temp\ccrNCJrA.s 			page 143


 5572 2011 06000000 		.4byte	.LBB41
 5573 2015 06000000 		.4byte	.LBE41-.LBB41
 5574 2019 01       		.byte	0x1
 5575 201a 0301     		.2byte	0x103
 5576 201c 33200000 		.4byte	0x2033
 5577 2020 28       		.uleb128 0x28
 5578 2021 8E180000 		.4byte	0x188e
 5579 2025 B5040000 		.4byte	.LLST29
 5580 2029 28       		.uleb128 0x28
 5581 202a 82180000 		.4byte	0x1882
 5582 202e C9040000 		.4byte	.LLST30
 5583 2032 00       		.byte	0
 5584 2033 3A       		.uleb128 0x3a
 5585 2034 75180000 		.4byte	0x1875
 5586 2038 2C000000 		.4byte	.LBB43
 5587 203c 06000000 		.4byte	.LBE43-.LBB43
 5588 2040 01       		.byte	0x1
 5589 2041 0F01     		.2byte	0x10f
 5590 2043 5A200000 		.4byte	0x205a
 5591 2047 28       		.uleb128 0x28
 5592 2048 8E180000 		.4byte	0x188e
 5593 204c E1040000 		.4byte	.LLST31
 5594 2050 28       		.uleb128 0x28
 5595 2051 82180000 		.4byte	0x1882
 5596 2055 F5040000 		.4byte	.LLST32
 5597 2059 00       		.byte	0
 5598 205a 3A       		.uleb128 0x3a
 5599 205b C7180000 		.4byte	0x18c7
 5600 205f 32000000 		.4byte	.LBB45
 5601 2063 10000000 		.4byte	.LBE45-.LBB45
 5602 2067 01       		.byte	0x1
 5603 2068 1001     		.2byte	0x110
 5604 206a 8A200000 		.4byte	0x208a
 5605 206e 28       		.uleb128 0x28
 5606 206f EC180000 		.4byte	0x18ec
 5607 2073 0D050000 		.4byte	.LLST33
 5608 2077 28       		.uleb128 0x28
 5609 2078 E0180000 		.4byte	0x18e0
 5610 207c 35050000 		.4byte	.LLST34
 5611 2080 28       		.uleb128 0x28
 5612 2081 D4180000 		.4byte	0x18d4
 5613 2085 49050000 		.4byte	.LLST35
 5614 2089 00       		.byte	0
 5615 208a 3A       		.uleb128 0x3a
 5616 208b A1180000 		.4byte	0x18a1
 5617 208f 48000000 		.4byte	.LBB47
 5618 2093 06000000 		.4byte	.LBE47-.LBB47
 5619 2097 01       		.byte	0x1
 5620 2098 1201     		.2byte	0x112
 5621 209a B1200000 		.4byte	0x20b1
 5622 209e 28       		.uleb128 0x28
 5623 209f BA180000 		.4byte	0x18ba
 5624 20a3 61050000 		.4byte	.LLST36
 5625 20a7 28       		.uleb128 0x28
 5626 20a8 AE180000 		.4byte	0x18ae
 5627 20ac 75050000 		.4byte	.LLST37
 5628 20b0 00       		.byte	0
ARM GAS  C:\Users\xhuli\AppData\Local\Temp\ccrNCJrA.s 			page 144


 5629 20b1 21       		.uleb128 0x21
 5630 20b2 48000000 		.4byte	.LVL120
 5631 20b6 BD270000 		.4byte	0x27bd
 5632 20ba 22       		.uleb128 0x22
 5633 20bb 01       		.uleb128 0x1
 5634 20bc 50       		.byte	0x50
 5635 20bd 01       		.uleb128 0x1
 5636 20be 31       		.byte	0x31
 5637 20bf 00       		.byte	0
 5638 20c0 00       		.byte	0
 5639 20c1 3B       		.uleb128 0x3b
 5640 20c2 66260000 		.4byte	.LASF507
 5641 20c6 01       		.byte	0x1
 5642 20c7 1901     		.2byte	0x119
 5643 20c9 00000000 		.4byte	.LFB595
 5644 20cd 6C000000 		.4byte	.LFE595-.LFB595
 5645 20d1 01       		.uleb128 0x1
 5646 20d2 9C       		.byte	0x9c
 5647 20d3 44220000 		.4byte	0x2244
 5648 20d7 3C       		.uleb128 0x3c
 5649 20d8 04190000 		.4byte	.LASF508
 5650 20dc 01       		.byte	0x1
 5651 20dd 1901     		.2byte	0x119
 5652 20df A9000000 		.4byte	0xa9
 5653 20e3 8D050000 		.4byte	.LLST38
 5654 20e7 3A       		.uleb128 0x3a
 5655 20e8 A1180000 		.4byte	0x18a1
 5656 20ec 0A000000 		.4byte	.LBB49
 5657 20f0 06000000 		.4byte	.LBE49-.LBB49
 5658 20f4 01       		.byte	0x1
 5659 20f5 1B01     		.2byte	0x11b
 5660 20f7 0E210000 		.4byte	0x210e
 5661 20fb 28       		.uleb128 0x28
 5662 20fc BA180000 		.4byte	0x18ba
 5663 2100 AE050000 		.4byte	.LLST39
 5664 2104 28       		.uleb128 0x28
 5665 2105 AE180000 		.4byte	0x18ae
 5666 2109 C2050000 		.4byte	.LLST40
 5667 210d 00       		.byte	0
 5668 210e 3A       		.uleb128 0x3a
 5669 210f A1180000 		.4byte	0x18a1
 5670 2113 10000000 		.4byte	.LBB51
 5671 2117 08000000 		.4byte	.LBE51-.LBB51
 5672 211b 01       		.byte	0x1
 5673 211c 1C01     		.2byte	0x11c
 5674 211e 35210000 		.4byte	0x2135
 5675 2122 28       		.uleb128 0x28
 5676 2123 BA180000 		.4byte	0x18ba
 5677 2127 DA050000 		.4byte	.LLST41
 5678 212b 28       		.uleb128 0x28
 5679 212c AE180000 		.4byte	0x18ae
 5680 2130 EE050000 		.4byte	.LLST42
 5681 2134 00       		.byte	0
 5682 2135 3A       		.uleb128 0x3a
 5683 2136 75180000 		.4byte	0x1875
 5684 213a 18000000 		.4byte	.LBB53
 5685 213e 08000000 		.4byte	.LBE53-.LBB53
ARM GAS  C:\Users\xhuli\AppData\Local\Temp\ccrNCJrA.s 			page 145


 5686 2142 01       		.byte	0x1
 5687 2143 1E01     		.2byte	0x11e
 5688 2145 5C210000 		.4byte	0x215c
 5689 2149 28       		.uleb128 0x28
 5690 214a 8E180000 		.4byte	0x188e
 5691 214e 06060000 		.4byte	.LLST43
 5692 2152 28       		.uleb128 0x28
 5693 2153 82180000 		.4byte	0x1882
 5694 2157 1A060000 		.4byte	.LLST44
 5695 215b 00       		.byte	0
 5696 215c 3A       		.uleb128 0x3a
 5697 215d 75180000 		.4byte	0x1875
 5698 2161 48000000 		.4byte	.LBB55
 5699 2165 06000000 		.4byte	.LBE55-.LBB55
 5700 2169 01       		.byte	0x1
 5701 216a 2901     		.2byte	0x129
 5702 216c 83210000 		.4byte	0x2183
 5703 2170 28       		.uleb128 0x28
 5704 2171 8E180000 		.4byte	0x188e
 5705 2175 32060000 		.4byte	.LLST45
 5706 2179 28       		.uleb128 0x28
 5707 217a 82180000 		.4byte	0x1882
 5708 217e 46060000 		.4byte	.LLST46
 5709 2182 00       		.byte	0
 5710 2183 3A       		.uleb128 0x3a
 5711 2184 A1180000 		.4byte	0x18a1
 5712 2188 4E000000 		.4byte	.LBB57
 5713 218c 02000000 		.4byte	.LBE57-.LBB57
 5714 2190 01       		.byte	0x1
 5715 2191 2A01     		.2byte	0x12a
 5716 2193 AA210000 		.4byte	0x21aa
 5717 2197 28       		.uleb128 0x28
 5718 2198 BA180000 		.4byte	0x18ba
 5719 219c 5E060000 		.4byte	.LLST47
 5720 21a0 28       		.uleb128 0x28
 5721 21a1 AE180000 		.4byte	0x18ae
 5722 21a5 72060000 		.4byte	.LLST48
 5723 21a9 00       		.byte	0
 5724 21aa 3A       		.uleb128 0x3a
 5725 21ab A1180000 		.4byte	0x18a1
 5726 21af 50000000 		.4byte	.LBB59
 5727 21b3 08000000 		.4byte	.LBE59-.LBB59
 5728 21b7 01       		.byte	0x1
 5729 21b8 2B01     		.2byte	0x12b
 5730 21ba D1210000 		.4byte	0x21d1
 5731 21be 28       		.uleb128 0x28
 5732 21bf BA180000 		.4byte	0x18ba
 5733 21c3 8A060000 		.4byte	.LLST49
 5734 21c7 28       		.uleb128 0x28
 5735 21c8 AE180000 		.4byte	0x18ae
 5736 21cc 9E060000 		.4byte	.LLST50
 5737 21d0 00       		.byte	0
 5738 21d1 29       		.uleb128 0x29
 5739 21d2 0A000000 		.4byte	.LVL127
 5740 21d6 34270000 		.4byte	0x2734
 5741 21da E8210000 		.4byte	0x21e8
 5742 21de 22       		.uleb128 0x22
ARM GAS  C:\Users\xhuli\AppData\Local\Temp\ccrNCJrA.s 			page 146


 5743 21df 01       		.uleb128 0x1
 5744 21e0 50       		.byte	0x50
 5745 21e1 05       		.uleb128 0x5
 5746 21e2 03       		.byte	0x3
 5747 21e3 E0000000 		.4byte	.LC9
 5748 21e7 00       		.byte	0
 5749 21e8 29       		.uleb128 0x29
 5750 21e9 2C000000 		.4byte	.LVL131
 5751 21ed A11F0000 		.4byte	0x1fa1
 5752 21f1 00220000 		.4byte	0x2200
 5753 21f5 22       		.uleb128 0x22
 5754 21f6 01       		.uleb128 0x1
 5755 21f7 50       		.byte	0x50
 5756 21f8 01       		.uleb128 0x1
 5757 21f9 30       		.byte	0x30
 5758 21fa 22       		.uleb128 0x22
 5759 21fb 01       		.uleb128 0x1
 5760 21fc 51       		.byte	0x51
 5761 21fd 01       		.uleb128 0x1
 5762 21fe 31       		.byte	0x31
 5763 21ff 00       		.byte	0
 5764 2200 29       		.uleb128 0x29
 5765 2201 3A000000 		.4byte	.LVL132
 5766 2205 A11F0000 		.4byte	0x1fa1
 5767 2209 18220000 		.4byte	0x2218
 5768 220d 22       		.uleb128 0x22
 5769 220e 01       		.uleb128 0x1
 5770 220f 50       		.byte	0x50
 5771 2210 01       		.uleb128 0x1
 5772 2211 30       		.byte	0x30
 5773 2212 22       		.uleb128 0x22
 5774 2213 01       		.uleb128 0x1
 5775 2214 51       		.byte	0x51
 5776 2215 01       		.uleb128 0x1
 5777 2216 32       		.byte	0x32
 5778 2217 00       		.byte	0
 5779 2218 29       		.uleb128 0x29
 5780 2219 48000000 		.4byte	.LVL133
 5781 221d A11F0000 		.4byte	0x1fa1
 5782 2221 30220000 		.4byte	0x2230
 5783 2225 22       		.uleb128 0x22
 5784 2226 01       		.uleb128 0x1
 5785 2227 50       		.byte	0x50
 5786 2228 01       		.uleb128 0x1
 5787 2229 30       		.byte	0x30
 5788 222a 22       		.uleb128 0x22
 5789 222b 01       		.uleb128 0x1
 5790 222c 51       		.byte	0x51
 5791 222d 01       		.uleb128 0x1
 5792 222e 3C       		.byte	0x3c
 5793 222f 00       		.byte	0
 5794 2230 21       		.uleb128 0x21
 5795 2231 5E000000 		.4byte	.LVL137
 5796 2235 34270000 		.4byte	0x2734
 5797 2239 22       		.uleb128 0x22
 5798 223a 01       		.uleb128 0x1
 5799 223b 50       		.byte	0x50
ARM GAS  C:\Users\xhuli\AppData\Local\Temp\ccrNCJrA.s 			page 147


 5800 223c 05       		.uleb128 0x5
 5801 223d 03       		.byte	0x3
 5802 223e 08010000 		.4byte	.LC10
 5803 2242 00       		.byte	0
 5804 2243 00       		.byte	0
 5805 2244 3B       		.uleb128 0x3b
 5806 2245 5C040000 		.4byte	.LASF509
 5807 2249 01       		.byte	0x1
 5808 224a 3301     		.2byte	0x133
 5809 224c 00000000 		.4byte	.LFB596
 5810 2250 D4000000 		.4byte	.LFE596-.LFB596
 5811 2254 01       		.uleb128 0x1
 5812 2255 9C       		.byte	0x9c
 5813 2256 10240000 		.4byte	0x2410
 5814 225a 3C       		.uleb128 0x3c
 5815 225b 4C170000 		.4byte	.LASF510
 5816 225f 01       		.byte	0x1
 5817 2260 3301     		.2byte	0x133
 5818 2262 D5000000 		.4byte	0xd5
 5819 2266 B6060000 		.4byte	.LLST51
 5820 226a 3C       		.uleb128 0x3c
 5821 226b 84010000 		.4byte	.LASF511
 5822 226f 01       		.byte	0x1
 5823 2270 3301     		.2byte	0x133
 5824 2272 690F0000 		.4byte	0xf69
 5825 2276 86070000 		.4byte	.LLST52
 5826 227a 39       		.uleb128 0x39
 5827 227b 77100000 		.4byte	.LASF512
 5828 227f 01       		.byte	0x1
 5829 2280 3501     		.2byte	0x135
 5830 2282 10240000 		.4byte	0x2410
 5831 2286 4F080000 		.4byte	.LLST53
 5832 228a 3A       		.uleb128 0x3a
 5833 228b 75180000 		.4byte	0x1875
 5834 228f 3E000000 		.4byte	.LBB61
 5835 2293 06000000 		.4byte	.LBE61-.LBB61
 5836 2297 01       		.byte	0x1
 5837 2298 3F01     		.2byte	0x13f
 5838 229a B1220000 		.4byte	0x22b1
 5839 229e 28       		.uleb128 0x28
 5840 229f 8E180000 		.4byte	0x188e
 5841 22a3 AF080000 		.4byte	.LLST54
 5842 22a7 28       		.uleb128 0x28
 5843 22a8 82180000 		.4byte	0x1882
 5844 22ac C3080000 		.4byte	.LLST55
 5845 22b0 00       		.byte	0
 5846 22b1 25       		.uleb128 0x25
 5847 22b2 62000000 		.4byte	.LBB63
 5848 22b6 4A000000 		.4byte	.LBE63-.LBB63
 5849 22ba 68230000 		.4byte	0x2368
 5850 22be 3D       		.uleb128 0x3d
 5851 22bf 76616C00 		.ascii	"val\000"
 5852 22c3 01       		.byte	0x1
 5853 22c4 4E01     		.2byte	0x14e
 5854 22c6 A9000000 		.4byte	0xa9
 5855 22ca DB080000 		.4byte	.LLST56
 5856 22ce 29       		.uleb128 0x29
ARM GAS  C:\Users\xhuli\AppData\Local\Temp\ccrNCJrA.s 			page 148


 5857 22cf 70000000 		.4byte	.LVL155
 5858 22d3 C1200000 		.4byte	0x20c1
 5859 22d7 E1220000 		.4byte	0x22e1
 5860 22db 22       		.uleb128 0x22
 5861 22dc 01       		.uleb128 0x1
 5862 22dd 50       		.byte	0x50
 5863 22de 01       		.uleb128 0x1
 5864 22df 31       		.byte	0x31
 5865 22e0 00       		.byte	0
 5866 22e1 29       		.uleb128 0x29
 5867 22e2 76000000 		.4byte	.LVL156
 5868 22e6 FA260000 		.4byte	0x26fa
 5869 22ea F5220000 		.4byte	0x22f5
 5870 22ee 22       		.uleb128 0x22
 5871 22ef 01       		.uleb128 0x1
 5872 22f0 50       		.byte	0x50
 5873 22f1 02       		.uleb128 0x2
 5874 22f2 08       		.byte	0x8
 5875 22f3 64       		.byte	0x64
 5876 22f4 00       		.byte	0
 5877 22f5 30       		.uleb128 0x30
 5878 22f6 7A000000 		.4byte	.LVL157
 5879 22fa E91A0000 		.4byte	0x1ae9
 5880 22fe 29       		.uleb128 0x29
 5881 22ff 86000000 		.4byte	.LVL161
 5882 2303 C1200000 		.4byte	0x20c1
 5883 2307 11230000 		.4byte	0x2311
 5884 230b 22       		.uleb128 0x22
 5885 230c 01       		.uleb128 0x1
 5886 230d 50       		.byte	0x50
 5887 230e 01       		.uleb128 0x1
 5888 230f 32       		.byte	0x32
 5889 2310 00       		.byte	0
 5890 2311 29       		.uleb128 0x29
 5891 2312 8C000000 		.4byte	.LVL162
 5892 2316 FA260000 		.4byte	0x26fa
 5893 231a 25230000 		.4byte	0x2325
 5894 231e 22       		.uleb128 0x22
 5895 231f 01       		.uleb128 0x1
 5896 2320 50       		.byte	0x50
 5897 2321 02       		.uleb128 0x2
 5898 2322 08       		.byte	0x8
 5899 2323 64       		.byte	0x64
 5900 2324 00       		.byte	0
 5901 2325 30       		.uleb128 0x30
 5902 2326 90000000 		.4byte	.LVL163
 5903 232a E91A0000 		.4byte	0x1ae9
 5904 232e 29       		.uleb128 0x29
 5905 232f 9C000000 		.4byte	.LVL167
 5906 2333 C1200000 		.4byte	0x20c1
 5907 2337 41230000 		.4byte	0x2341
 5908 233b 22       		.uleb128 0x22
 5909 233c 01       		.uleb128 0x1
 5910 233d 50       		.byte	0x50
 5911 233e 01       		.uleb128 0x1
 5912 233f 33       		.byte	0x33
 5913 2340 00       		.byte	0
ARM GAS  C:\Users\xhuli\AppData\Local\Temp\ccrNCJrA.s 			page 149


 5914 2341 29       		.uleb128 0x29
 5915 2342 A2000000 		.4byte	.LVL168
 5916 2346 FA260000 		.4byte	0x26fa
 5917 234a 55230000 		.4byte	0x2355
 5918 234e 22       		.uleb128 0x22
 5919 234f 01       		.uleb128 0x1
 5920 2350 50       		.byte	0x50
 5921 2351 02       		.uleb128 0x2
 5922 2352 08       		.byte	0x8
 5923 2353 64       		.byte	0x64
 5924 2354 00       		.byte	0
 5925 2355 30       		.uleb128 0x30
 5926 2356 A6000000 		.4byte	.LVL169
 5927 235a E91A0000 		.4byte	0x1ae9
 5928 235e 30       		.uleb128 0x30
 5929 235f AC000000 		.4byte	.LVL171
 5930 2363 D41E0000 		.4byte	0x1ed4
 5931 2367 00       		.byte	0
 5932 2368 29       		.uleb128 0x29
 5933 2369 2E000000 		.4byte	.LVL140
 5934 236d 06270000 		.4byte	0x2706
 5935 2371 7F230000 		.4byte	0x237f
 5936 2375 22       		.uleb128 0x22
 5937 2376 01       		.uleb128 0x1
 5938 2377 50       		.byte	0x50
 5939 2378 05       		.uleb128 0x5
 5940 2379 03       		.byte	0x3
 5941 237a 28010000 		.4byte	.LC11
 5942 237e 00       		.byte	0
 5943 237f 29       		.uleb128 0x29
 5944 2380 36000000 		.4byte	.LVL141
 5945 2384 C9270000 		.4byte	0x27c9
 5946 2388 97230000 		.4byte	0x2397
 5947 238c 22       		.uleb128 0x22
 5948 238d 01       		.uleb128 0x1
 5949 238e 50       		.byte	0x50
 5950 238f 01       		.uleb128 0x1
 5951 2390 30       		.byte	0x30
 5952 2391 22       		.uleb128 0x22
 5953 2392 01       		.uleb128 0x1
 5954 2393 51       		.byte	0x51
 5955 2394 01       		.uleb128 0x1
 5956 2395 30       		.byte	0x30
 5957 2396 00       		.byte	0
 5958 2397 29       		.uleb128 0x29
 5959 2398 3E000000 		.4byte	.LVL144
 5960 239c 06270000 		.4byte	0x2706
 5961 23a0 AE230000 		.4byte	0x23ae
 5962 23a4 22       		.uleb128 0x22
 5963 23a5 01       		.uleb128 0x1
 5964 23a6 50       		.byte	0x50
 5965 23a7 05       		.uleb128 0x5
 5966 23a8 03       		.byte	0x3
 5967 23a9 40010000 		.4byte	.LC12
 5968 23ad 00       		.byte	0
 5969 23ae 29       		.uleb128 0x29
 5970 23af 4C000000 		.4byte	.LVL146
ARM GAS  C:\Users\xhuli\AppData\Local\Temp\ccrNCJrA.s 			page 150


 5971 23b3 C9270000 		.4byte	0x27c9
 5972 23b7 C6230000 		.4byte	0x23c6
 5973 23bb 22       		.uleb128 0x22
 5974 23bc 01       		.uleb128 0x1
 5975 23bd 50       		.byte	0x50
 5976 23be 01       		.uleb128 0x1
 5977 23bf 30       		.byte	0x30
 5978 23c0 22       		.uleb128 0x22
 5979 23c1 01       		.uleb128 0x1
 5980 23c2 51       		.byte	0x51
 5981 23c3 01       		.uleb128 0x1
 5982 23c4 30       		.byte	0x30
 5983 23c5 00       		.byte	0
 5984 23c6 29       		.uleb128 0x29
 5985 23c7 52000000 		.4byte	.LVL147
 5986 23cb 06270000 		.4byte	0x2706
 5987 23cf DD230000 		.4byte	0x23dd
 5988 23d3 22       		.uleb128 0x22
 5989 23d4 01       		.uleb128 0x1
 5990 23d5 50       		.byte	0x50
 5991 23d6 05       		.uleb128 0x5
 5992 23d7 03       		.byte	0x3
 5993 23d8 58010000 		.4byte	.LC13
 5994 23dc 00       		.byte	0
 5995 23dd 29       		.uleb128 0x29
 5996 23de 5A000000 		.4byte	.LVL150
 5997 23e2 06270000 		.4byte	0x2706
 5998 23e6 F4230000 		.4byte	0x23f4
 5999 23ea 22       		.uleb128 0x22
 6000 23eb 01       		.uleb128 0x1
 6001 23ec 50       		.byte	0x50
 6002 23ed 05       		.uleb128 0x5
 6003 23ee 03       		.byte	0x3
 6004 23ef 70010000 		.4byte	.LC14
 6005 23f3 00       		.byte	0
 6006 23f4 30       		.uleb128 0x30
 6007 23f5 B2000000 		.4byte	.LVL172
 6008 23f9 D5270000 		.4byte	0x27d5
 6009 23fd 30       		.uleb128 0x30
 6010 23fe B8000000 		.4byte	.LVL174
 6011 2402 411E0000 		.4byte	0x1e41
 6012 2406 30       		.uleb128 0x30
 6013 2407 BC000000 		.4byte	.LVL175
 6014 240b D41E0000 		.4byte	0x1ed4
 6015 240f 00       		.byte	0
 6016 2410 15       		.uleb128 0x15
 6017 2411 04       		.byte	0x4
 6018 2412 D8170000 		.4byte	0x17d8
 6019 2416 3E       		.uleb128 0x3e
 6020 2417 5D0B0000 		.4byte	.LASF513
 6021 241b 01       		.byte	0x1
 6022 241c 7A01     		.2byte	0x17a
 6023 241e 00000000 		.4byte	.LFB598
 6024 2422 5C000000 		.4byte	.LFE598-.LFB598
 6025 2426 01       		.uleb128 0x1
 6026 2427 9C       		.byte	0x9c
 6027 2428 CA240000 		.4byte	0x24ca
ARM GAS  C:\Users\xhuli\AppData\Local\Temp\ccrNCJrA.s 			page 151


 6028 242c 3F       		.uleb128 0x3f
 6029 242d 61726700 		.ascii	"arg\000"
 6030 2431 01       		.byte	0x1
 6031 2432 7A01     		.2byte	0x17a
 6032 2434 690F0000 		.4byte	0xf69
 6033 2438 33090000 		.4byte	.LLST57
 6034 243c 30       		.uleb128 0x30
 6035 243d 06000000 		.4byte	.LVL178
 6036 2441 C31C0000 		.4byte	0x1cc3
 6037 2445 29       		.uleb128 0x29
 6038 2446 0C000000 		.4byte	.LVL179
 6039 244a 06270000 		.4byte	0x2706
 6040 244e 5C240000 		.4byte	0x245c
 6041 2452 22       		.uleb128 0x22
 6042 2453 01       		.uleb128 0x1
 6043 2454 50       		.byte	0x50
 6044 2455 05       		.uleb128 0x5
 6045 2456 03       		.byte	0x3
 6046 2457 88010000 		.4byte	.LC15
 6047 245b 00       		.byte	0
 6048 245c 29       		.uleb128 0x29
 6049 245d 16000000 		.4byte	.LVL180
 6050 2461 E1270000 		.4byte	0x27e1
 6051 2465 75240000 		.4byte	0x2475
 6052 2469 22       		.uleb128 0x22
 6053 246a 01       		.uleb128 0x1
 6054 246b 50       		.byte	0x50
 6055 246c 02       		.uleb128 0x2
 6056 246d 09       		.byte	0x9
 6057 246e FF       		.byte	0xff
 6058 246f 22       		.uleb128 0x22
 6059 2470 01       		.uleb128 0x1
 6060 2471 51       		.byte	0x51
 6061 2472 01       		.uleb128 0x1
 6062 2473 30       		.byte	0x30
 6063 2474 00       		.byte	0
 6064 2475 29       		.uleb128 0x29
 6065 2476 20000000 		.4byte	.LVL181
 6066 247a ED270000 		.4byte	0x27ed
 6067 247e 8C240000 		.4byte	0x248c
 6068 2482 22       		.uleb128 0x22
 6069 2483 01       		.uleb128 0x1
 6070 2484 50       		.byte	0x50
 6071 2485 05       		.uleb128 0x5
 6072 2486 03       		.byte	0x3
 6073 2487 00000000 		.4byte	callback
 6074 248b 00       		.byte	0
 6075 248c 30       		.uleb128 0x30
 6076 248d 26000000 		.4byte	.LVL182
 6077 2491 F8270000 		.4byte	0x27f8
 6078 2495 29       		.uleb128 0x29
 6079 2496 34000000 		.4byte	.LVL183
 6080 249a 04280000 		.4byte	0x2804
 6081 249e AC240000 		.4byte	0x24ac
 6082 24a2 22       		.uleb128 0x22
 6083 24a3 01       		.uleb128 0x1
 6084 24a4 50       		.byte	0x50
ARM GAS  C:\Users\xhuli\AppData\Local\Temp\ccrNCJrA.s 			page 152


 6085 24a5 05       		.uleb128 0x5
 6086 24a6 03       		.byte	0x3
 6087 24a7 00000000 		.4byte	bleInterruptNotify
 6088 24ab 00       		.byte	0
 6089 24ac 29       		.uleb128 0x29
 6090 24ad 40000000 		.4byte	.LVL184
 6091 24b1 10280000 		.4byte	0x2810
 6092 24b5 C0240000 		.4byte	0x24c0
 6093 24b9 22       		.uleb128 0x22
 6094 24ba 01       		.uleb128 0x1
 6095 24bb 51       		.byte	0x51
 6096 24bc 02       		.uleb128 0x2
 6097 24bd 09       		.byte	0x9
 6098 24be FF       		.byte	0xff
 6099 24bf 00       		.byte	0
 6100 24c0 30       		.uleb128 0x30
 6101 24c1 44000000 		.4byte	.LVL185
 6102 24c5 F8270000 		.4byte	0x27f8
 6103 24c9 00       		.byte	0
 6104 24ca 32       		.uleb128 0x32
 6105 24cb 52454400 		.ascii	"RED\000"
 6106 24cf 18       		.byte	0x18
 6107 24d0 1F       		.byte	0x1f
 6108 24d1 D6240000 		.4byte	0x24d6
 6109 24d5 01       		.byte	0x1
 6110 24d6 06       		.uleb128 0x6
 6111 24d7 BF000000 		.4byte	0xbf
 6112 24db 40       		.uleb128 0x40
 6113 24dc 71080000 		.4byte	.LASF514
 6114 24e0 18       		.byte	0x18
 6115 24e1 20       		.byte	0x20
 6116 24e2 D6240000 		.4byte	0x24d6
 6117 24e6 02       		.byte	0x2
 6118 24e7 32       		.uleb128 0x32
 6119 24e8 495200   		.ascii	"IR\000"
 6120 24eb 18       		.byte	0x18
 6121 24ec 21       		.byte	0x21
 6122 24ed D6240000 		.4byte	0x24d6
 6123 24f1 0C       		.byte	0xc
 6124 24f2 33       		.uleb128 0x33
 6125 24f3 51110000 		.4byte	.LASF515
 6126 24f7 01       		.byte	0x1
 6127 24f8 12       		.byte	0x12
 6128 24f9 B1010000 		.4byte	0x1b1
 6129 24fd 05       		.uleb128 0x5
 6130 24fe 03       		.byte	0x3
 6131 24ff 44030000 		.4byte	ADC_bytes
 6132 2503 07       		.uleb128 0x7
 6133 2504 A9000000 		.4byte	0xa9
 6134 2508 13250000 		.4byte	0x2513
 6135 250c 08       		.uleb128 0x8
 6136 250d E0000000 		.4byte	0xe0
 6137 2511 04       		.byte	0x4
 6138 2512 00       		.byte	0
 6139 2513 33       		.uleb128 0x33
 6140 2514 ED200000 		.4byte	.LASF516
 6141 2518 01       		.byte	0x1
ARM GAS  C:\Users\xhuli\AppData\Local\Temp\ccrNCJrA.s 			page 153


 6142 2519 13       		.byte	0x13
 6143 251a 03250000 		.4byte	0x2503
 6144 251e 05       		.uleb128 0x5
 6145 251f 03       		.byte	0x3
 6146 2520 3C030000 		.4byte	I2C_bytes
 6147 2524 07       		.uleb128 0x7
 6148 2525 BF000000 		.4byte	0xbf
 6149 2529 34250000 		.4byte	0x2534
 6150 252d 08       		.uleb128 0x8
 6151 252e E0000000 		.4byte	0xe0
 6152 2532 00       		.byte	0
 6153 2533 00       		.byte	0
 6154 2534 41       		.uleb128 0x41
 6155 2535 4A020000 		.4byte	.LASF568
 6156 2539 01       		.byte	0x1
 6157 253a 16       		.byte	0x16
 6158 253b 24250000 		.4byte	0x2524
 6159 253f 33       		.uleb128 0x33
 6160 2540 1B050000 		.4byte	.LASF517
 6161 2544 01       		.byte	0x1
 6162 2545 17       		.byte	0x17
 6163 2546 A1010000 		.4byte	0x1a1
 6164 254a 05       		.uleb128 0x5
 6165 254b 03       		.byte	0x3
 6166 254c 34030000 		.4byte	I2C_Data
 6167 2550 42       		.uleb128 0x42
 6168 2551 D9160000 		.4byte	.LASF518
 6169 2555 19       		.byte	0x19
 6170 2556 F907     		.2byte	0x7f9
 6171 2558 5C250000 		.4byte	0x255c
 6172 255c 05       		.uleb128 0x5
 6173 255d CA000000 		.4byte	0xca
 6174 2561 43       		.uleb128 0x43
 6175 2562 E2210000 		.4byte	.LASF519
 6176 2566 0A       		.byte	0xa
 6177 2567 A7       		.byte	0xa7
 6178 2568 6C250000 		.4byte	0x256c
 6179 256c 15       		.uleb128 0x15
 6180 256d 04       		.byte	0x4
 6181 256e 72250000 		.4byte	0x2572
 6182 2572 06       		.uleb128 0x6
 6183 2573 440F0000 		.4byte	0xf44
 6184 2577 42       		.uleb128 0x42
 6185 2578 071A0000 		.4byte	.LASF520
 6186 257c 12       		.byte	0x12
 6187 257d 1B02     		.2byte	0x21b
 6188 257f 55170000 		.4byte	0x1755
 6189 2583 42       		.uleb128 0x42
 6190 2584 04250000 		.4byte	.LASF521
 6191 2588 12       		.byte	0x12
 6192 2589 2202     		.2byte	0x222
 6193 258b 85170000 		.4byte	0x1785
 6194 258f 07       		.uleb128 0x7
 6195 2590 81160000 		.4byte	0x1681
 6196 2594 9F250000 		.4byte	0x259f
 6197 2598 08       		.uleb128 0x8
 6198 2599 E0000000 		.4byte	0xe0
ARM GAS  C:\Users\xhuli\AppData\Local\Temp\ccrNCJrA.s 			page 154


 6199 259d 00       		.byte	0
 6200 259e 00       		.byte	0
 6201 259f 42       		.uleb128 0x42
 6202 25a0 0D1F0000 		.4byte	.LASF522
 6203 25a4 12       		.byte	0x12
 6204 25a5 2C02     		.2byte	0x22c
 6205 25a7 8F250000 		.4byte	0x258f
 6206 25ab 07       		.uleb128 0x7
 6207 25ac CD170000 		.4byte	0x17cd
 6208 25b0 BB250000 		.4byte	0x25bb
 6209 25b4 08       		.uleb128 0x8
 6210 25b5 E0000000 		.4byte	0xe0
 6211 25b9 00       		.byte	0
 6212 25ba 00       		.byte	0
 6213 25bb 42       		.uleb128 0x42
 6214 25bc 49240000 		.4byte	.LASF523
 6215 25c0 12       		.byte	0x12
 6216 25c1 2D02     		.2byte	0x22d
 6217 25c3 AB250000 		.4byte	0x25ab
 6218 25c7 42       		.uleb128 0x42
 6219 25c8 05080000 		.4byte	.LASF524
 6220 25cc 12       		.byte	0x12
 6221 25cd 5202     		.2byte	0x252
 6222 25cf A9000000 		.4byte	0xa9
 6223 25d3 42       		.uleb128 0x42
 6224 25d4 27200000 		.4byte	.LASF525
 6225 25d8 02       		.byte	0x2
 6226 25d9 6001     		.2byte	0x160
 6227 25db D5000000 		.4byte	0xd5
 6228 25df 07       		.uleb128 0x7
 6229 25e0 EF250000 		.4byte	0x25ef
 6230 25e4 EF250000 		.4byte	0x25ef
 6231 25e8 08       		.uleb128 0x8
 6232 25e9 E0000000 		.4byte	0xe0
 6233 25ed 00       		.byte	0
 6234 25ee 00       		.byte	0
 6235 25ef 06       		.uleb128 0x6
 6236 25f0 33180000 		.4byte	0x1833
 6237 25f4 42       		.uleb128 0x42
 6238 25f5 5A1F0000 		.4byte	.LASF526
 6239 25f9 02       		.byte	0x2
 6240 25fa 6401     		.2byte	0x164
 6241 25fc 00260000 		.4byte	0x2600
 6242 2600 06       		.uleb128 0x6
 6243 2601 DF250000 		.4byte	0x25df
 6244 2605 43       		.uleb128 0x43
 6245 2606 DE250000 		.4byte	.LASF527
 6246 260a 1A       		.byte	0x1a
 6247 260b 87       		.byte	0x87
 6248 260c 11130000 		.4byte	0x1311
 6249 2610 43       		.uleb128 0x43
 6250 2611 E3230000 		.4byte	.LASF528
 6251 2615 1B       		.byte	0x1b
 6252 2616 7F       		.byte	0x7f
 6253 2617 35120000 		.4byte	0x1235
 6254 261b 44       		.uleb128 0x44
 6255 261c 24050000 		.4byte	.LASF496
ARM GAS  C:\Users\xhuli\AppData\Local\Temp\ccrNCJrA.s 			page 155


 6256 2620 18       		.byte	0x18
 6257 2621 23       		.byte	0x23
 6258 2622 FA160000 		.4byte	0x16fa
 6259 2626 05       		.uleb128 0x5
 6260 2627 03       		.byte	0x3
 6261 2628 00000000 		.4byte	serviceHandle
 6262 262c 44       		.uleb128 0x44
 6263 262d 95160000 		.4byte	.LASF529
 6264 2631 18       		.byte	0x18
 6265 2632 24       		.byte	0x24
 6266 2633 CA160000 		.4byte	0x16ca
 6267 2637 05       		.uleb128 0x5
 6268 2638 03       		.byte	0x3
 6269 2639 00000000 		.4byte	serviceData
 6270 263d 44       		.uleb128 0x44
 6271 263e 43200000 		.4byte	.LASF530
 6272 2642 1C       		.byte	0x1c
 6273 2643 2D       		.byte	0x2d
 6274 2644 25000000 		.4byte	0x25
 6275 2648 05       		.uleb128 0x5
 6276 2649 03       		.byte	0x3
 6277 264a 00000000 		.4byte	temperature
 6278 264e 44       		.uleb128 0x44
 6279 264f CB1D0000 		.4byte	.LASF531
 6280 2653 1C       		.byte	0x1c
 6281 2654 2E       		.byte	0x2e
 6282 2655 A9000000 		.4byte	0xa9
 6283 2659 05       		.uleb128 0x5
 6284 265a 03       		.byte	0x3
 6285 265b 00000000 		.4byte	sensorAddress
 6286 265f 44       		.uleb128 0x44
 6287 2660 901D0000 		.4byte	.LASF532
 6288 2664 01       		.byte	0x1
 6289 2665 0F       		.byte	0xf
 6290 2666 5F180000 		.4byte	0x185f
 6291 266a 05       		.uleb128 0x5
 6292 266b 03       		.byte	0x3
 6293 266c 00000000 		.4byte	bleSemaphore
 6294 2670 44       		.uleb128 0x44
 6295 2671 0D110000 		.4byte	.LASF533
 6296 2675 01       		.byte	0x1
 6297 2676 1A       		.byte	0x1a
 6298 2677 9B000000 		.4byte	0x9b
 6299 267b 05       		.uleb128 0x5
 6300 267c 03       		.byte	0x3
 6301 267d 00000000 		.4byte	num_steps
 6302 2681 44       		.uleb128 0x44
 6303 2682 D0060000 		.4byte	.LASF534
 6304 2686 01       		.byte	0x1
 6305 2687 1B       		.byte	0x1b
 6306 2688 9B000000 		.4byte	0x9b
 6307 268c 05       		.uleb128 0x5
 6308 268d 03       		.byte	0x3
 6309 268e 00000000 		.4byte	beat
 6310 2692 44       		.uleb128 0x44
 6311 2693 1F280000 		.4byte	.LASF535
 6312 2697 01       		.byte	0x1
ARM GAS  C:\Users\xhuli\AppData\Local\Temp\ccrNCJrA.s 			page 156


 6313 2698 1C       		.byte	0x1c
 6314 2699 9B000000 		.4byte	0x9b
 6315 269d 05       		.uleb128 0x5
 6316 269e 03       		.byte	0x3
 6317 269f 00000000 		.4byte	valley
 6318 26a3 44       		.uleb128 0x44
 6319 26a4 9D1D0000 		.4byte	.LASF536
 6320 26a8 01       		.byte	0x1
 6321 26a9 1D       		.byte	0x1d
 6322 26aa 9B000000 		.4byte	0x9b
 6323 26ae 05       		.uleb128 0x5
 6324 26af 03       		.byte	0x3
 6325 26b0 00000000 		.4byte	possible_beat
 6326 26b4 44       		.uleb128 0x44
 6327 26b5 D3100000 		.4byte	.LASF537
 6328 26b9 01       		.byte	0x1
 6329 26ba 1E       		.byte	0x1e
 6330 26bb 9B000000 		.4byte	0x9b
 6331 26bf 05       		.uleb128 0x5
 6332 26c0 03       		.byte	0x3
 6333 26c1 00000000 		.4byte	possible_val
 6334 26c5 44       		.uleb128 0x44
 6335 26c6 E00D0000 		.4byte	.LASF538
 6336 26ca 01       		.byte	0x1
 6337 26cb 21       		.byte	0x21
 6338 26cc B31C0000 		.4byte	0x1cb3
 6339 26d0 05       		.uleb128 0x5
 6340 26d1 03       		.byte	0x3
 6341 26d2 00000000 		.4byte	sample
 6342 26d6 45       		.uleb128 0x45
 6343 26d7 CD180000 		.4byte	.LASF539
 6344 26db CD180000 		.4byte	.LASF539
 6345 26df 15       		.byte	0x15
 6346 26e0 0E05     		.2byte	0x50e
 6347 26e2 45       		.uleb128 0x45
 6348 26e3 530C0000 		.4byte	.LASF540
 6349 26e7 530C0000 		.4byte	.LASF540
 6350 26eb 0B       		.byte	0xb
 6351 26ec 9203     		.2byte	0x392
 6352 26ee 45       		.uleb128 0x45
 6353 26ef AF140000 		.4byte	.LASF541
 6354 26f3 AF140000 		.4byte	.LASF541
 6355 26f7 0C       		.byte	0xc
 6356 26f8 3605     		.2byte	0x536
 6357 26fa 45       		.uleb128 0x45
 6358 26fb 951C0000 		.4byte	.LASF542
 6359 26ff 951C0000 		.4byte	.LASF542
 6360 2703 1D       		.byte	0x1d
 6361 2704 ED02     		.2byte	0x2ed
 6362 2706 46       		.uleb128 0x46
 6363 2707 4C030000 		.4byte	.LASF569
 6364 270b BF160000 		.4byte	.LASF570
 6365 270f 23       		.byte	0x23
 6366 2710 00       		.byte	0
 6367 2711 4C030000 		.4byte	.LASF569
 6368 2715 47       		.uleb128 0x47
 6369 2716 706F7700 		.ascii	"pow\000"
ARM GAS  C:\Users\xhuli\AppData\Local\Temp\ccrNCJrA.s 			page 157


 6370 271a 706F7700 		.ascii	"pow\000"
 6371 271e 1E       		.byte	0x1e
 6372 271f 86       		.byte	0x86
 6373 2720 48       		.uleb128 0x48
 6374 2721 CC1E0000 		.4byte	.LASF543
 6375 2725 CC1E0000 		.4byte	.LASF543
 6376 2729 1E       		.byte	0x1e
 6377 272a 87       		.byte	0x87
 6378 272b 49       		.uleb128 0x49
 6379 272c FD240000 		.4byte	.LASF571
 6380 2730 FD240000 		.4byte	.LASF571
 6381 2734 48       		.uleb128 0x48
 6382 2735 2A0F0000 		.4byte	.LASF544
 6383 2739 2A0F0000 		.4byte	.LASF544
 6384 273d 1F       		.byte	0x1f
 6385 273e BB       		.byte	0xbb
 6386 273f 48       		.uleb128 0x48
 6387 2740 19230000 		.4byte	.LASF545
 6388 2744 19230000 		.4byte	.LASF545
 6389 2748 02       		.byte	0x2
 6390 2749 57       		.byte	0x57
 6391 274a 48       		.uleb128 0x48
 6392 274b 8A0A0000 		.4byte	.LASF546
 6393 274f 8A0A0000 		.4byte	.LASF546
 6394 2753 1A       		.byte	0x1a
 6395 2754 31       		.byte	0x31
 6396 2755 48       		.uleb128 0x48
 6397 2756 F6190000 		.4byte	.LASF547
 6398 275a F6190000 		.4byte	.LASF547
 6399 275e 02       		.byte	0x2
 6400 275f 5A       		.byte	0x5a
 6401 2760 48       		.uleb128 0x48
 6402 2761 DE060000 		.4byte	.LASF548
 6403 2765 DE060000 		.4byte	.LASF548
 6404 2769 1B       		.byte	0x1b
 6405 276a 2E       		.byte	0x2e
 6406 276b 45       		.uleb128 0x45
 6407 276c E0140000 		.4byte	.LASF549
 6408 2770 E0140000 		.4byte	.LASF549
 6409 2774 0D       		.byte	0xd
 6410 2775 5803     		.2byte	0x358
 6411 2777 45       		.uleb128 0x45
 6412 2778 D80C0000 		.4byte	.LASF550
 6413 277c D80C0000 		.4byte	.LASF550
 6414 2780 0D       		.byte	0xd
 6415 2781 5303     		.2byte	0x353
 6416 2783 45       		.uleb128 0x45
 6417 2784 A9010000 		.4byte	.LASF551
 6418 2788 A9010000 		.4byte	.LASF551
 6419 278c 0D       		.byte	0xd
 6420 278d 5A03     		.2byte	0x35a
 6421 278f 45       		.uleb128 0x45
 6422 2790 A01C0000 		.4byte	.LASF552
 6423 2794 A01C0000 		.4byte	.LASF552
 6424 2798 0D       		.byte	0xd
 6425 2799 5503     		.2byte	0x355
 6426 279b 45       		.uleb128 0x45
ARM GAS  C:\Users\xhuli\AppData\Local\Temp\ccrNCJrA.s 			page 158


 6427 279c B5170000 		.4byte	.LASF553
 6428 27a0 B5170000 		.4byte	.LASF553
 6429 27a4 0D       		.byte	0xd
 6430 27a5 5703     		.2byte	0x357
 6431 27a7 48       		.uleb128 0x48
 6432 27a8 0B130000 		.4byte	.LASF554
 6433 27ac 0B130000 		.4byte	.LASF554
 6434 27b0 1F       		.byte	0x1f
 6435 27b1 E7       		.byte	0xe7
 6436 27b2 48       		.uleb128 0x48
 6437 27b3 60250000 		.4byte	.LASF555
 6438 27b7 60250000 		.4byte	.LASF555
 6439 27bb 20       		.byte	0x20
 6440 27bc D5       		.byte	0xd5
 6441 27bd 45       		.uleb128 0x45
 6442 27be 302A0000 		.4byte	.LASF556
 6443 27c2 302A0000 		.4byte	.LASF556
 6444 27c6 0B       		.byte	0xb
 6445 27c7 8903     		.2byte	0x389
 6446 27c9 45       		.uleb128 0x45
 6447 27ca 83150000 		.4byte	.LASF557
 6448 27ce 83150000 		.4byte	.LASF557
 6449 27d2 12       		.byte	0x12
 6450 27d3 F901     		.2byte	0x1f9
 6451 27d5 45       		.uleb128 0x45
 6452 27d6 F0000000 		.4byte	.LASF558
 6453 27da F0000000 		.4byte	.LASF558
 6454 27de 13       		.byte	0x13
 6455 27df 5F01     		.2byte	0x15f
 6456 27e1 45       		.uleb128 0x45
 6457 27e2 85280000 		.4byte	.LASF559
 6458 27e6 85280000 		.4byte	.LASF559
 6459 27ea 15       		.byte	0x15
 6460 27eb 8605     		.2byte	0x586
 6461 27ed 48       		.uleb128 0x48
 6462 27ee 26280000 		.4byte	.LASF560
 6463 27f2 26280000 		.4byte	.LASF560
 6464 27f6 21       		.byte	0x21
 6465 27f7 24       		.byte	0x24
 6466 27f8 45       		.uleb128 0x45
 6467 27f9 F6130000 		.4byte	.LASF561
 6468 27fd F6130000 		.4byte	.LASF561
 6469 2801 0F       		.byte	0xf
 6470 2802 CC08     		.2byte	0x8cc
 6471 2804 45       		.uleb128 0x45
 6472 2805 91260000 		.4byte	.LASF562
 6473 2809 91260000 		.4byte	.LASF562
 6474 280d 22       		.byte	0x22
 6475 280e 7A02     		.2byte	0x27a
 6476 2810 45       		.uleb128 0x45
 6477 2811 00200000 		.4byte	.LASF563
 6478 2815 00200000 		.4byte	.LASF563
 6479 2819 15       		.byte	0x15
 6480 281a 8805     		.2byte	0x588
 6481 281c 00       		.byte	0
 6482              		.section	.debug_abbrev,"",%progbits
 6483              	.Ldebug_abbrev0:
ARM GAS  C:\Users\xhuli\AppData\Local\Temp\ccrNCJrA.s 			page 159


 6484 0000 01       		.uleb128 0x1
 6485 0001 11       		.uleb128 0x11
 6486 0002 01       		.byte	0x1
 6487 0003 25       		.uleb128 0x25
 6488 0004 0E       		.uleb128 0xe
 6489 0005 13       		.uleb128 0x13
 6490 0006 0B       		.uleb128 0xb
 6491 0007 03       		.uleb128 0x3
 6492 0008 0E       		.uleb128 0xe
 6493 0009 1B       		.uleb128 0x1b
 6494 000a 0E       		.uleb128 0xe
 6495 000b 55       		.uleb128 0x55
 6496 000c 17       		.uleb128 0x17
 6497 000d 11       		.uleb128 0x11
 6498 000e 01       		.uleb128 0x1
 6499 000f 10       		.uleb128 0x10
 6500 0010 17       		.uleb128 0x17
 6501 0011 00       		.byte	0
 6502 0012 00       		.byte	0
 6503 0013 02       		.uleb128 0x2
 6504 0014 24       		.uleb128 0x24
 6505 0015 00       		.byte	0
 6506 0016 0B       		.uleb128 0xb
 6507 0017 0B       		.uleb128 0xb
 6508 0018 3E       		.uleb128 0x3e
 6509 0019 0B       		.uleb128 0xb
 6510 001a 03       		.uleb128 0x3
 6511 001b 0E       		.uleb128 0xe
 6512 001c 00       		.byte	0
 6513 001d 00       		.byte	0
 6514 001e 03       		.uleb128 0x3
 6515 001f 16       		.uleb128 0x16
 6516 0020 00       		.byte	0
 6517 0021 03       		.uleb128 0x3
 6518 0022 0E       		.uleb128 0xe
 6519 0023 3A       		.uleb128 0x3a
 6520 0024 0B       		.uleb128 0xb
 6521 0025 3B       		.uleb128 0x3b
 6522 0026 0B       		.uleb128 0xb
 6523 0027 49       		.uleb128 0x49
 6524 0028 13       		.uleb128 0x13
 6525 0029 00       		.byte	0
 6526 002a 00       		.byte	0
 6527 002b 04       		.uleb128 0x4
 6528 002c 24       		.uleb128 0x24
 6529 002d 00       		.byte	0
 6530 002e 0B       		.uleb128 0xb
 6531 002f 0B       		.uleb128 0xb
 6532 0030 3E       		.uleb128 0x3e
 6533 0031 0B       		.uleb128 0xb
 6534 0032 03       		.uleb128 0x3
 6535 0033 08       		.uleb128 0x8
 6536 0034 00       		.byte	0
 6537 0035 00       		.byte	0
 6538 0036 05       		.uleb128 0x5
 6539 0037 35       		.uleb128 0x35
 6540 0038 00       		.byte	0
ARM GAS  C:\Users\xhuli\AppData\Local\Temp\ccrNCJrA.s 			page 160


 6541 0039 49       		.uleb128 0x49
 6542 003a 13       		.uleb128 0x13
 6543 003b 00       		.byte	0
 6544 003c 00       		.byte	0
 6545 003d 06       		.uleb128 0x6
 6546 003e 26       		.uleb128 0x26
 6547 003f 00       		.byte	0
 6548 0040 49       		.uleb128 0x49
 6549 0041 13       		.uleb128 0x13
 6550 0042 00       		.byte	0
 6551 0043 00       		.byte	0
 6552 0044 07       		.uleb128 0x7
 6553 0045 01       		.uleb128 0x1
 6554 0046 01       		.byte	0x1
 6555 0047 49       		.uleb128 0x49
 6556 0048 13       		.uleb128 0x13
 6557 0049 01       		.uleb128 0x1
 6558 004a 13       		.uleb128 0x13
 6559 004b 00       		.byte	0
 6560 004c 00       		.byte	0
 6561 004d 08       		.uleb128 0x8
 6562 004e 21       		.uleb128 0x21
 6563 004f 00       		.byte	0
 6564 0050 49       		.uleb128 0x49
 6565 0051 13       		.uleb128 0x13
 6566 0052 2F       		.uleb128 0x2f
 6567 0053 0B       		.uleb128 0xb
 6568 0054 00       		.byte	0
 6569 0055 00       		.byte	0
 6570 0056 09       		.uleb128 0x9
 6571 0057 13       		.uleb128 0x13
 6572 0058 01       		.byte	0x1
 6573 0059 0B       		.uleb128 0xb
 6574 005a 0B       		.uleb128 0xb
 6575 005b 3A       		.uleb128 0x3a
 6576 005c 0B       		.uleb128 0xb
 6577 005d 3B       		.uleb128 0x3b
 6578 005e 0B       		.uleb128 0xb
 6579 005f 01       		.uleb128 0x1
 6580 0060 13       		.uleb128 0x13
 6581 0061 00       		.byte	0
 6582 0062 00       		.byte	0
 6583 0063 0A       		.uleb128 0xa
 6584 0064 0D       		.uleb128 0xd
 6585 0065 00       		.byte	0
 6586 0066 03       		.uleb128 0x3
 6587 0067 08       		.uleb128 0x8
 6588 0068 3A       		.uleb128 0x3a
 6589 0069 0B       		.uleb128 0xb
 6590 006a 3B       		.uleb128 0x3b
 6591 006b 0B       		.uleb128 0xb
 6592 006c 49       		.uleb128 0x49
 6593 006d 13       		.uleb128 0x13
 6594 006e 38       		.uleb128 0x38
 6595 006f 0B       		.uleb128 0xb
 6596 0070 00       		.byte	0
 6597 0071 00       		.byte	0
ARM GAS  C:\Users\xhuli\AppData\Local\Temp\ccrNCJrA.s 			page 161


 6598 0072 0B       		.uleb128 0xb
 6599 0073 0D       		.uleb128 0xd
 6600 0074 00       		.byte	0
 6601 0075 03       		.uleb128 0x3
 6602 0076 0E       		.uleb128 0xe
 6603 0077 3A       		.uleb128 0x3a
 6604 0078 0B       		.uleb128 0xb
 6605 0079 3B       		.uleb128 0x3b
 6606 007a 0B       		.uleb128 0xb
 6607 007b 49       		.uleb128 0x49
 6608 007c 13       		.uleb128 0x13
 6609 007d 38       		.uleb128 0x38
 6610 007e 0B       		.uleb128 0xb
 6611 007f 00       		.byte	0
 6612 0080 00       		.byte	0
 6613 0081 0C       		.uleb128 0xc
 6614 0082 13       		.uleb128 0x13
 6615 0083 01       		.byte	0x1
 6616 0084 0B       		.uleb128 0xb
 6617 0085 05       		.uleb128 0x5
 6618 0086 3A       		.uleb128 0x3a
 6619 0087 0B       		.uleb128 0xb
 6620 0088 3B       		.uleb128 0x3b
 6621 0089 0B       		.uleb128 0xb
 6622 008a 01       		.uleb128 0x1
 6623 008b 13       		.uleb128 0x13
 6624 008c 00       		.byte	0
 6625 008d 00       		.byte	0
 6626 008e 0D       		.uleb128 0xd
 6627 008f 0D       		.uleb128 0xd
 6628 0090 00       		.byte	0
 6629 0091 03       		.uleb128 0x3
 6630 0092 0E       		.uleb128 0xe
 6631 0093 3A       		.uleb128 0x3a
 6632 0094 0B       		.uleb128 0xb
 6633 0095 3B       		.uleb128 0x3b
 6634 0096 0B       		.uleb128 0xb
 6635 0097 49       		.uleb128 0x49
 6636 0098 13       		.uleb128 0x13
 6637 0099 38       		.uleb128 0x38
 6638 009a 05       		.uleb128 0x5
 6639 009b 00       		.byte	0
 6640 009c 00       		.byte	0
 6641 009d 0E       		.uleb128 0xe
 6642 009e 21       		.uleb128 0x21
 6643 009f 00       		.byte	0
 6644 00a0 49       		.uleb128 0x49
 6645 00a1 13       		.uleb128 0x13
 6646 00a2 2F       		.uleb128 0x2f
 6647 00a3 05       		.uleb128 0x5
 6648 00a4 00       		.byte	0
 6649 00a5 00       		.byte	0
 6650 00a6 0F       		.uleb128 0xf
 6651 00a7 16       		.uleb128 0x16
 6652 00a8 00       		.byte	0
 6653 00a9 03       		.uleb128 0x3
 6654 00aa 0E       		.uleb128 0xe
ARM GAS  C:\Users\xhuli\AppData\Local\Temp\ccrNCJrA.s 			page 162


 6655 00ab 3A       		.uleb128 0x3a
 6656 00ac 0B       		.uleb128 0xb
 6657 00ad 3B       		.uleb128 0x3b
 6658 00ae 05       		.uleb128 0x5
 6659 00af 49       		.uleb128 0x49
 6660 00b0 13       		.uleb128 0x13
 6661 00b1 00       		.byte	0
 6662 00b2 00       		.byte	0
 6663 00b3 10       		.uleb128 0x10
 6664 00b4 0F       		.uleb128 0xf
 6665 00b5 00       		.byte	0
 6666 00b6 0B       		.uleb128 0xb
 6667 00b7 0B       		.uleb128 0xb
 6668 00b8 00       		.byte	0
 6669 00b9 00       		.byte	0
 6670 00ba 11       		.uleb128 0x11
 6671 00bb 04       		.uleb128 0x4
 6672 00bc 01       		.byte	0x1
 6673 00bd 0B       		.uleb128 0xb
 6674 00be 0B       		.uleb128 0xb
 6675 00bf 49       		.uleb128 0x49
 6676 00c0 13       		.uleb128 0x13
 6677 00c1 3A       		.uleb128 0x3a
 6678 00c2 0B       		.uleb128 0xb
 6679 00c3 3B       		.uleb128 0x3b
 6680 00c4 05       		.uleb128 0x5
 6681 00c5 01       		.uleb128 0x1
 6682 00c6 13       		.uleb128 0x13
 6683 00c7 00       		.byte	0
 6684 00c8 00       		.byte	0
 6685 00c9 12       		.uleb128 0x12
 6686 00ca 28       		.uleb128 0x28
 6687 00cb 00       		.byte	0
 6688 00cc 03       		.uleb128 0x3
 6689 00cd 0E       		.uleb128 0xe
 6690 00ce 1C       		.uleb128 0x1c
 6691 00cf 0B       		.uleb128 0xb
 6692 00d0 00       		.byte	0
 6693 00d1 00       		.byte	0
 6694 00d2 13       		.uleb128 0x13
 6695 00d3 13       		.uleb128 0x13
 6696 00d4 01       		.byte	0x1
 6697 00d5 0B       		.uleb128 0xb
 6698 00d6 0B       		.uleb128 0xb
 6699 00d7 3A       		.uleb128 0x3a
 6700 00d8 0B       		.uleb128 0xb
 6701 00d9 3B       		.uleb128 0x3b
 6702 00da 05       		.uleb128 0x5
 6703 00db 01       		.uleb128 0x1
 6704 00dc 13       		.uleb128 0x13
 6705 00dd 00       		.byte	0
 6706 00de 00       		.byte	0
 6707 00df 14       		.uleb128 0x14
 6708 00e0 0D       		.uleb128 0xd
 6709 00e1 00       		.byte	0
 6710 00e2 03       		.uleb128 0x3
 6711 00e3 0E       		.uleb128 0xe
ARM GAS  C:\Users\xhuli\AppData\Local\Temp\ccrNCJrA.s 			page 163


 6712 00e4 3A       		.uleb128 0x3a
 6713 00e5 0B       		.uleb128 0xb
 6714 00e6 3B       		.uleb128 0x3b
 6715 00e7 05       		.uleb128 0x5
 6716 00e8 49       		.uleb128 0x49
 6717 00e9 13       		.uleb128 0x13
 6718 00ea 38       		.uleb128 0x38
 6719 00eb 0B       		.uleb128 0xb
 6720 00ec 00       		.byte	0
 6721 00ed 00       		.byte	0
 6722 00ee 15       		.uleb128 0x15
 6723 00ef 0F       		.uleb128 0xf
 6724 00f0 00       		.byte	0
 6725 00f1 0B       		.uleb128 0xb
 6726 00f2 0B       		.uleb128 0xb
 6727 00f3 49       		.uleb128 0x49
 6728 00f4 13       		.uleb128 0x13
 6729 00f5 00       		.byte	0
 6730 00f6 00       		.byte	0
 6731 00f7 16       		.uleb128 0x16
 6732 00f8 15       		.uleb128 0x15
 6733 00f9 01       		.byte	0x1
 6734 00fa 27       		.uleb128 0x27
 6735 00fb 19       		.uleb128 0x19
 6736 00fc 01       		.uleb128 0x1
 6737 00fd 13       		.uleb128 0x13
 6738 00fe 00       		.byte	0
 6739 00ff 00       		.byte	0
 6740 0100 17       		.uleb128 0x17
 6741 0101 05       		.uleb128 0x5
 6742 0102 00       		.byte	0
 6743 0103 49       		.uleb128 0x49
 6744 0104 13       		.uleb128 0x13
 6745 0105 00       		.byte	0
 6746 0106 00       		.byte	0
 6747 0107 18       		.uleb128 0x18
 6748 0108 15       		.uleb128 0x15
 6749 0109 01       		.byte	0x1
 6750 010a 27       		.uleb128 0x27
 6751 010b 19       		.uleb128 0x19
 6752 010c 49       		.uleb128 0x49
 6753 010d 13       		.uleb128 0x13
 6754 010e 01       		.uleb128 0x1
 6755 010f 13       		.uleb128 0x13
 6756 0110 00       		.byte	0
 6757 0111 00       		.byte	0
 6758 0112 19       		.uleb128 0x19
 6759 0113 13       		.uleb128 0x13
 6760 0114 01       		.byte	0x1
 6761 0115 03       		.uleb128 0x3
 6762 0116 0E       		.uleb128 0xe
 6763 0117 0B       		.uleb128 0xb
 6764 0118 0B       		.uleb128 0xb
 6765 0119 3A       		.uleb128 0x3a
 6766 011a 0B       		.uleb128 0xb
 6767 011b 3B       		.uleb128 0x3b
 6768 011c 05       		.uleb128 0x5
ARM GAS  C:\Users\xhuli\AppData\Local\Temp\ccrNCJrA.s 			page 164


 6769 011d 01       		.uleb128 0x1
 6770 011e 13       		.uleb128 0x13
 6771 011f 00       		.byte	0
 6772 0120 00       		.byte	0
 6773 0121 1A       		.uleb128 0x1a
 6774 0122 28       		.uleb128 0x28
 6775 0123 00       		.byte	0
 6776 0124 03       		.uleb128 0x3
 6777 0125 0E       		.uleb128 0xe
 6778 0126 1C       		.uleb128 0x1c
 6779 0127 05       		.uleb128 0x5
 6780 0128 00       		.byte	0
 6781 0129 00       		.byte	0
 6782 012a 1B       		.uleb128 0x1b
 6783 012b 0D       		.uleb128 0xd
 6784 012c 00       		.byte	0
 6785 012d 03       		.uleb128 0x3
 6786 012e 08       		.uleb128 0x8
 6787 012f 3A       		.uleb128 0x3a
 6788 0130 0B       		.uleb128 0xb
 6789 0131 3B       		.uleb128 0x3b
 6790 0132 05       		.uleb128 0x5
 6791 0133 49       		.uleb128 0x49
 6792 0134 13       		.uleb128 0x13
 6793 0135 38       		.uleb128 0x38
 6794 0136 0B       		.uleb128 0xb
 6795 0137 00       		.byte	0
 6796 0138 00       		.byte	0
 6797 0139 1C       		.uleb128 0x1c
 6798 013a 04       		.uleb128 0x4
 6799 013b 01       		.byte	0x1
 6800 013c 0B       		.uleb128 0xb
 6801 013d 0B       		.uleb128 0xb
 6802 013e 49       		.uleb128 0x49
 6803 013f 13       		.uleb128 0x13
 6804 0140 3A       		.uleb128 0x3a
 6805 0141 0B       		.uleb128 0xb
 6806 0142 3B       		.uleb128 0x3b
 6807 0143 0B       		.uleb128 0xb
 6808 0144 01       		.uleb128 0x1
 6809 0145 13       		.uleb128 0x13
 6810 0146 00       		.byte	0
 6811 0147 00       		.byte	0
 6812 0148 1D       		.uleb128 0x1d
 6813 0149 2E       		.uleb128 0x2e
 6814 014a 01       		.byte	0x1
 6815 014b 03       		.uleb128 0x3
 6816 014c 0E       		.uleb128 0xe
 6817 014d 3A       		.uleb128 0x3a
 6818 014e 0B       		.uleb128 0xb
 6819 014f 3B       		.uleb128 0x3b
 6820 0150 05       		.uleb128 0x5
 6821 0151 27       		.uleb128 0x27
 6822 0152 19       		.uleb128 0x19
 6823 0153 20       		.uleb128 0x20
 6824 0154 0B       		.uleb128 0xb
 6825 0155 01       		.uleb128 0x1
ARM GAS  C:\Users\xhuli\AppData\Local\Temp\ccrNCJrA.s 			page 165


 6826 0156 13       		.uleb128 0x13
 6827 0157 00       		.byte	0
 6828 0158 00       		.byte	0
 6829 0159 1E       		.uleb128 0x1e
 6830 015a 05       		.uleb128 0x5
 6831 015b 00       		.byte	0
 6832 015c 03       		.uleb128 0x3
 6833 015d 0E       		.uleb128 0xe
 6834 015e 3A       		.uleb128 0x3a
 6835 015f 0B       		.uleb128 0xb
 6836 0160 3B       		.uleb128 0x3b
 6837 0161 05       		.uleb128 0x5
 6838 0162 49       		.uleb128 0x49
 6839 0163 13       		.uleb128 0x13
 6840 0164 00       		.byte	0
 6841 0165 00       		.byte	0
 6842 0166 1F       		.uleb128 0x1f
 6843 0167 2E       		.uleb128 0x2e
 6844 0168 01       		.byte	0x1
 6845 0169 3F       		.uleb128 0x3f
 6846 016a 19       		.uleb128 0x19
 6847 016b 03       		.uleb128 0x3
 6848 016c 0E       		.uleb128 0xe
 6849 016d 3A       		.uleb128 0x3a
 6850 016e 0B       		.uleb128 0xb
 6851 016f 3B       		.uleb128 0x3b
 6852 0170 05       		.uleb128 0x5
 6853 0171 11       		.uleb128 0x11
 6854 0172 01       		.uleb128 0x1
 6855 0173 12       		.uleb128 0x12
 6856 0174 06       		.uleb128 0x6
 6857 0175 40       		.uleb128 0x40
 6858 0176 18       		.uleb128 0x18
 6859 0177 9742     		.uleb128 0x2117
 6860 0179 19       		.uleb128 0x19
 6861 017a 01       		.uleb128 0x1
 6862 017b 13       		.uleb128 0x13
 6863 017c 00       		.byte	0
 6864 017d 00       		.byte	0
 6865 017e 20       		.uleb128 0x20
 6866 017f 34       		.uleb128 0x34
 6867 0180 00       		.byte	0
 6868 0181 03       		.uleb128 0x3
 6869 0182 0E       		.uleb128 0xe
 6870 0183 3A       		.uleb128 0x3a
 6871 0184 0B       		.uleb128 0xb
 6872 0185 3B       		.uleb128 0x3b
 6873 0186 05       		.uleb128 0x5
 6874 0187 49       		.uleb128 0x49
 6875 0188 13       		.uleb128 0x13
 6876 0189 02       		.uleb128 0x2
 6877 018a 18       		.uleb128 0x18
 6878 018b 00       		.byte	0
 6879 018c 00       		.byte	0
 6880 018d 21       		.uleb128 0x21
 6881 018e 898201   		.uleb128 0x4109
 6882 0191 01       		.byte	0x1
ARM GAS  C:\Users\xhuli\AppData\Local\Temp\ccrNCJrA.s 			page 166


 6883 0192 11       		.uleb128 0x11
 6884 0193 01       		.uleb128 0x1
 6885 0194 31       		.uleb128 0x31
 6886 0195 13       		.uleb128 0x13
 6887 0196 00       		.byte	0
 6888 0197 00       		.byte	0
 6889 0198 22       		.uleb128 0x22
 6890 0199 8A8201   		.uleb128 0x410a
 6891 019c 00       		.byte	0
 6892 019d 02       		.uleb128 0x2
 6893 019e 18       		.uleb128 0x18
 6894 019f 9142     		.uleb128 0x2111
 6895 01a1 18       		.uleb128 0x18
 6896 01a2 00       		.byte	0
 6897 01a3 00       		.byte	0
 6898 01a4 23       		.uleb128 0x23
 6899 01a5 2E       		.uleb128 0x2e
 6900 01a6 01       		.byte	0x1
 6901 01a7 03       		.uleb128 0x3
 6902 01a8 0E       		.uleb128 0xe
 6903 01a9 3A       		.uleb128 0x3a
 6904 01aa 0B       		.uleb128 0xb
 6905 01ab 3B       		.uleb128 0x3b
 6906 01ac 05       		.uleb128 0x5
 6907 01ad 27       		.uleb128 0x27
 6908 01ae 19       		.uleb128 0x19
 6909 01af 49       		.uleb128 0x49
 6910 01b0 13       		.uleb128 0x13
 6911 01b1 20       		.uleb128 0x20
 6912 01b2 0B       		.uleb128 0xb
 6913 01b3 01       		.uleb128 0x1
 6914 01b4 13       		.uleb128 0x13
 6915 01b5 00       		.byte	0
 6916 01b6 00       		.byte	0
 6917 01b7 24       		.uleb128 0x24
 6918 01b8 2E       		.uleb128 0x2e
 6919 01b9 01       		.byte	0x1
 6920 01ba 3F       		.uleb128 0x3f
 6921 01bb 19       		.uleb128 0x19
 6922 01bc 03       		.uleb128 0x3
 6923 01bd 0E       		.uleb128 0xe
 6924 01be 3A       		.uleb128 0x3a
 6925 01bf 0B       		.uleb128 0xb
 6926 01c0 3B       		.uleb128 0x3b
 6927 01c1 0B       		.uleb128 0xb
 6928 01c2 11       		.uleb128 0x11
 6929 01c3 01       		.uleb128 0x1
 6930 01c4 12       		.uleb128 0x12
 6931 01c5 06       		.uleb128 0x6
 6932 01c6 40       		.uleb128 0x40
 6933 01c7 18       		.uleb128 0x18
 6934 01c8 9742     		.uleb128 0x2117
 6935 01ca 19       		.uleb128 0x19
 6936 01cb 01       		.uleb128 0x1
 6937 01cc 13       		.uleb128 0x13
 6938 01cd 00       		.byte	0
 6939 01ce 00       		.byte	0
ARM GAS  C:\Users\xhuli\AppData\Local\Temp\ccrNCJrA.s 			page 167


 6940 01cf 25       		.uleb128 0x25
 6941 01d0 0B       		.uleb128 0xb
 6942 01d1 01       		.byte	0x1
 6943 01d2 11       		.uleb128 0x11
 6944 01d3 01       		.uleb128 0x1
 6945 01d4 12       		.uleb128 0x12
 6946 01d5 06       		.uleb128 0x6
 6947 01d6 01       		.uleb128 0x1
 6948 01d7 13       		.uleb128 0x13
 6949 01d8 00       		.byte	0
 6950 01d9 00       		.byte	0
 6951 01da 26       		.uleb128 0x26
 6952 01db 34       		.uleb128 0x34
 6953 01dc 00       		.byte	0
 6954 01dd 03       		.uleb128 0x3
 6955 01de 08       		.uleb128 0x8
 6956 01df 3A       		.uleb128 0x3a
 6957 01e0 0B       		.uleb128 0xb
 6958 01e1 3B       		.uleb128 0x3b
 6959 01e2 0B       		.uleb128 0xb
 6960 01e3 49       		.uleb128 0x49
 6961 01e4 13       		.uleb128 0x13
 6962 01e5 02       		.uleb128 0x2
 6963 01e6 17       		.uleb128 0x17
 6964 01e7 00       		.byte	0
 6965 01e8 00       		.byte	0
 6966 01e9 27       		.uleb128 0x27
 6967 01ea 1D       		.uleb128 0x1d
 6968 01eb 01       		.byte	0x1
 6969 01ec 31       		.uleb128 0x31
 6970 01ed 13       		.uleb128 0x13
 6971 01ee 11       		.uleb128 0x11
 6972 01ef 01       		.uleb128 0x1
 6973 01f0 12       		.uleb128 0x12
 6974 01f1 06       		.uleb128 0x6
 6975 01f2 58       		.uleb128 0x58
 6976 01f3 0B       		.uleb128 0xb
 6977 01f4 59       		.uleb128 0x59
 6978 01f5 0B       		.uleb128 0xb
 6979 01f6 01       		.uleb128 0x1
 6980 01f7 13       		.uleb128 0x13
 6981 01f8 00       		.byte	0
 6982 01f9 00       		.byte	0
 6983 01fa 28       		.uleb128 0x28
 6984 01fb 05       		.uleb128 0x5
 6985 01fc 00       		.byte	0
 6986 01fd 31       		.uleb128 0x31
 6987 01fe 13       		.uleb128 0x13
 6988 01ff 02       		.uleb128 0x2
 6989 0200 17       		.uleb128 0x17
 6990 0201 00       		.byte	0
 6991 0202 00       		.byte	0
 6992 0203 29       		.uleb128 0x29
 6993 0204 898201   		.uleb128 0x4109
 6994 0207 01       		.byte	0x1
 6995 0208 11       		.uleb128 0x11
 6996 0209 01       		.uleb128 0x1
ARM GAS  C:\Users\xhuli\AppData\Local\Temp\ccrNCJrA.s 			page 168


 6997 020a 31       		.uleb128 0x31
 6998 020b 13       		.uleb128 0x13
 6999 020c 01       		.uleb128 0x1
 7000 020d 13       		.uleb128 0x13
 7001 020e 00       		.byte	0
 7002 020f 00       		.byte	0
 7003 0210 2A       		.uleb128 0x2a
 7004 0211 2E       		.uleb128 0x2e
 7005 0212 01       		.byte	0x1
 7006 0213 3F       		.uleb128 0x3f
 7007 0214 19       		.uleb128 0x19
 7008 0215 03       		.uleb128 0x3
 7009 0216 0E       		.uleb128 0xe
 7010 0217 3A       		.uleb128 0x3a
 7011 0218 0B       		.uleb128 0xb
 7012 0219 3B       		.uleb128 0x3b
 7013 021a 0B       		.uleb128 0xb
 7014 021b 27       		.uleb128 0x27
 7015 021c 19       		.uleb128 0x19
 7016 021d 49       		.uleb128 0x49
 7017 021e 13       		.uleb128 0x13
 7018 021f 11       		.uleb128 0x11
 7019 0220 01       		.uleb128 0x1
 7020 0221 12       		.uleb128 0x12
 7021 0222 06       		.uleb128 0x6
 7022 0223 40       		.uleb128 0x40
 7023 0224 18       		.uleb128 0x18
 7024 0225 9742     		.uleb128 0x2117
 7025 0227 19       		.uleb128 0x19
 7026 0228 01       		.uleb128 0x1
 7027 0229 13       		.uleb128 0x13
 7028 022a 00       		.byte	0
 7029 022b 00       		.byte	0
 7030 022c 2B       		.uleb128 0x2b
 7031 022d 05       		.uleb128 0x5
 7032 022e 00       		.byte	0
 7033 022f 03       		.uleb128 0x3
 7034 0230 0E       		.uleb128 0xe
 7035 0231 3A       		.uleb128 0x3a
 7036 0232 0B       		.uleb128 0xb
 7037 0233 3B       		.uleb128 0x3b
 7038 0234 0B       		.uleb128 0xb
 7039 0235 49       		.uleb128 0x49
 7040 0236 13       		.uleb128 0x13
 7041 0237 02       		.uleb128 0x2
 7042 0238 17       		.uleb128 0x17
 7043 0239 00       		.byte	0
 7044 023a 00       		.byte	0
 7045 023b 2C       		.uleb128 0x2c
 7046 023c 05       		.uleb128 0x5
 7047 023d 00       		.byte	0
 7048 023e 03       		.uleb128 0x3
 7049 023f 08       		.uleb128 0x8
 7050 0240 3A       		.uleb128 0x3a
 7051 0241 0B       		.uleb128 0xb
 7052 0242 3B       		.uleb128 0x3b
 7053 0243 0B       		.uleb128 0xb
ARM GAS  C:\Users\xhuli\AppData\Local\Temp\ccrNCJrA.s 			page 169


 7054 0244 49       		.uleb128 0x49
 7055 0245 13       		.uleb128 0x13
 7056 0246 02       		.uleb128 0x2
 7057 0247 18       		.uleb128 0x18
 7058 0248 00       		.byte	0
 7059 0249 00       		.byte	0
 7060 024a 2D       		.uleb128 0x2d
 7061 024b 34       		.uleb128 0x34
 7062 024c 00       		.byte	0
 7063 024d 03       		.uleb128 0x3
 7064 024e 0E       		.uleb128 0xe
 7065 024f 3A       		.uleb128 0x3a
 7066 0250 0B       		.uleb128 0xb
 7067 0251 3B       		.uleb128 0x3b
 7068 0252 0B       		.uleb128 0xb
 7069 0253 49       		.uleb128 0x49
 7070 0254 13       		.uleb128 0x13
 7071 0255 02       		.uleb128 0x2
 7072 0256 17       		.uleb128 0x17
 7073 0257 00       		.byte	0
 7074 0258 00       		.byte	0
 7075 0259 2E       		.uleb128 0x2e
 7076 025a 2E       		.uleb128 0x2e
 7077 025b 01       		.byte	0x1
 7078 025c 3F       		.uleb128 0x3f
 7079 025d 19       		.uleb128 0x19
 7080 025e 03       		.uleb128 0x3
 7081 025f 0E       		.uleb128 0xe
 7082 0260 3A       		.uleb128 0x3a
 7083 0261 0B       		.uleb128 0xb
 7084 0262 3B       		.uleb128 0x3b
 7085 0263 0B       		.uleb128 0xb
 7086 0264 27       		.uleb128 0x27
 7087 0265 19       		.uleb128 0x19
 7088 0266 49       		.uleb128 0x49
 7089 0267 13       		.uleb128 0x13
 7090 0268 11       		.uleb128 0x11
 7091 0269 01       		.uleb128 0x1
 7092 026a 12       		.uleb128 0x12
 7093 026b 06       		.uleb128 0x6
 7094 026c 40       		.uleb128 0x40
 7095 026d 18       		.uleb128 0x18
 7096 026e 9642     		.uleb128 0x2116
 7097 0270 19       		.uleb128 0x19
 7098 0271 01       		.uleb128 0x1
 7099 0272 13       		.uleb128 0x13
 7100 0273 00       		.byte	0
 7101 0274 00       		.byte	0
 7102 0275 2F       		.uleb128 0x2f
 7103 0276 05       		.uleb128 0x5
 7104 0277 00       		.byte	0
 7105 0278 03       		.uleb128 0x3
 7106 0279 08       		.uleb128 0x8
 7107 027a 3A       		.uleb128 0x3a
 7108 027b 0B       		.uleb128 0xb
 7109 027c 3B       		.uleb128 0x3b
 7110 027d 0B       		.uleb128 0xb
ARM GAS  C:\Users\xhuli\AppData\Local\Temp\ccrNCJrA.s 			page 170


 7111 027e 49       		.uleb128 0x49
 7112 027f 13       		.uleb128 0x13
 7113 0280 02       		.uleb128 0x2
 7114 0281 17       		.uleb128 0x17
 7115 0282 00       		.byte	0
 7116 0283 00       		.byte	0
 7117 0284 30       		.uleb128 0x30
 7118 0285 898201   		.uleb128 0x4109
 7119 0288 00       		.byte	0
 7120 0289 11       		.uleb128 0x11
 7121 028a 01       		.uleb128 0x1
 7122 028b 31       		.uleb128 0x31
 7123 028c 13       		.uleb128 0x13
 7124 028d 00       		.byte	0
 7125 028e 00       		.byte	0
 7126 028f 31       		.uleb128 0x31
 7127 0290 2E       		.uleb128 0x2e
 7128 0291 01       		.byte	0x1
 7129 0292 3F       		.uleb128 0x3f
 7130 0293 19       		.uleb128 0x19
 7131 0294 03       		.uleb128 0x3
 7132 0295 0E       		.uleb128 0xe
 7133 0296 3A       		.uleb128 0x3a
 7134 0297 0B       		.uleb128 0xb
 7135 0298 3B       		.uleb128 0x3b
 7136 0299 0B       		.uleb128 0xb
 7137 029a 11       		.uleb128 0x11
 7138 029b 01       		.uleb128 0x1
 7139 029c 12       		.uleb128 0x12
 7140 029d 06       		.uleb128 0x6
 7141 029e 40       		.uleb128 0x40
 7142 029f 18       		.uleb128 0x18
 7143 02a0 9642     		.uleb128 0x2116
 7144 02a2 19       		.uleb128 0x19
 7145 02a3 01       		.uleb128 0x1
 7146 02a4 13       		.uleb128 0x13
 7147 02a5 00       		.byte	0
 7148 02a6 00       		.byte	0
 7149 02a7 32       		.uleb128 0x32
 7150 02a8 34       		.uleb128 0x34
 7151 02a9 00       		.byte	0
 7152 02aa 03       		.uleb128 0x3
 7153 02ab 08       		.uleb128 0x8
 7154 02ac 3A       		.uleb128 0x3a
 7155 02ad 0B       		.uleb128 0xb
 7156 02ae 3B       		.uleb128 0x3b
 7157 02af 0B       		.uleb128 0xb
 7158 02b0 49       		.uleb128 0x49
 7159 02b1 13       		.uleb128 0x13
 7160 02b2 1C       		.uleb128 0x1c
 7161 02b3 0B       		.uleb128 0xb
 7162 02b4 00       		.byte	0
 7163 02b5 00       		.byte	0
 7164 02b6 33       		.uleb128 0x33
 7165 02b7 34       		.uleb128 0x34
 7166 02b8 00       		.byte	0
 7167 02b9 03       		.uleb128 0x3
ARM GAS  C:\Users\xhuli\AppData\Local\Temp\ccrNCJrA.s 			page 171


 7168 02ba 0E       		.uleb128 0xe
 7169 02bb 3A       		.uleb128 0x3a
 7170 02bc 0B       		.uleb128 0xb
 7171 02bd 3B       		.uleb128 0x3b
 7172 02be 0B       		.uleb128 0xb
 7173 02bf 49       		.uleb128 0x49
 7174 02c0 13       		.uleb128 0x13
 7175 02c1 02       		.uleb128 0x2
 7176 02c2 18       		.uleb128 0x18
 7177 02c3 00       		.byte	0
 7178 02c4 00       		.byte	0
 7179 02c5 34       		.uleb128 0x34
 7180 02c6 0B       		.uleb128 0xb
 7181 02c7 01       		.byte	0x1
 7182 02c8 55       		.uleb128 0x55
 7183 02c9 17       		.uleb128 0x17
 7184 02ca 01       		.uleb128 0x1
 7185 02cb 13       		.uleb128 0x13
 7186 02cc 00       		.byte	0
 7187 02cd 00       		.byte	0
 7188 02ce 35       		.uleb128 0x35
 7189 02cf 2E       		.uleb128 0x2e
 7190 02d0 01       		.byte	0x1
 7191 02d1 3F       		.uleb128 0x3f
 7192 02d2 19       		.uleb128 0x19
 7193 02d3 03       		.uleb128 0x3
 7194 02d4 0E       		.uleb128 0xe
 7195 02d5 3A       		.uleb128 0x3a
 7196 02d6 0B       		.uleb128 0xb
 7197 02d7 3B       		.uleb128 0x3b
 7198 02d8 0B       		.uleb128 0xb
 7199 02d9 49       		.uleb128 0x49
 7200 02da 13       		.uleb128 0x13
 7201 02db 11       		.uleb128 0x11
 7202 02dc 01       		.uleb128 0x1
 7203 02dd 12       		.uleb128 0x12
 7204 02de 06       		.uleb128 0x6
 7205 02df 40       		.uleb128 0x40
 7206 02e0 18       		.uleb128 0x18
 7207 02e1 9642     		.uleb128 0x2116
 7208 02e3 19       		.uleb128 0x19
 7209 02e4 01       		.uleb128 0x1
 7210 02e5 13       		.uleb128 0x13
 7211 02e6 00       		.byte	0
 7212 02e7 00       		.byte	0
 7213 02e8 36       		.uleb128 0x36
 7214 02e9 2E       		.uleb128 0x2e
 7215 02ea 01       		.byte	0x1
 7216 02eb 3F       		.uleb128 0x3f
 7217 02ec 19       		.uleb128 0x19
 7218 02ed 03       		.uleb128 0x3
 7219 02ee 0E       		.uleb128 0xe
 7220 02ef 3A       		.uleb128 0x3a
 7221 02f0 0B       		.uleb128 0xb
 7222 02f1 3B       		.uleb128 0x3b
 7223 02f2 0B       		.uleb128 0xb
 7224 02f3 27       		.uleb128 0x27
ARM GAS  C:\Users\xhuli\AppData\Local\Temp\ccrNCJrA.s 			page 172


 7225 02f4 19       		.uleb128 0x19
 7226 02f5 11       		.uleb128 0x11
 7227 02f6 01       		.uleb128 0x1
 7228 02f7 12       		.uleb128 0x12
 7229 02f8 06       		.uleb128 0x6
 7230 02f9 40       		.uleb128 0x40
 7231 02fa 18       		.uleb128 0x18
 7232 02fb 9742     		.uleb128 0x2117
 7233 02fd 19       		.uleb128 0x19
 7234 02fe 01       		.uleb128 0x1
 7235 02ff 13       		.uleb128 0x13
 7236 0300 00       		.byte	0
 7237 0301 00       		.byte	0
 7238 0302 37       		.uleb128 0x37
 7239 0303 34       		.uleb128 0x34
 7240 0304 00       		.byte	0
 7241 0305 03       		.uleb128 0x3
 7242 0306 0E       		.uleb128 0xe
 7243 0307 3A       		.uleb128 0x3a
 7244 0308 0B       		.uleb128 0xb
 7245 0309 3B       		.uleb128 0x3b
 7246 030a 0B       		.uleb128 0xb
 7247 030b 49       		.uleb128 0x49
 7248 030c 13       		.uleb128 0x13
 7249 030d 1C       		.uleb128 0x1c
 7250 030e 0D       		.uleb128 0xd
 7251 030f 00       		.byte	0
 7252 0310 00       		.byte	0
 7253 0311 38       		.uleb128 0x38
 7254 0312 34       		.uleb128 0x34
 7255 0313 00       		.byte	0
 7256 0314 03       		.uleb128 0x3
 7257 0315 0E       		.uleb128 0xe
 7258 0316 3A       		.uleb128 0x3a
 7259 0317 0B       		.uleb128 0xb
 7260 0318 3B       		.uleb128 0x3b
 7261 0319 05       		.uleb128 0x5
 7262 031a 49       		.uleb128 0x49
 7263 031b 13       		.uleb128 0x13
 7264 031c 1C       		.uleb128 0x1c
 7265 031d 0B       		.uleb128 0xb
 7266 031e 00       		.byte	0
 7267 031f 00       		.byte	0
 7268 0320 39       		.uleb128 0x39
 7269 0321 34       		.uleb128 0x34
 7270 0322 00       		.byte	0
 7271 0323 03       		.uleb128 0x3
 7272 0324 0E       		.uleb128 0xe
 7273 0325 3A       		.uleb128 0x3a
 7274 0326 0B       		.uleb128 0xb
 7275 0327 3B       		.uleb128 0x3b
 7276 0328 05       		.uleb128 0x5
 7277 0329 49       		.uleb128 0x49
 7278 032a 13       		.uleb128 0x13
 7279 032b 02       		.uleb128 0x2
 7280 032c 17       		.uleb128 0x17
 7281 032d 00       		.byte	0
ARM GAS  C:\Users\xhuli\AppData\Local\Temp\ccrNCJrA.s 			page 173


 7282 032e 00       		.byte	0
 7283 032f 3A       		.uleb128 0x3a
 7284 0330 1D       		.uleb128 0x1d
 7285 0331 01       		.byte	0x1
 7286 0332 31       		.uleb128 0x31
 7287 0333 13       		.uleb128 0x13
 7288 0334 11       		.uleb128 0x11
 7289 0335 01       		.uleb128 0x1
 7290 0336 12       		.uleb128 0x12
 7291 0337 06       		.uleb128 0x6
 7292 0338 58       		.uleb128 0x58
 7293 0339 0B       		.uleb128 0xb
 7294 033a 59       		.uleb128 0x59
 7295 033b 05       		.uleb128 0x5
 7296 033c 01       		.uleb128 0x1
 7297 033d 13       		.uleb128 0x13
 7298 033e 00       		.byte	0
 7299 033f 00       		.byte	0
 7300 0340 3B       		.uleb128 0x3b
 7301 0341 2E       		.uleb128 0x2e
 7302 0342 01       		.byte	0x1
 7303 0343 3F       		.uleb128 0x3f
 7304 0344 19       		.uleb128 0x19
 7305 0345 03       		.uleb128 0x3
 7306 0346 0E       		.uleb128 0xe
 7307 0347 3A       		.uleb128 0x3a
 7308 0348 0B       		.uleb128 0xb
 7309 0349 3B       		.uleb128 0x3b
 7310 034a 05       		.uleb128 0x5
 7311 034b 27       		.uleb128 0x27
 7312 034c 19       		.uleb128 0x19
 7313 034d 11       		.uleb128 0x11
 7314 034e 01       		.uleb128 0x1
 7315 034f 12       		.uleb128 0x12
 7316 0350 06       		.uleb128 0x6
 7317 0351 40       		.uleb128 0x40
 7318 0352 18       		.uleb128 0x18
 7319 0353 9742     		.uleb128 0x2117
 7320 0355 19       		.uleb128 0x19
 7321 0356 01       		.uleb128 0x1
 7322 0357 13       		.uleb128 0x13
 7323 0358 00       		.byte	0
 7324 0359 00       		.byte	0
 7325 035a 3C       		.uleb128 0x3c
 7326 035b 05       		.uleb128 0x5
 7327 035c 00       		.byte	0
 7328 035d 03       		.uleb128 0x3
 7329 035e 0E       		.uleb128 0xe
 7330 035f 3A       		.uleb128 0x3a
 7331 0360 0B       		.uleb128 0xb
 7332 0361 3B       		.uleb128 0x3b
 7333 0362 05       		.uleb128 0x5
 7334 0363 49       		.uleb128 0x49
 7335 0364 13       		.uleb128 0x13
 7336 0365 02       		.uleb128 0x2
 7337 0366 17       		.uleb128 0x17
 7338 0367 00       		.byte	0
ARM GAS  C:\Users\xhuli\AppData\Local\Temp\ccrNCJrA.s 			page 174


 7339 0368 00       		.byte	0
 7340 0369 3D       		.uleb128 0x3d
 7341 036a 34       		.uleb128 0x34
 7342 036b 00       		.byte	0
 7343 036c 03       		.uleb128 0x3
 7344 036d 08       		.uleb128 0x8
 7345 036e 3A       		.uleb128 0x3a
 7346 036f 0B       		.uleb128 0xb
 7347 0370 3B       		.uleb128 0x3b
 7348 0371 05       		.uleb128 0x5
 7349 0372 49       		.uleb128 0x49
 7350 0373 13       		.uleb128 0x13
 7351 0374 02       		.uleb128 0x2
 7352 0375 17       		.uleb128 0x17
 7353 0376 00       		.byte	0
 7354 0377 00       		.byte	0
 7355 0378 3E       		.uleb128 0x3e
 7356 0379 2E       		.uleb128 0x2e
 7357 037a 01       		.byte	0x1
 7358 037b 3F       		.uleb128 0x3f
 7359 037c 19       		.uleb128 0x19
 7360 037d 03       		.uleb128 0x3
 7361 037e 0E       		.uleb128 0xe
 7362 037f 3A       		.uleb128 0x3a
 7363 0380 0B       		.uleb128 0xb
 7364 0381 3B       		.uleb128 0x3b
 7365 0382 05       		.uleb128 0x5
 7366 0383 27       		.uleb128 0x27
 7367 0384 19       		.uleb128 0x19
 7368 0385 8701     		.uleb128 0x87
 7369 0387 19       		.uleb128 0x19
 7370 0388 11       		.uleb128 0x11
 7371 0389 01       		.uleb128 0x1
 7372 038a 12       		.uleb128 0x12
 7373 038b 06       		.uleb128 0x6
 7374 038c 40       		.uleb128 0x40
 7375 038d 18       		.uleb128 0x18
 7376 038e 9742     		.uleb128 0x2117
 7377 0390 19       		.uleb128 0x19
 7378 0391 01       		.uleb128 0x1
 7379 0392 13       		.uleb128 0x13
 7380 0393 00       		.byte	0
 7381 0394 00       		.byte	0
 7382 0395 3F       		.uleb128 0x3f
 7383 0396 05       		.uleb128 0x5
 7384 0397 00       		.byte	0
 7385 0398 03       		.uleb128 0x3
 7386 0399 08       		.uleb128 0x8
 7387 039a 3A       		.uleb128 0x3a
 7388 039b 0B       		.uleb128 0xb
 7389 039c 3B       		.uleb128 0x3b
 7390 039d 05       		.uleb128 0x5
 7391 039e 49       		.uleb128 0x49
 7392 039f 13       		.uleb128 0x13
 7393 03a0 02       		.uleb128 0x2
 7394 03a1 17       		.uleb128 0x17
 7395 03a2 00       		.byte	0
ARM GAS  C:\Users\xhuli\AppData\Local\Temp\ccrNCJrA.s 			page 175


 7396 03a3 00       		.byte	0
 7397 03a4 40       		.uleb128 0x40
 7398 03a5 34       		.uleb128 0x34
 7399 03a6 00       		.byte	0
 7400 03a7 03       		.uleb128 0x3
 7401 03a8 0E       		.uleb128 0xe
 7402 03a9 3A       		.uleb128 0x3a
 7403 03aa 0B       		.uleb128 0xb
 7404 03ab 3B       		.uleb128 0x3b
 7405 03ac 0B       		.uleb128 0xb
 7406 03ad 49       		.uleb128 0x49
 7407 03ae 13       		.uleb128 0x13
 7408 03af 1C       		.uleb128 0x1c
 7409 03b0 0B       		.uleb128 0xb
 7410 03b1 00       		.byte	0
 7411 03b2 00       		.byte	0
 7412 03b3 41       		.uleb128 0x41
 7413 03b4 34       		.uleb128 0x34
 7414 03b5 00       		.byte	0
 7415 03b6 03       		.uleb128 0x3
 7416 03b7 0E       		.uleb128 0xe
 7417 03b8 3A       		.uleb128 0x3a
 7418 03b9 0B       		.uleb128 0xb
 7419 03ba 3B       		.uleb128 0x3b
 7420 03bb 0B       		.uleb128 0xb
 7421 03bc 49       		.uleb128 0x49
 7422 03bd 13       		.uleb128 0x13
 7423 03be 00       		.byte	0
 7424 03bf 00       		.byte	0
 7425 03c0 42       		.uleb128 0x42
 7426 03c1 34       		.uleb128 0x34
 7427 03c2 00       		.byte	0
 7428 03c3 03       		.uleb128 0x3
 7429 03c4 0E       		.uleb128 0xe
 7430 03c5 3A       		.uleb128 0x3a
 7431 03c6 0B       		.uleb128 0xb
 7432 03c7 3B       		.uleb128 0x3b
 7433 03c8 05       		.uleb128 0x5
 7434 03c9 49       		.uleb128 0x49
 7435 03ca 13       		.uleb128 0x13
 7436 03cb 3F       		.uleb128 0x3f
 7437 03cc 19       		.uleb128 0x19
 7438 03cd 3C       		.uleb128 0x3c
 7439 03ce 19       		.uleb128 0x19
 7440 03cf 00       		.byte	0
 7441 03d0 00       		.byte	0
 7442 03d1 43       		.uleb128 0x43
 7443 03d2 34       		.uleb128 0x34
 7444 03d3 00       		.byte	0
 7445 03d4 03       		.uleb128 0x3
 7446 03d5 0E       		.uleb128 0xe
 7447 03d6 3A       		.uleb128 0x3a
 7448 03d7 0B       		.uleb128 0xb
 7449 03d8 3B       		.uleb128 0x3b
 7450 03d9 0B       		.uleb128 0xb
 7451 03da 49       		.uleb128 0x49
 7452 03db 13       		.uleb128 0x13
ARM GAS  C:\Users\xhuli\AppData\Local\Temp\ccrNCJrA.s 			page 176


 7453 03dc 3F       		.uleb128 0x3f
 7454 03dd 19       		.uleb128 0x19
 7455 03de 3C       		.uleb128 0x3c
 7456 03df 19       		.uleb128 0x19
 7457 03e0 00       		.byte	0
 7458 03e1 00       		.byte	0
 7459 03e2 44       		.uleb128 0x44
 7460 03e3 34       		.uleb128 0x34
 7461 03e4 00       		.byte	0
 7462 03e5 03       		.uleb128 0x3
 7463 03e6 0E       		.uleb128 0xe
 7464 03e7 3A       		.uleb128 0x3a
 7465 03e8 0B       		.uleb128 0xb
 7466 03e9 3B       		.uleb128 0x3b
 7467 03ea 0B       		.uleb128 0xb
 7468 03eb 49       		.uleb128 0x49
 7469 03ec 13       		.uleb128 0x13
 7470 03ed 3F       		.uleb128 0x3f
 7471 03ee 19       		.uleb128 0x19
 7472 03ef 02       		.uleb128 0x2
 7473 03f0 18       		.uleb128 0x18
 7474 03f1 00       		.byte	0
 7475 03f2 00       		.byte	0
 7476 03f3 45       		.uleb128 0x45
 7477 03f4 2E       		.uleb128 0x2e
 7478 03f5 00       		.byte	0
 7479 03f6 3F       		.uleb128 0x3f
 7480 03f7 19       		.uleb128 0x19
 7481 03f8 3C       		.uleb128 0x3c
 7482 03f9 19       		.uleb128 0x19
 7483 03fa 6E       		.uleb128 0x6e
 7484 03fb 0E       		.uleb128 0xe
 7485 03fc 03       		.uleb128 0x3
 7486 03fd 0E       		.uleb128 0xe
 7487 03fe 3A       		.uleb128 0x3a
 7488 03ff 0B       		.uleb128 0xb
 7489 0400 3B       		.uleb128 0x3b
 7490 0401 05       		.uleb128 0x5
 7491 0402 00       		.byte	0
 7492 0403 00       		.byte	0
 7493 0404 46       		.uleb128 0x46
 7494 0405 2E       		.uleb128 0x2e
 7495 0406 00       		.byte	0
 7496 0407 3F       		.uleb128 0x3f
 7497 0408 19       		.uleb128 0x19
 7498 0409 3C       		.uleb128 0x3c
 7499 040a 19       		.uleb128 0x19
 7500 040b 6E       		.uleb128 0x6e
 7501 040c 0E       		.uleb128 0xe
 7502 040d 03       		.uleb128 0x3
 7503 040e 0E       		.uleb128 0xe
 7504 040f 3A       		.uleb128 0x3a
 7505 0410 0B       		.uleb128 0xb
 7506 0411 3B       		.uleb128 0x3b
 7507 0412 0B       		.uleb128 0xb
 7508 0413 6E       		.uleb128 0x6e
 7509 0414 0E       		.uleb128 0xe
ARM GAS  C:\Users\xhuli\AppData\Local\Temp\ccrNCJrA.s 			page 177


 7510 0415 00       		.byte	0
 7511 0416 00       		.byte	0
 7512 0417 47       		.uleb128 0x47
 7513 0418 2E       		.uleb128 0x2e
 7514 0419 00       		.byte	0
 7515 041a 3F       		.uleb128 0x3f
 7516 041b 19       		.uleb128 0x19
 7517 041c 3C       		.uleb128 0x3c
 7518 041d 19       		.uleb128 0x19
 7519 041e 6E       		.uleb128 0x6e
 7520 041f 08       		.uleb128 0x8
 7521 0420 03       		.uleb128 0x3
 7522 0421 08       		.uleb128 0x8
 7523 0422 3A       		.uleb128 0x3a
 7524 0423 0B       		.uleb128 0xb
 7525 0424 3B       		.uleb128 0x3b
 7526 0425 0B       		.uleb128 0xb
 7527 0426 00       		.byte	0
 7528 0427 00       		.byte	0
 7529 0428 48       		.uleb128 0x48
 7530 0429 2E       		.uleb128 0x2e
 7531 042a 00       		.byte	0
 7532 042b 3F       		.uleb128 0x3f
 7533 042c 19       		.uleb128 0x19
 7534 042d 3C       		.uleb128 0x3c
 7535 042e 19       		.uleb128 0x19
 7536 042f 6E       		.uleb128 0x6e
 7537 0430 0E       		.uleb128 0xe
 7538 0431 03       		.uleb128 0x3
 7539 0432 0E       		.uleb128 0xe
 7540 0433 3A       		.uleb128 0x3a
 7541 0434 0B       		.uleb128 0xb
 7542 0435 3B       		.uleb128 0x3b
 7543 0436 0B       		.uleb128 0xb
 7544 0437 00       		.byte	0
 7545 0438 00       		.byte	0
 7546 0439 49       		.uleb128 0x49
 7547 043a 2E       		.uleb128 0x2e
 7548 043b 00       		.byte	0
 7549 043c 3F       		.uleb128 0x3f
 7550 043d 19       		.uleb128 0x19
 7551 043e 3C       		.uleb128 0x3c
 7552 043f 19       		.uleb128 0x19
 7553 0440 6E       		.uleb128 0x6e
 7554 0441 0E       		.uleb128 0xe
 7555 0442 03       		.uleb128 0x3
 7556 0443 0E       		.uleb128 0xe
 7557 0444 00       		.byte	0
 7558 0445 00       		.byte	0
 7559 0446 00       		.byte	0
 7560              		.section	.debug_loc,"",%progbits
 7561              	.Ldebug_loc0:
 7562              	.LLST0:
 7563 0000 08000000 		.4byte	.LVL1
 7564 0004 0C000000 		.4byte	.LVL2
 7565 0008 0200     		.2byte	0x2
 7566 000a 30       		.byte	0x30
ARM GAS  C:\Users\xhuli\AppData\Local\Temp\ccrNCJrA.s 			page 178


 7567 000b 9F       		.byte	0x9f
 7568 000c 0C000000 		.4byte	.LVL2
 7569 0010 5A000000 		.4byte	.LVL8
 7570 0014 0100     		.2byte	0x1
 7571 0016 54       		.byte	0x54
 7572 0017 00000000 		.4byte	0
 7573 001b 00000000 		.4byte	0
 7574              	.LLST1:
 7575 001f 16000000 		.4byte	.LVL3
 7576 0023 3A000000 		.4byte	.LVL5
 7577 0027 0200     		.2byte	0x2
 7578 0029 30       		.byte	0x30
 7579 002a 9F       		.byte	0x9f
 7580 002b 00000000 		.4byte	0
 7581 002f 00000000 		.4byte	0
 7582              	.LLST2:
 7583 0033 00000000 		.4byte	.LVL9
 7584 0037 2A000000 		.4byte	.LVL15
 7585 003b 0100     		.2byte	0x1
 7586 003d 50       		.byte	0x50
 7587 003e 2A000000 		.4byte	.LVL15
 7588 0042 30000000 		.4byte	.LFE587
 7589 0046 0400     		.2byte	0x4
 7590 0048 F3       		.byte	0xf3
 7591 0049 01       		.uleb128 0x1
 7592 004a 50       		.byte	0x50
 7593 004b 9F       		.byte	0x9f
 7594 004c 00000000 		.4byte	0
 7595 0050 00000000 		.4byte	0
 7596              	.LLST3:
 7597 0054 00000000 		.4byte	.LVL9
 7598 0058 08000000 		.4byte	.LVL10
 7599 005c 0600     		.2byte	0x6
 7600 005e 9E       		.byte	0x9e
 7601 005f 04       		.uleb128 0x4
 7602 0060 00000000 		.4byte	0
 7603 0064 08000000 		.4byte	.LVL10
 7604 0068 30000000 		.4byte	.LFE587
 7605 006c 0200     		.2byte	0x2
 7606 006e 90       		.byte	0x90
 7607 006f 4F       		.uleb128 0x4f
 7608 0070 00000000 		.4byte	0
 7609 0074 00000000 		.4byte	0
 7610              	.LLST4:
 7611 0078 00000000 		.4byte	.LVL9
 7612 007c 22000000 		.4byte	.LVL13
 7613 0080 0600     		.2byte	0x6
 7614 0082 9E       		.byte	0x9e
 7615 0083 04       		.uleb128 0x4
 7616 0084 00000000 		.4byte	0
 7617 0088 22000000 		.4byte	.LVL13
 7618 008c 26000000 		.4byte	.LVL14
 7619 0090 0800     		.2byte	0x8
 7620 0092 F5       		.byte	0xf5
 7621 0093 4F       		.uleb128 0x4f
 7622 0094 25       		.uleb128 0x25
 7623 0095 F5       		.byte	0xf5
ARM GAS  C:\Users\xhuli\AppData\Local\Temp\ccrNCJrA.s 			page 179


 7624 0096 4E       		.uleb128 0x4e
 7625 0097 25       		.uleb128 0x25
 7626 0098 1B       		.byte	0x1b
 7627 0099 9F       		.byte	0x9f
 7628 009a 26000000 		.4byte	.LVL14
 7629 009e 30000000 		.4byte	.LFE587
 7630 00a2 0200     		.2byte	0x2
 7631 00a4 90       		.byte	0x90
 7632 00a5 4D       		.uleb128 0x4d
 7633 00a6 00000000 		.4byte	0
 7634 00aa 00000000 		.4byte	0
 7635              	.LLST5:
 7636 00ae 00000000 		.4byte	.LVL9
 7637 00b2 08000000 		.4byte	.LVL10
 7638 00b6 0200     		.2byte	0x2
 7639 00b8 30       		.byte	0x30
 7640 00b9 9F       		.byte	0x9f
 7641 00ba 08000000 		.4byte	.LVL10
 7642 00be 30000000 		.4byte	.LFE587
 7643 00c2 0100     		.2byte	0x1
 7644 00c4 53       		.byte	0x53
 7645 00c5 00000000 		.4byte	0
 7646 00c9 00000000 		.4byte	0
 7647              	.LLST6:
 7648 00cd 00000000 		.4byte	.LVL16
 7649 00d1 0F000000 		.4byte	.LVL17-1
 7650 00d5 0100     		.2byte	0x1
 7651 00d7 50       		.byte	0x50
 7652 00d8 0F000000 		.4byte	.LVL17-1
 7653 00dc 7E000000 		.4byte	.LFE588
 7654 00e0 0100     		.2byte	0x1
 7655 00e2 59       		.byte	0x59
 7656 00e3 00000000 		.4byte	0
 7657 00e7 00000000 		.4byte	0
 7658              	.LLST7:
 7659 00eb 00000000 		.4byte	.LVL16
 7660 00ef 0F000000 		.4byte	.LVL17-1
 7661 00f3 0100     		.2byte	0x1
 7662 00f5 51       		.byte	0x51
 7663 00f6 0F000000 		.4byte	.LVL17-1
 7664 00fa 7E000000 		.4byte	.LFE588
 7665 00fe 0100     		.2byte	0x1
 7666 0100 58       		.byte	0x58
 7667 0101 00000000 		.4byte	0
 7668 0105 00000000 		.4byte	0
 7669              	.LLST8:
 7670 0109 14000000 		.4byte	.LVL18
 7671 010d 1A000000 		.4byte	.LVL19
 7672 0111 0100     		.2byte	0x1
 7673 0113 50       		.byte	0x50
 7674 0114 1A000000 		.4byte	.LVL19
 7675 0118 66000000 		.4byte	.LVL27
 7676 011c 0200     		.2byte	0x2
 7677 011e 90       		.byte	0x90
 7678 011f 50       		.uleb128 0x50
 7679 0120 00000000 		.4byte	0
 7680 0124 00000000 		.4byte	0
ARM GAS  C:\Users\xhuli\AppData\Local\Temp\ccrNCJrA.s 			page 180


 7681              	.LLST9:
 7682 0128 14000000 		.4byte	.LVL18
 7683 012c 1A000000 		.4byte	.LVL19
 7684 0130 0600     		.2byte	0x6
 7685 0132 9E       		.byte	0x9e
 7686 0133 04       		.uleb128 0x4
 7687 0134 00000000 		.4byte	0
 7688 0138 1A000000 		.4byte	.LVL19
 7689 013c 50000000 		.4byte	.LVL25
 7690 0140 0100     		.2byte	0x1
 7691 0142 55       		.byte	0x55
 7692 0143 50000000 		.4byte	.LVL25
 7693 0147 52000000 		.4byte	.LVL26
 7694 014b 0100     		.2byte	0x1
 7695 014d 50       		.byte	0x50
 7696 014e 52000000 		.4byte	.LVL26
 7697 0152 7E000000 		.4byte	.LFE588
 7698 0156 0100     		.2byte	0x1
 7699 0158 55       		.byte	0x55
 7700 0159 00000000 		.4byte	0
 7701 015d 00000000 		.4byte	0
 7702              	.LLST10:
 7703 0161 14000000 		.4byte	.LVL18
 7704 0165 1A000000 		.4byte	.LVL19
 7705 0169 0200     		.2byte	0x2
 7706 016b 30       		.byte	0x30
 7707 016c 9F       		.byte	0x9f
 7708 016d 1A000000 		.4byte	.LVL19
 7709 0171 7E000000 		.4byte	.LFE588
 7710 0175 0100     		.2byte	0x1
 7711 0177 54       		.byte	0x54
 7712 0178 00000000 		.4byte	0
 7713 017c 00000000 		.4byte	0
 7714              	.LLST11:
 7715 0180 16000000 		.4byte	.LVL32
 7716 0184 50000000 		.4byte	.LVL36
 7717 0188 0600     		.2byte	0x6
 7718 018a 9E       		.byte	0x9e
 7719 018b 04       		.uleb128 0x4
 7720 018c 0000C040 		.4byte	0x40c00000
 7721 0190 50000000 		.4byte	.LVL36
 7722 0194 8A010000 		.4byte	.LVL53
 7723 0198 0200     		.2byte	0x2
 7724 019a 90       		.byte	0x90
 7725 019b 51       		.uleb128 0x51
 7726 019c 8A010000 		.4byte	.LVL53
 7727 01a0 8E010000 		.4byte	.LVL54
 7728 01a4 0100     		.2byte	0x1
 7729 01a6 50       		.byte	0x50
 7730 01a7 8E010000 		.4byte	.LVL54
 7731 01ab 58020000 		.4byte	.LFE589
 7732 01af 0200     		.2byte	0x2
 7733 01b1 90       		.byte	0x90
 7734 01b2 51       		.uleb128 0x51
 7735 01b3 00000000 		.4byte	0
 7736 01b7 00000000 		.4byte	0
 7737              	.LLST12:
ARM GAS  C:\Users\xhuli\AppData\Local\Temp\ccrNCJrA.s 			page 181


 7738 01bb 16000000 		.4byte	.LVL32
 7739 01bf 50000000 		.4byte	.LVL36
 7740 01c3 0200     		.2byte	0x2
 7741 01c5 30       		.byte	0x30
 7742 01c6 9F       		.byte	0x9f
 7743 01c7 50000000 		.4byte	.LVL36
 7744 01cb F2000000 		.4byte	.LVL41
 7745 01cf 0100     		.2byte	0x1
 7746 01d1 58       		.byte	0x58
 7747 01d2 F2000000 		.4byte	.LVL41
 7748 01d6 08010000 		.4byte	.LVL42
 7749 01da 0200     		.2byte	0x2
 7750 01dc 31       		.byte	0x31
 7751 01dd 9F       		.byte	0x9f
 7752 01de 08010000 		.4byte	.LVL42
 7753 01e2 8A010000 		.4byte	.LVL53
 7754 01e6 0100     		.2byte	0x1
 7755 01e8 58       		.byte	0x58
 7756 01e9 8A010000 		.4byte	.LVL53
 7757 01ed E2010000 		.4byte	.LVL62
 7758 01f1 0200     		.2byte	0x2
 7759 01f3 30       		.byte	0x30
 7760 01f4 9F       		.byte	0x9f
 7761 01f5 E2010000 		.4byte	.LVL62
 7762 01f9 22020000 		.4byte	.LVL69
 7763 01fd 0100     		.2byte	0x1
 7764 01ff 58       		.byte	0x58
 7765 0200 00000000 		.4byte	0
 7766 0204 00000000 		.4byte	0
 7767              	.LLST13:
 7768 0208 16000000 		.4byte	.LVL32
 7769 020c 50000000 		.4byte	.LVL36
 7770 0210 0200     		.2byte	0x2
 7771 0212 30       		.byte	0x30
 7772 0213 9F       		.byte	0x9f
 7773 0214 50000000 		.4byte	.LVL36
 7774 0218 A2000000 		.4byte	.LVL39
 7775 021c 0100     		.2byte	0x1
 7776 021e 57       		.byte	0x57
 7777 021f A2000000 		.4byte	.LVL39
 7778 0223 B6000000 		.4byte	.LVL40
 7779 0227 0200     		.2byte	0x2
 7780 0229 31       		.byte	0x31
 7781 022a 9F       		.byte	0x9f
 7782 022b B6000000 		.4byte	.LVL40
 7783 022f 66010000 		.4byte	.LVL48
 7784 0233 0100     		.2byte	0x1
 7785 0235 57       		.byte	0x57
 7786 0236 66010000 		.4byte	.LVL48
 7787 023a 74010000 		.4byte	.LVL49
 7788 023e 0200     		.2byte	0x2
 7789 0240 30       		.byte	0x30
 7790 0241 9F       		.byte	0x9f
 7791 0242 74010000 		.4byte	.LVL49
 7792 0246 22020000 		.4byte	.LVL69
 7793 024a 0100     		.2byte	0x1
 7794 024c 57       		.byte	0x57
ARM GAS  C:\Users\xhuli\AppData\Local\Temp\ccrNCJrA.s 			page 182


 7795 024d 00000000 		.4byte	0
 7796 0251 00000000 		.4byte	0
 7797              	.LLST14:
 7798 0255 16000000 		.4byte	.LVL32
 7799 0259 50000000 		.4byte	.LVL36
 7800 025d 0600     		.2byte	0x6
 7801 025f 9E       		.byte	0x9e
 7802 0260 04       		.uleb128 0x4
 7803 0261 00000000 		.4byte	0
 7804 0265 50000000 		.4byte	.LVL36
 7805 0269 F2000000 		.4byte	.LVL41
 7806 026d 0200     		.2byte	0x2
 7807 026f 90       		.byte	0x90
 7808 0270 53       		.uleb128 0x53
 7809 0271 F2000000 		.4byte	.LVL41
 7810 0275 08010000 		.4byte	.LVL42
 7811 0279 0200     		.2byte	0x2
 7812 027b 90       		.byte	0x90
 7813 027c 4F       		.uleb128 0x4f
 7814 027d 08010000 		.4byte	.LVL42
 7815 0281 58020000 		.4byte	.LFE589
 7816 0285 0200     		.2byte	0x2
 7817 0287 90       		.byte	0x90
 7818 0288 53       		.uleb128 0x53
 7819 0289 00000000 		.4byte	0
 7820 028d 00000000 		.4byte	0
 7821              	.LLST15:
 7822 0291 16000000 		.4byte	.LVL32
 7823 0295 50000000 		.4byte	.LVL36
 7824 0299 0600     		.2byte	0x6
 7825 029b 9E       		.byte	0x9e
 7826 029c 04       		.uleb128 0x4
 7827 029d 00000000 		.4byte	0
 7828 02a1 50000000 		.4byte	.LVL36
 7829 02a5 A2000000 		.4byte	.LVL39
 7830 02a9 0200     		.2byte	0x2
 7831 02ab 90       		.byte	0x90
 7832 02ac 52       		.uleb128 0x52
 7833 02ad A2000000 		.4byte	.LVL39
 7834 02b1 B6000000 		.4byte	.LVL40
 7835 02b5 0200     		.2byte	0x2
 7836 02b7 90       		.byte	0x90
 7837 02b8 4F       		.uleb128 0x4f
 7838 02b9 B6000000 		.4byte	.LVL40
 7839 02bd 14010000 		.4byte	.LVL43
 7840 02c1 0200     		.2byte	0x2
 7841 02c3 90       		.byte	0x90
 7842 02c4 52       		.uleb128 0x52
 7843 02c5 14010000 		.4byte	.LVL43
 7844 02c9 24010000 		.4byte	.LVL44
 7845 02cd 0200     		.2byte	0x2
 7846 02cf 90       		.byte	0x90
 7847 02d0 50       		.uleb128 0x50
 7848 02d1 24010000 		.4byte	.LVL44
 7849 02d5 1E020000 		.4byte	.LVL68
 7850 02d9 0200     		.2byte	0x2
 7851 02db 90       		.byte	0x90
ARM GAS  C:\Users\xhuli\AppData\Local\Temp\ccrNCJrA.s 			page 183


 7852 02dc 52       		.uleb128 0x52
 7853 02dd 00000000 		.4byte	0
 7854 02e1 00000000 		.4byte	0
 7855              	.LLST16:
 7856 02e5 16000000 		.4byte	.LVL32
 7857 02e9 50000000 		.4byte	.LVL36
 7858 02ed 0600     		.2byte	0x6
 7859 02ef 9E       		.byte	0x9e
 7860 02f0 04       		.uleb128 0x4
 7861 02f1 00000000 		.4byte	0
 7862 02f5 4A010000 		.4byte	.LVL45
 7863 02f9 58010000 		.4byte	.LVL46
 7864 02fd 0A00     		.2byte	0xa
 7865 02ff 75       		.byte	0x75
 7866 0300 00       		.sleb128 0
 7867 0301 32       		.byte	0x32
 7868 0302 24       		.byte	0x24
 7869 0303 03       		.byte	0x3
 7870 0304 00000000 		.4byte	sample
 7871 0308 22       		.byte	0x22
 7872 0309 00000000 		.4byte	0
 7873 030d 00000000 		.4byte	0
 7874              	.LLST17:
 7875 0311 16000000 		.4byte	.LVL32
 7876 0315 50000000 		.4byte	.LVL36
 7877 0319 0600     		.2byte	0x6
 7878 031b 9E       		.byte	0x9e
 7879 031c 04       		.uleb128 0x4
 7880 031d 00000000 		.4byte	0
 7881 0321 66010000 		.4byte	.LVL48
 7882 0325 74010000 		.4byte	.LVL49
 7883 0329 0200     		.2byte	0x2
 7884 032b 90       		.byte	0x90
 7885 032c 52       		.uleb128 0x52
 7886 032d 00000000 		.4byte	0
 7887 0331 00000000 		.4byte	0
 7888              	.LLST18:
 7889 0335 3C000000 		.4byte	.LVL35
 7890 0339 50000000 		.4byte	.LVL36
 7891 033d 0200     		.2byte	0x2
 7892 033f 33       		.byte	0x33
 7893 0340 9F       		.byte	0x9f
 7894 0341 50000000 		.4byte	.LVL36
 7895 0345 F4010000 		.4byte	.LVL64
 7896 0349 0100     		.2byte	0x1
 7897 034b 54       		.byte	0x54
 7898 034c 00000000 		.4byte	0
 7899 0350 00000000 		.4byte	0
 7900              	.LLST19:
 7901 0354 08000000 		.4byte	.LVL75
 7902 0358 3A000000 		.4byte	.LVL79
 7903 035c 0600     		.2byte	0x6
 7904 035e 9E       		.byte	0x9e
 7905 035f 04       		.uleb128 0x4
 7906 0360 00000000 		.4byte	0
 7907 0364 5C000000 		.4byte	.LVL81
 7908 0368 78000000 		.4byte	.LVL85
ARM GAS  C:\Users\xhuli\AppData\Local\Temp\ccrNCJrA.s 			page 184


 7909 036c 0200     		.2byte	0x2
 7910 036e 90       		.byte	0x90
 7911 036f 50       		.uleb128 0x50
 7912 0370 00000000 		.4byte	0
 7913 0374 00000000 		.4byte	0
 7914              	.LLST20:
 7915 0378 08000000 		.4byte	.LVL75
 7916 037c 3A000000 		.4byte	.LVL79
 7917 0380 0600     		.2byte	0x6
 7918 0382 9E       		.byte	0x9e
 7919 0383 04       		.uleb128 0x4
 7920 0384 00000000 		.4byte	0
 7921 0388 70000000 		.4byte	.LVL84
 7922 038c 7E000000 		.4byte	.LVL86
 7923 0390 0100     		.2byte	0x1
 7924 0392 50       		.byte	0x50
 7925 0393 00000000 		.4byte	0
 7926 0397 00000000 		.4byte	0
 7927              	.LLST21:
 7928 039b 36000000 		.4byte	.LVL78
 7929 039f 3A000000 		.4byte	.LVL79
 7930 03a3 0200     		.2byte	0x2
 7931 03a5 30       		.byte	0x30
 7932 03a6 9F       		.byte	0x9f
 7933 03a7 3A000000 		.4byte	.LVL79
 7934 03ab 84000000 		.4byte	.LVL87
 7935 03af 0100     		.2byte	0x1
 7936 03b1 54       		.byte	0x54
 7937 03b2 00000000 		.4byte	0
 7938 03b6 00000000 		.4byte	0
 7939              	.LLST22:
 7940 03ba 1E000000 		.4byte	.LVL92
 7941 03be 22000000 		.4byte	.LVL93
 7942 03c2 0200     		.2byte	0x2
 7943 03c4 30       		.byte	0x30
 7944 03c5 9F       		.byte	0x9f
 7945 03c6 22000000 		.4byte	.LVL93
 7946 03ca 3A000000 		.4byte	.LVL95
 7947 03ce 0100     		.2byte	0x1
 7948 03d0 53       		.byte	0x53
 7949 03d1 00000000 		.4byte	0
 7950 03d5 00000000 		.4byte	0
 7951              	.LLST23:
 7952 03d9 0A000000 		.4byte	.LVL97
 7953 03dd 2E000000 		.4byte	.LVL99
 7954 03e1 0200     		.2byte	0x2
 7955 03e3 30       		.byte	0x30
 7956 03e4 9F       		.byte	0x9f
 7957 03e5 00000000 		.4byte	0
 7958 03e9 00000000 		.4byte	0
 7959              	.LLST24:
 7960 03ed 38000000 		.4byte	.LVL100
 7961 03f1 3C000000 		.4byte	.LVL101
 7962 03f5 0200     		.2byte	0x2
 7963 03f7 30       		.byte	0x30
 7964 03f8 9F       		.byte	0x9f
 7965 03f9 3C000000 		.4byte	.LVL101
ARM GAS  C:\Users\xhuli\AppData\Local\Temp\ccrNCJrA.s 			page 185


 7966 03fd 54000000 		.4byte	.LVL103
 7967 0401 0100     		.2byte	0x1
 7968 0403 53       		.byte	0x53
 7969 0404 00000000 		.4byte	0
 7970 0408 00000000 		.4byte	0
 7971              	.LLST25:
 7972 040c 00000000 		.4byte	.LVL105
 7973 0410 10000000 		.4byte	.LVL108
 7974 0414 0100     		.2byte	0x1
 7975 0416 50       		.byte	0x50
 7976 0417 10000000 		.4byte	.LVL108
 7977 041b 60000000 		.4byte	.LFE594
 7978 041f 0400     		.2byte	0x4
 7979 0421 F3       		.byte	0xf3
 7980 0422 01       		.uleb128 0x1
 7981 0423 50       		.byte	0x50
 7982 0424 9F       		.byte	0x9f
 7983 0425 00000000 		.4byte	0
 7984 0429 00000000 		.4byte	0
 7985              	.LLST26:
 7986 042d 00000000 		.4byte	.LVL105
 7987 0431 10000000 		.4byte	.LVL108
 7988 0435 0100     		.2byte	0x1
 7989 0437 51       		.byte	0x51
 7990 0438 10000000 		.4byte	.LVL108
 7991 043c 22000000 		.4byte	.LVL110
 7992 0440 0100     		.2byte	0x1
 7993 0442 55       		.byte	0x55
 7994 0443 24000000 		.4byte	.LVL111
 7995 0447 58000000 		.4byte	.LVL124
 7996 044b 0100     		.2byte	0x1
 7997 044d 55       		.byte	0x55
 7998 044e 00000000 		.4byte	0
 7999 0452 00000000 		.4byte	0
 8000              	.LLST27:
 8001 0456 0C000000 		.4byte	.LVL107
 8002 045a 10000000 		.4byte	.LVL108
 8003 045e 0200     		.2byte	0x2
 8004 0460 30       		.byte	0x30
 8005 0461 9F       		.byte	0x9f
 8006 0462 10000000 		.4byte	.LVL108
 8007 0466 50000000 		.4byte	.LVL122
 8008 046a 0100     		.2byte	0x1
 8009 046c 54       		.byte	0x54
 8010 046d 52000000 		.4byte	.LVL123
 8011 0471 58000000 		.4byte	.LVL124
 8012 0475 0100     		.2byte	0x1
 8013 0477 54       		.byte	0x54
 8014 0478 00000000 		.4byte	0
 8015 047c 00000000 		.4byte	0
 8016              	.LLST28:
 8017 0480 0C000000 		.4byte	.LVL107
 8018 0484 10000000 		.4byte	.LVL108
 8019 0488 0200     		.2byte	0x2
 8020 048a 30       		.byte	0x30
 8021 048b 9F       		.byte	0x9f
 8022 048c 20000000 		.4byte	.LVL109
ARM GAS  C:\Users\xhuli\AppData\Local\Temp\ccrNCJrA.s 			page 186


 8023 0490 26000000 		.4byte	.LVL112
 8024 0494 0100     		.2byte	0x1
 8025 0496 53       		.byte	0x53
 8026 0497 2A000000 		.4byte	.LVL113
 8027 049b 38000000 		.4byte	.LVL116
 8028 049f 0100     		.2byte	0x1
 8029 04a1 53       		.byte	0x53
 8030 04a2 3C000000 		.4byte	.LVL117
 8031 04a6 40000000 		.4byte	.LVL118
 8032 04aa 0100     		.2byte	0x1
 8033 04ac 53       		.byte	0x53
 8034 04ad 00000000 		.4byte	0
 8035 04b1 00000000 		.4byte	0
 8036              	.LLST29:
 8037 04b5 06000000 		.4byte	.LVL106
 8038 04b9 0C000000 		.4byte	.LVL107
 8039 04bd 0200     		.2byte	0x2
 8040 04bf 32       		.byte	0x32
 8041 04c0 9F       		.byte	0x9f
 8042 04c1 00000000 		.4byte	0
 8043 04c5 00000000 		.4byte	0
 8044              	.LLST30:
 8045 04c9 06000000 		.4byte	.LVL106
 8046 04cd 0C000000 		.4byte	.LVL107
 8047 04d1 0600     		.2byte	0x6
 8048 04d3 0C       		.byte	0xc
 8049 04d4 80033240 		.4byte	0x40320380
 8050 04d8 9F       		.byte	0x9f
 8051 04d9 00000000 		.4byte	0
 8052 04dd 00000000 		.4byte	0
 8053              	.LLST31:
 8054 04e1 2C000000 		.4byte	.LVL114
 8055 04e5 32000000 		.4byte	.LVL115
 8056 04e9 0200     		.2byte	0x2
 8057 04eb 37       		.byte	0x37
 8058 04ec 9F       		.byte	0x9f
 8059 04ed 00000000 		.4byte	0
 8060 04f1 00000000 		.4byte	0
 8061              	.LLST32:
 8062 04f5 2C000000 		.4byte	.LVL114
 8063 04f9 32000000 		.4byte	.LVL115
 8064 04fd 0600     		.2byte	0x6
 8065 04ff 0C       		.byte	0xc
 8066 0500 00063240 		.4byte	0x40320600
 8067 0504 9F       		.byte	0x9f
 8068 0505 00000000 		.4byte	0
 8069 0509 00000000 		.4byte	0
 8070              	.LLST33:
 8071 050d 32000000 		.4byte	.LVL115
 8072 0511 38000000 		.4byte	.LVL116
 8073 0515 0600     		.2byte	0x6
 8074 0517 73       		.byte	0x73
 8075 0518 00       		.sleb128 0
 8076 0519 08       		.byte	0x8
 8077 051a FF       		.byte	0xff
 8078 051b 1A       		.byte	0x1a
 8079 051c 9F       		.byte	0x9f
ARM GAS  C:\Users\xhuli\AppData\Local\Temp\ccrNCJrA.s 			page 187


 8080 051d 3C000000 		.4byte	.LVL117
 8081 0521 40000000 		.4byte	.LVL118
 8082 0525 0600     		.2byte	0x6
 8083 0527 73       		.byte	0x73
 8084 0528 00       		.sleb128 0
 8085 0529 08       		.byte	0x8
 8086 052a FF       		.byte	0xff
 8087 052b 1A       		.byte	0x1a
 8088 052c 9F       		.byte	0x9f
 8089 052d 00000000 		.4byte	0
 8090 0531 00000000 		.4byte	0
 8091              	.LLST34:
 8092 0535 32000000 		.4byte	.LVL115
 8093 0539 42000000 		.4byte	.LVL119
 8094 053d 0200     		.2byte	0x2
 8095 053f 36       		.byte	0x36
 8096 0540 9F       		.byte	0x9f
 8097 0541 00000000 		.4byte	0
 8098 0545 00000000 		.4byte	0
 8099              	.LLST35:
 8100 0549 32000000 		.4byte	.LVL115
 8101 054d 42000000 		.4byte	.LVL119
 8102 0551 0600     		.2byte	0x6
 8103 0553 0C       		.byte	0xc
 8104 0554 00063240 		.4byte	0x40320600
 8105 0558 9F       		.byte	0x9f
 8106 0559 00000000 		.4byte	0
 8107 055d 00000000 		.4byte	0
 8108              	.LLST36:
 8109 0561 48000000 		.4byte	.LVL120
 8110 0565 4E000000 		.4byte	.LVL121
 8111 0569 0200     		.2byte	0x2
 8112 056b 37       		.byte	0x37
 8113 056c 9F       		.byte	0x9f
 8114 056d 00000000 		.4byte	0
 8115 0571 00000000 		.4byte	0
 8116              	.LLST37:
 8117 0575 48000000 		.4byte	.LVL120
 8118 0579 4E000000 		.4byte	.LVL121
 8119 057d 0600     		.2byte	0x6
 8120 057f 0C       		.byte	0xc
 8121 0580 00063240 		.4byte	0x40320600
 8122 0584 9F       		.byte	0x9f
 8123 0585 00000000 		.4byte	0
 8124 0589 00000000 		.4byte	0
 8125              	.LLST38:
 8126 058d 00000000 		.4byte	.LVL125
 8127 0591 06000000 		.4byte	.LVL126
 8128 0595 0100     		.2byte	0x1
 8129 0597 50       		.byte	0x50
 8130 0598 06000000 		.4byte	.LVL126
 8131 059c 6C000000 		.4byte	.LFE595
 8132 05a0 0400     		.2byte	0x4
 8133 05a2 F3       		.byte	0xf3
 8134 05a3 01       		.uleb128 0x1
 8135 05a4 50       		.byte	0x50
 8136 05a5 9F       		.byte	0x9f
ARM GAS  C:\Users\xhuli\AppData\Local\Temp\ccrNCJrA.s 			page 188


 8137 05a6 00000000 		.4byte	0
 8138 05aa 00000000 		.4byte	0
 8139              	.LLST39:
 8140 05ae 0A000000 		.4byte	.LVL127
 8141 05b2 10000000 		.4byte	.LVL128
 8142 05b6 0200     		.2byte	0x2
 8143 05b8 35       		.byte	0x35
 8144 05b9 9F       		.byte	0x9f
 8145 05ba 00000000 		.4byte	0
 8146 05be 00000000 		.4byte	0
 8147              	.LLST40:
 8148 05c2 0A000000 		.4byte	.LVL127
 8149 05c6 10000000 		.4byte	.LVL128
 8150 05ca 0600     		.2byte	0x6
 8151 05cc 0C       		.byte	0xc
 8152 05cd 00003240 		.4byte	0x40320000
 8153 05d1 9F       		.byte	0x9f
 8154 05d2 00000000 		.4byte	0
 8155 05d6 00000000 		.4byte	0
 8156              	.LLST41:
 8157 05da 10000000 		.4byte	.LVL128
 8158 05de 18000000 		.4byte	.LVL129
 8159 05e2 0200     		.2byte	0x2
 8160 05e4 37       		.byte	0x37
 8161 05e5 9F       		.byte	0x9f
 8162 05e6 00000000 		.4byte	0
 8163 05ea 00000000 		.4byte	0
 8164              	.LLST42:
 8165 05ee 10000000 		.4byte	.LVL128
 8166 05f2 18000000 		.4byte	.LVL129
 8167 05f6 0600     		.2byte	0x6
 8168 05f8 0C       		.byte	0xc
 8169 05f9 00063240 		.4byte	0x40320600
 8170 05fd 9F       		.byte	0x9f
 8171 05fe 00000000 		.4byte	0
 8172 0602 00000000 		.4byte	0
 8173              	.LLST43:
 8174 0606 18000000 		.4byte	.LVL129
 8175 060a 20000000 		.4byte	.LVL130
 8176 060e 0200     		.2byte	0x2
 8177 0610 32       		.byte	0x32
 8178 0611 9F       		.byte	0x9f
 8179 0612 00000000 		.4byte	0
 8180 0616 00000000 		.4byte	0
 8181              	.LLST44:
 8182 061a 18000000 		.4byte	.LVL129
 8183 061e 20000000 		.4byte	.LVL130
 8184 0622 0600     		.2byte	0x6
 8185 0624 0C       		.byte	0xc
 8186 0625 80033240 		.4byte	0x40320380
 8187 0629 9F       		.byte	0x9f
 8188 062a 00000000 		.4byte	0
 8189 062e 00000000 		.4byte	0
 8190              	.LLST45:
 8191 0632 48000000 		.4byte	.LVL133
 8192 0636 4E000000 		.4byte	.LVL134
 8193 063a 0200     		.2byte	0x2
ARM GAS  C:\Users\xhuli\AppData\Local\Temp\ccrNCJrA.s 			page 189


 8194 063c 35       		.byte	0x35
 8195 063d 9F       		.byte	0x9f
 8196 063e 00000000 		.4byte	0
 8197 0642 00000000 		.4byte	0
 8198              	.LLST46:
 8199 0646 48000000 		.4byte	.LVL133
 8200 064a 4E000000 		.4byte	.LVL134
 8201 064e 0600     		.2byte	0x6
 8202 0650 0C       		.byte	0xc
 8203 0651 00003240 		.4byte	0x40320000
 8204 0655 9F       		.byte	0x9f
 8205 0656 00000000 		.4byte	0
 8206 065a 00000000 		.4byte	0
 8207              	.LLST47:
 8208 065e 4E000000 		.4byte	.LVL134
 8209 0662 50000000 		.4byte	.LVL135
 8210 0666 0200     		.2byte	0x2
 8211 0668 35       		.byte	0x35
 8212 0669 9F       		.byte	0x9f
 8213 066a 00000000 		.4byte	0
 8214 066e 00000000 		.4byte	0
 8215              	.LLST48:
 8216 0672 4E000000 		.4byte	.LVL134
 8217 0676 50000000 		.4byte	.LVL135
 8218 067a 0600     		.2byte	0x6
 8219 067c 0C       		.byte	0xc
 8220 067d 00003240 		.4byte	0x40320000
 8221 0681 9F       		.byte	0x9f
 8222 0682 00000000 		.4byte	0
 8223 0686 00000000 		.4byte	0
 8224              	.LLST49:
 8225 068a 50000000 		.4byte	.LVL135
 8226 068e 58000000 		.4byte	.LVL136
 8227 0692 0200     		.2byte	0x2
 8228 0694 32       		.byte	0x32
 8229 0695 9F       		.byte	0x9f
 8230 0696 00000000 		.4byte	0
 8231 069a 00000000 		.4byte	0
 8232              	.LLST50:
 8233 069e 50000000 		.4byte	.LVL135
 8234 06a2 58000000 		.4byte	.LVL136
 8235 06a6 0600     		.2byte	0x6
 8236 06a8 0C       		.byte	0xc
 8237 06a9 80033240 		.4byte	0x40320380
 8238 06ad 9F       		.byte	0x9f
 8239 06ae 00000000 		.4byte	0
 8240 06b2 00000000 		.4byte	0
 8241              	.LLST51:
 8242 06b6 00000000 		.4byte	.LVL138
 8243 06ba 2A000000 		.4byte	.LVL139
 8244 06be 0100     		.2byte	0x1
 8245 06c0 50       		.byte	0x50
 8246 06c1 2A000000 		.4byte	.LVL139
 8247 06c5 38000000 		.4byte	.LVL142
 8248 06c9 0400     		.2byte	0x4
 8249 06cb F3       		.byte	0xf3
 8250 06cc 01       		.uleb128 0x1
ARM GAS  C:\Users\xhuli\AppData\Local\Temp\ccrNCJrA.s 			page 190


 8251 06cd 50       		.byte	0x50
 8252 06ce 9F       		.byte	0x9f
 8253 06cf 38000000 		.4byte	.LVL142
 8254 06d3 3A000000 		.4byte	.LVL143
 8255 06d7 0100     		.2byte	0x1
 8256 06d9 50       		.byte	0x50
 8257 06da 3A000000 		.4byte	.LVL143
 8258 06de 54000000 		.4byte	.LVL148
 8259 06e2 0400     		.2byte	0x4
 8260 06e4 F3       		.byte	0xf3
 8261 06e5 01       		.uleb128 0x1
 8262 06e6 50       		.byte	0x50
 8263 06e7 9F       		.byte	0x9f
 8264 06e8 54000000 		.4byte	.LVL148
 8265 06ec 56000000 		.4byte	.LVL149
 8266 06f0 0100     		.2byte	0x1
 8267 06f2 50       		.byte	0x50
 8268 06f3 56000000 		.4byte	.LVL149
 8269 06f7 5C000000 		.4byte	.LVL151
 8270 06fb 0400     		.2byte	0x4
 8271 06fd F3       		.byte	0xf3
 8272 06fe 01       		.uleb128 0x1
 8273 06ff 50       		.byte	0x50
 8274 0700 9F       		.byte	0x9f
 8275 0701 5C000000 		.4byte	.LVL151
 8276 0705 6C000000 		.4byte	.LVL154
 8277 0709 0100     		.2byte	0x1
 8278 070b 50       		.byte	0x50
 8279 070c 6C000000 		.4byte	.LVL154
 8280 0710 7C000000 		.4byte	.LVL158
 8281 0714 0400     		.2byte	0x4
 8282 0716 F3       		.byte	0xf3
 8283 0717 01       		.uleb128 0x1
 8284 0718 50       		.byte	0x50
 8285 0719 9F       		.byte	0x9f
 8286 071a 7C000000 		.4byte	.LVL158
 8287 071e 82000000 		.4byte	.LVL160
 8288 0722 0100     		.2byte	0x1
 8289 0724 50       		.byte	0x50
 8290 0725 82000000 		.4byte	.LVL160
 8291 0729 92000000 		.4byte	.LVL164
 8292 072d 0400     		.2byte	0x4
 8293 072f F3       		.byte	0xf3
 8294 0730 01       		.uleb128 0x1
 8295 0731 50       		.byte	0x50
 8296 0732 9F       		.byte	0x9f
 8297 0733 92000000 		.4byte	.LVL164
 8298 0737 98000000 		.4byte	.LVL166
 8299 073b 0100     		.2byte	0x1
 8300 073d 50       		.byte	0x50
 8301 073e 98000000 		.4byte	.LVL166
 8302 0742 A8000000 		.4byte	.LVL170
 8303 0746 0400     		.2byte	0x4
 8304 0748 F3       		.byte	0xf3
 8305 0749 01       		.uleb128 0x1
 8306 074a 50       		.byte	0x50
 8307 074b 9F       		.byte	0x9f
ARM GAS  C:\Users\xhuli\AppData\Local\Temp\ccrNCJrA.s 			page 191


 8308 074c A8000000 		.4byte	.LVL170
 8309 0750 AB000000 		.4byte	.LVL171-1
 8310 0754 0100     		.2byte	0x1
 8311 0756 50       		.byte	0x50
 8312 0757 AB000000 		.4byte	.LVL171-1
 8313 075b B4000000 		.4byte	.LVL173
 8314 075f 0400     		.2byte	0x4
 8315 0761 F3       		.byte	0xf3
 8316 0762 01       		.uleb128 0x1
 8317 0763 50       		.byte	0x50
 8318 0764 9F       		.byte	0x9f
 8319 0765 B4000000 		.4byte	.LVL173
 8320 0769 B7000000 		.4byte	.LVL174-1
 8321 076d 0100     		.2byte	0x1
 8322 076f 50       		.byte	0x50
 8323 0770 B7000000 		.4byte	.LVL174-1
 8324 0774 D4000000 		.4byte	.LFE596
 8325 0778 0400     		.2byte	0x4
 8326 077a F3       		.byte	0xf3
 8327 077b 01       		.uleb128 0x1
 8328 077c 50       		.byte	0x50
 8329 077d 9F       		.byte	0x9f
 8330 077e 00000000 		.4byte	0
 8331 0782 00000000 		.4byte	0
 8332              	.LLST52:
 8333 0786 00000000 		.4byte	.LVL138
 8334 078a 2D000000 		.4byte	.LVL140-1
 8335 078e 0100     		.2byte	0x1
 8336 0790 51       		.byte	0x51
 8337 0791 2D000000 		.4byte	.LVL140-1
 8338 0795 38000000 		.4byte	.LVL142
 8339 0799 0100     		.2byte	0x1
 8340 079b 54       		.byte	0x54
 8341 079c 38000000 		.4byte	.LVL142
 8342 07a0 3D000000 		.4byte	.LVL144-1
 8343 07a4 0100     		.2byte	0x1
 8344 07a6 51       		.byte	0x51
 8345 07a7 3D000000 		.4byte	.LVL144-1
 8346 07ab 54000000 		.4byte	.LVL148
 8347 07af 0400     		.2byte	0x4
 8348 07b1 F3       		.byte	0xf3
 8349 07b2 01       		.uleb128 0x1
 8350 07b3 51       		.byte	0x51
 8351 07b4 9F       		.byte	0x9f
 8352 07b5 54000000 		.4byte	.LVL148
 8353 07b9 59000000 		.4byte	.LVL150-1
 8354 07bd 0100     		.2byte	0x1
 8355 07bf 51       		.byte	0x51
 8356 07c0 59000000 		.4byte	.LVL150-1
 8357 07c4 5C000000 		.4byte	.LVL151
 8358 07c8 0100     		.2byte	0x1
 8359 07ca 54       		.byte	0x54
 8360 07cb 5C000000 		.4byte	.LVL151
 8361 07cf 6F000000 		.4byte	.LVL155-1
 8362 07d3 0100     		.2byte	0x1
 8363 07d5 51       		.byte	0x51
 8364 07d6 6F000000 		.4byte	.LVL155-1
ARM GAS  C:\Users\xhuli\AppData\Local\Temp\ccrNCJrA.s 			page 192


 8365 07da 7C000000 		.4byte	.LVL158
 8366 07de 0100     		.2byte	0x1
 8367 07e0 54       		.byte	0x54
 8368 07e1 7C000000 		.4byte	.LVL158
 8369 07e5 85000000 		.4byte	.LVL161-1
 8370 07e9 0100     		.2byte	0x1
 8371 07eb 51       		.byte	0x51
 8372 07ec 85000000 		.4byte	.LVL161-1
 8373 07f0 92000000 		.4byte	.LVL164
 8374 07f4 0100     		.2byte	0x1
 8375 07f6 54       		.byte	0x54
 8376 07f7 92000000 		.4byte	.LVL164
 8377 07fb 9B000000 		.4byte	.LVL167-1
 8378 07ff 0100     		.2byte	0x1
 8379 0801 51       		.byte	0x51
 8380 0802 9B000000 		.4byte	.LVL167-1
 8381 0806 A8000000 		.4byte	.LVL170
 8382 080a 0100     		.2byte	0x1
 8383 080c 54       		.byte	0x54
 8384 080d A8000000 		.4byte	.LVL170
 8385 0811 AB000000 		.4byte	.LVL171-1
 8386 0815 0100     		.2byte	0x1
 8387 0817 51       		.byte	0x51
 8388 0818 AB000000 		.4byte	.LVL171-1
 8389 081c B4000000 		.4byte	.LVL173
 8390 0820 0100     		.2byte	0x1
 8391 0822 54       		.byte	0x54
 8392 0823 B4000000 		.4byte	.LVL173
 8393 0827 B7000000 		.4byte	.LVL174-1
 8394 082b 0100     		.2byte	0x1
 8395 082d 51       		.byte	0x51
 8396 082e B7000000 		.4byte	.LVL174-1
 8397 0832 BE000000 		.4byte	.LVL176
 8398 0836 0100     		.2byte	0x1
 8399 0838 54       		.byte	0x54
 8400 0839 BE000000 		.4byte	.LVL176
 8401 083d D4000000 		.4byte	.LFE596
 8402 0841 0400     		.2byte	0x4
 8403 0843 F3       		.byte	0xf3
 8404 0844 01       		.uleb128 0x1
 8405 0845 51       		.byte	0x51
 8406 0846 9F       		.byte	0x9f
 8407 0847 00000000 		.4byte	0
 8408 084b 00000000 		.4byte	0
 8409              	.LLST53:
 8410 084f 5C000000 		.4byte	.LVL151
 8411 0853 6F000000 		.4byte	.LVL155-1
 8412 0857 0100     		.2byte	0x1
 8413 0859 51       		.byte	0x51
 8414 085a 6F000000 		.4byte	.LVL155-1
 8415 085e 7C000000 		.4byte	.LVL158
 8416 0862 0100     		.2byte	0x1
 8417 0864 54       		.byte	0x54
 8418 0865 7C000000 		.4byte	.LVL158
 8419 0869 85000000 		.4byte	.LVL161-1
 8420 086d 0100     		.2byte	0x1
 8421 086f 51       		.byte	0x51
ARM GAS  C:\Users\xhuli\AppData\Local\Temp\ccrNCJrA.s 			page 193


 8422 0870 85000000 		.4byte	.LVL161-1
 8423 0874 92000000 		.4byte	.LVL164
 8424 0878 0100     		.2byte	0x1
 8425 087a 54       		.byte	0x54
 8426 087b 92000000 		.4byte	.LVL164
 8427 087f 9B000000 		.4byte	.LVL167-1
 8428 0883 0100     		.2byte	0x1
 8429 0885 51       		.byte	0x51
 8430 0886 9B000000 		.4byte	.LVL167-1
 8431 088a A8000000 		.4byte	.LVL170
 8432 088e 0100     		.2byte	0x1
 8433 0890 54       		.byte	0x54
 8434 0891 A8000000 		.4byte	.LVL170
 8435 0895 AB000000 		.4byte	.LVL171-1
 8436 0899 0100     		.2byte	0x1
 8437 089b 51       		.byte	0x51
 8438 089c AB000000 		.4byte	.LVL171-1
 8439 08a0 B4000000 		.4byte	.LVL173
 8440 08a4 0100     		.2byte	0x1
 8441 08a6 54       		.byte	0x54
 8442 08a7 00000000 		.4byte	0
 8443 08ab 00000000 		.4byte	0
 8444              	.LLST54:
 8445 08af 3E000000 		.4byte	.LVL144
 8446 08b3 44000000 		.4byte	.LVL145
 8447 08b7 0200     		.2byte	0x2
 8448 08b9 32       		.byte	0x32
 8449 08ba 9F       		.byte	0x9f
 8450 08bb 00000000 		.4byte	0
 8451 08bf 00000000 		.4byte	0
 8452              	.LLST55:
 8453 08c3 3E000000 		.4byte	.LVL144
 8454 08c7 44000000 		.4byte	.LVL145
 8455 08cb 0600     		.2byte	0x6
 8456 08cd 0C       		.byte	0xc
 8457 08ce 80033240 		.4byte	0x40320380
 8458 08d2 9F       		.byte	0x9f
 8459 08d3 00000000 		.4byte	0
 8460 08d7 00000000 		.4byte	0
 8461              	.LLST56:
 8462 08db 66000000 		.4byte	.LVL152
 8463 08df 6A000000 		.4byte	.LVL153
 8464 08e3 0100     		.2byte	0x1
 8465 08e5 53       		.byte	0x53
 8466 08e6 6A000000 		.4byte	.LVL153
 8467 08ea 7C000000 		.4byte	.LVL158
 8468 08ee 0200     		.2byte	0x2
 8469 08f0 31       		.byte	0x31
 8470 08f1 9F       		.byte	0x9f
 8471 08f2 7C000000 		.4byte	.LVL158
 8472 08f6 80000000 		.4byte	.LVL159
 8473 08fa 0100     		.2byte	0x1
 8474 08fc 53       		.byte	0x53
 8475 08fd 80000000 		.4byte	.LVL159
 8476 0901 92000000 		.4byte	.LVL164
 8477 0905 0200     		.2byte	0x2
 8478 0907 32       		.byte	0x32
ARM GAS  C:\Users\xhuli\AppData\Local\Temp\ccrNCJrA.s 			page 194


 8479 0908 9F       		.byte	0x9f
 8480 0909 92000000 		.4byte	.LVL164
 8481 090d 96000000 		.4byte	.LVL165
 8482 0911 0100     		.2byte	0x1
 8483 0913 53       		.byte	0x53
 8484 0914 96000000 		.4byte	.LVL165
 8485 0918 A8000000 		.4byte	.LVL170
 8486 091c 0200     		.2byte	0x2
 8487 091e 33       		.byte	0x33
 8488 091f 9F       		.byte	0x9f
 8489 0920 A8000000 		.4byte	.LVL170
 8490 0924 AB000000 		.4byte	.LVL171-1
 8491 0928 0100     		.2byte	0x1
 8492 092a 53       		.byte	0x53
 8493 092b 00000000 		.4byte	0
 8494 092f 00000000 		.4byte	0
 8495              	.LLST57:
 8496 0933 00000000 		.4byte	.LVL177
 8497 0937 05000000 		.4byte	.LVL178-1
 8498 093b 0100     		.2byte	0x1
 8499 093d 50       		.byte	0x50
 8500 093e 05000000 		.4byte	.LVL178-1
 8501 0942 5C000000 		.4byte	.LFE598
 8502 0946 0400     		.2byte	0x4
 8503 0948 F3       		.byte	0xf3
 8504 0949 01       		.uleb128 0x1
 8505 094a 50       		.byte	0x50
 8506 094b 9F       		.byte	0x9f
 8507 094c 00000000 		.4byte	0
 8508 0950 00000000 		.4byte	0
 8509              		.section	.debug_aranges,"",%progbits
 8510 0000 7C000000 		.4byte	0x7c
 8511 0004 0200     		.2byte	0x2
 8512 0006 00000000 		.4byte	.Ldebug_info0
 8513 000a 04       		.byte	0x4
 8514 000b 00       		.byte	0
 8515 000c 0000     		.2byte	0
 8516 000e 0000     		.2byte	0
 8517 0010 00000000 		.4byte	.LFB597
 8518 0014 38000000 		.4byte	.LFE597-.LFB597
 8519 0018 00000000 		.4byte	.LFB586
 8520 001c 74000000 		.4byte	.LFE586-.LFB586
 8521 0020 00000000 		.4byte	.LFB587
 8522 0024 30000000 		.4byte	.LFE587-.LFB587
 8523 0028 00000000 		.4byte	.LFB588
 8524 002c 7E000000 		.4byte	.LFE588-.LFB588
 8525 0030 00000000 		.4byte	.LFB589
 8526 0034 58020000 		.4byte	.LFE589-.LFB589
 8527 0038 00000000 		.4byte	.LFB590
 8528 003c 20000000 		.4byte	.LFE590-.LFB590
 8529 0040 00000000 		.4byte	.LFB591
 8530 0044 C4000000 		.4byte	.LFE591-.LFB591
 8531 0048 00000000 		.4byte	.LFB592
 8532 004c 5C000000 		.4byte	.LFE592-.LFB592
 8533 0050 00000000 		.4byte	.LFB593
 8534 0054 88000000 		.4byte	.LFE593-.LFB593
 8535 0058 00000000 		.4byte	.LFB594
ARM GAS  C:\Users\xhuli\AppData\Local\Temp\ccrNCJrA.s 			page 195


 8536 005c 60000000 		.4byte	.LFE594-.LFB594
 8537 0060 00000000 		.4byte	.LFB595
 8538 0064 6C000000 		.4byte	.LFE595-.LFB595
 8539 0068 00000000 		.4byte	.LFB596
 8540 006c D4000000 		.4byte	.LFE596-.LFB596
 8541 0070 00000000 		.4byte	.LFB598
 8542 0074 5C000000 		.4byte	.LFE598-.LFB598
 8543 0078 00000000 		.4byte	0
 8544 007c 00000000 		.4byte	0
 8545              		.section	.debug_ranges,"",%progbits
 8546              	.Ldebug_ranges0:
 8547 0000 3C000000 		.4byte	.LBB31
 8548 0004 3E000000 		.4byte	.LBE31
 8549 0008 4E000000 		.4byte	.LBB32
 8550 000c F2010000 		.4byte	.LBE32
 8551 0010 00000000 		.4byte	0
 8552 0014 00000000 		.4byte	0
 8553 0018 00000000 		.4byte	.LFB597
 8554 001c 38000000 		.4byte	.LFE597
 8555 0020 00000000 		.4byte	.LFB586
 8556 0024 74000000 		.4byte	.LFE586
 8557 0028 00000000 		.4byte	.LFB587
 8558 002c 30000000 		.4byte	.LFE587
 8559 0030 00000000 		.4byte	.LFB588
 8560 0034 7E000000 		.4byte	.LFE588
 8561 0038 00000000 		.4byte	.LFB589
 8562 003c 58020000 		.4byte	.LFE589
 8563 0040 00000000 		.4byte	.LFB590
 8564 0044 20000000 		.4byte	.LFE590
 8565 0048 00000000 		.4byte	.LFB591
 8566 004c C4000000 		.4byte	.LFE591
 8567 0050 00000000 		.4byte	.LFB592
 8568 0054 5C000000 		.4byte	.LFE592
 8569 0058 00000000 		.4byte	.LFB593
 8570 005c 88000000 		.4byte	.LFE593
 8571 0060 00000000 		.4byte	.LFB594
 8572 0064 60000000 		.4byte	.LFE594
 8573 0068 00000000 		.4byte	.LFB595
 8574 006c 6C000000 		.4byte	.LFE595
 8575 0070 00000000 		.4byte	.LFB596
 8576 0074 D4000000 		.4byte	.LFE596
 8577 0078 00000000 		.4byte	.LFB598
 8578 007c 5C000000 		.4byte	.LFE598
 8579 0080 00000000 		.4byte	0
 8580 0084 00000000 		.4byte	0
 8581              		.section	.debug_line,"",%progbits
 8582              	.Ldebug_line0:
 8583 0000 4A080000 		.section	.debug_str,"MS",%progbits,1
 8583      0200B305 
 8583      00000201 
 8583      FB0E0D00 
 8583      01010101 
 8584              	.LASF314:
 8585 0000 43595F42 		.ascii	"CY_BLE_EVT_PENDING_FLASH_WRITE\000"
 8585      4C455F45 
 8585      56545F50 
 8585      454E4449 
ARM GAS  C:\Users\xhuli\AppData\Local\Temp\ccrNCJrA.s 			page 196


 8585      4E475F46 
 8586              	.LASF395:
 8587 001f 43595F42 		.ascii	"CY_BLE_EVT_GATTC_READ_BY_TYPE_RSP\000"
 8587      4C455F45 
 8587      56545F47 
 8587      41545443 
 8587      5F524541 
 8588              	.LASF160:
 8589 0041 63727970 		.ascii	"cryptoBase\000"
 8589      746F4261 
 8589      736500
 8590              	.LASF224:
 8591 004c 63707573 		.ascii	"cpussCm0StatusOffset\000"
 8591      73436D30 
 8591      53746174 
 8591      75734F66 
 8591      66736574 
 8592              	.LASF254:
 8593 0061 6368616E 		.ascii	"chanConfig\000"
 8593      436F6E66 
 8593      696700
 8594              	.LASF125:
 8595 006c 4348414E 		.ascii	"CHAN_WORK_NEWVALUE\000"
 8595      5F574F52 
 8595      4B5F4E45 
 8595      5756414C 
 8595      554500
 8596              	.LASF410:
 8597 007f 43595F42 		.ascii	"CY_BLE_EVT_GATTS_DATA_SIGNED_CMD_REQ\000"
 8597      4C455F45 
 8597      56545F47 
 8597      41545453 
 8597      5F444154 
 8598              	.LASF342:
 8599 00a4 43595F42 		.ascii	"CY_BLE_EVT_SET_DEVICE_ADDR_COMPLETE\000"
 8599      4C455F45 
 8599      56545F53 
 8599      45545F44 
 8599      45564943 
 8600              	.LASF74:
 8601 00c8 52585F4D 		.ascii	"RX_MATCH\000"
 8601      41544348 
 8601      00
 8602              	.LASF294:
 8603 00d1 63795F73 		.ascii	"cy_stc_scb_uart_context\000"
 8603      74635F73 
 8603      63625F75 
 8603      6172745F 
 8603      636F6E74 
 8604              	.LASF253:
 8605 00e9 6368616E 		.ascii	"chanEn\000"
 8605      456E00
 8606              	.LASF558:
 8607 00f0 43795F42 		.ascii	"Cy_BLE_GATTS_WriteRsp\000"
 8607      4C455F47 
 8607      41545453 
 8607      5F577269 
ARM GAS  C:\Users\xhuli\AppData\Local\Temp\ccrNCJrA.s 			page 197


 8607      74655273 
 8608              	.LASF81:
 8609 0106 494E5452 		.ascii	"INTR_CAUSE\000"
 8609      5F434155 
 8609      534500
 8610              	.LASF52:
 8611 0111 55415254 		.ascii	"UART_CTRL\000"
 8611      5F435452 
 8611      4C00
 8612              	.LASF301:
 8613 011b 72784275 		.ascii	"rxBuf\000"
 8613      6600
 8614              	.LASF341:
 8615 0121 43595F42 		.ascii	"CY_BLE_EVT_SOFT_RESET_COMPLETE\000"
 8615      4C455F45 
 8615      56545F53 
 8615      4F46545F 
 8615      52455345 
 8616              	.LASF187:
 8617 0140 63727970 		.ascii	"cryptoMemSize\000"
 8617      746F4D65 
 8617      6D53697A 
 8617      6500
 8618              	.LASF140:
 8619 014e 4D55585F 		.ascii	"MUX_SWITCH_DS_CTRL\000"
 8619      53574954 
 8619      43485F44 
 8619      535F4354 
 8619      524C00
 8620              	.LASF348:
 8621 0161 43595F42 		.ascii	"CY_BLE_EVT_SET_CLK_CONFIG_COMPLETE\000"
 8621      4C455F45 
 8621      56545F53 
 8621      45545F43 
 8621      4C4B5F43 
 8622              	.LASF511:
 8623 0184 6576656E 		.ascii	"eventParam\000"
 8623      74506172 
 8623      616D00
 8624              	.LASF135:
 8625 018f 494E4A5F 		.ascii	"INJ_CHAN_CONFIG\000"
 8625      4348414E 
 8625      5F434F4E 
 8625      46494700 
 8626              	.LASF156:
 8627 019f 6873696F 		.ascii	"hsiomBase\000"
 8627      6D426173 
 8627      6500
 8628              	.LASF551:
 8629 01a9 43795F53 		.ascii	"Cy_SCB_I2C_MasterWriteByte\000"
 8629      43425F49 
 8629      32435F4D 
 8629      61737465 
 8629      72577269 
 8630              	.LASF177:
 8631 01c4 73727373 		.ascii	"srssNumClkpath\000"
 8631      4E756D43 
ARM GAS  C:\Users\xhuli\AppData\Local\Temp\ccrNCJrA.s 			page 198


 8631      6C6B7061 
 8631      746800
 8632              	.LASF347:
 8633 01d3 43595F42 		.ascii	"CY_BLE_EVT_GET_CLK_CONFIG_COMPLETE\000"
 8633      4C455F45 
 8633      56545F47 
 8633      45545F43 
 8633      4C4B5F43 
 8634              	.LASF453:
 8635 01f6 43595F42 		.ascii	"CY_BLE_CONN_STATE_CLIENT_DESCR_DISCOVERING\000"
 8635      4C455F43 
 8635      4F4E4E5F 
 8635      53544154 
 8635      455F434C 
 8636              	.LASF458:
 8637 0221 6E756D43 		.ascii	"numChannels\000"
 8637      68616E6E 
 8637      656C7300 
 8638              	.LASF444:
 8639 022d 43595F42 		.ascii	"CY_BLE_ADV_STATE_ADVERTISING\000"
 8639      4C455F41 
 8639      44565F53 
 8639      54415445 
 8639      5F414456 
 8640              	.LASF568:
 8641 024a 4144435F 		.ascii	"ADC_Data\000"
 8641      44617461 
 8641      00
 8642              	.LASF320:
 8643 0253 43595F42 		.ascii	"CY_BLE_EVT_LE_SET_EVENT_MASK_COMPLETE\000"
 8643      4C455F45 
 8643      56545F4C 
 8643      455F5345 
 8643      545F4556 
 8644              	.LASF441:
 8645 0279 63795F65 		.ascii	"cy_en_ble_state_t\000"
 8645      6E5F626C 
 8645      655F7374 
 8645      6174655F 
 8645      7400
 8646              	.LASF316:
 8647 028b 43595F42 		.ascii	"CY_BLE_EVT_HARDWARE_ERROR\000"
 8647      4C455F45 
 8647      56545F48 
 8647      41524457 
 8647      4152455F 
 8648              	.LASF463:
 8649 02a5 42617365 		.ascii	"BaseType_t\000"
 8649      54797065 
 8649      5F7400
 8650              	.LASF317:
 8651 02b0 43595F42 		.ascii	"CY_BLE_EVT_WRITE_AUTH_PAYLOAD_TO_COMPLETE\000"
 8651      4C455F45 
 8651      56545F57 
 8651      52495445 
 8651      5F415554 
 8652              	.LASF490:
ARM GAS  C:\Users\xhuli\AppData\Local\Temp\ccrNCJrA.s 			page 199


 8653 02da 61766746 		.ascii	"avgFilter\000"
 8653      696C7465 
 8653      7200
 8654              	.LASF295:
 8655 02e4 74785374 		.ascii	"txStatus\000"
 8655      61747573 
 8655      00
 8656              	.LASF425:
 8657 02ed 43595F42 		.ascii	"CY_BLE_EVT_MAX\000"
 8657      4C455F45 
 8657      56545F4D 
 8657      415800
 8658              	.LASF272:
 8659 02fc 73746174 		.ascii	"state\000"
 8659      6500
 8660              	.LASF138:
 8661 0302 4D55585F 		.ascii	"MUX_SWITCH0\000"
 8661      53574954 
 8661      43483000 
 8662              	.LASF128:
 8663 030e 53415455 		.ascii	"SATURATE_INTR_SET\000"
 8663      52415445 
 8663      5F494E54 
 8663      525F5345 
 8663      5400
 8664              	.LASF141:
 8665 0320 4D55585F 		.ascii	"MUX_SWITCH_SQ_CTRL\000"
 8665      53574954 
 8665      43485F53 
 8665      515F4354 
 8665      524C00
 8666              	.LASF22:
 8667 0333 4F55545F 		.ascii	"OUT_SET\000"
 8667      53455400 
 8668              	.LASF217:
 8669 033b 6770696F 		.ascii	"gpioPrtCfgOffset\000"
 8669      50727443 
 8669      66674F66 
 8669      66736574 
 8669      00
 8670              	.LASF569:
 8671 034c 70757473 		.ascii	"puts\000"
 8671      00
 8672              	.LASF21:
 8673 0351 4F55545F 		.ascii	"OUT_CLR\000"
 8673      434C5200 
 8674              	.LASF93:
 8675 0359 494E5452 		.ascii	"INTR_M\000"
 8675      5F4D00
 8676              	.LASF499:
 8677 0360 63686172 		.ascii	"charVal\000"
 8677      56616C00 
 8678              	.LASF98:
 8679 0368 494E5452 		.ascii	"INTR_S\000"
 8679      5F5300
 8680              	.LASF179:
 8681 036f 73727373 		.ascii	"srssNumHfroot\000"
ARM GAS  C:\Users\xhuli\AppData\Local\Temp\ccrNCJrA.s 			page 200


 8681      4E756D48 
 8681      66726F6F 
 8681      7400
 8682              	.LASF246:
 8683 037d 63795F65 		.ascii	"cy_en_sar_range_detect_condition_t\000"
 8683      6E5F7361 
 8683      725F7261 
 8683      6E67655F 
 8683      64657465 
 8684              	.LASF400:
 8685 03a0 43595F42 		.ascii	"CY_BLE_EVT_GATTC_READ_MULTI_RSP\000"
 8685      4C455F45 
 8685      56545F47 
 8685      41545443 
 8685      5F524541 
 8686              	.LASF388:
 8687 03c0 43595F42 		.ascii	"CY_BLE_EVT_GAP_ADV_TX\000"
 8687      4C455F45 
 8687      56545F47 
 8687      41505F41 
 8687      44565F54 
 8688              	.LASF25:
 8689 03d6 494E5452 		.ascii	"INTR_MASK\000"
 8689      5F4D4153 
 8689      4B00
 8690              	.LASF340:
 8691 03e0 43595F42 		.ascii	"CY_BLE_EVT_LL_CNTRL_PROC_PENDING_COMPLETE\000"
 8691      4C455F45 
 8691      56545F4C 
 8691      4C5F434E 
 8691      54524C5F 
 8692              	.LASF35:
 8693 040a 4750494F 		.ascii	"GPIO_PRT_V1_Type\000"
 8693      5F505254 
 8693      5F56315F 
 8693      54797065 
 8693      00
 8694              	.LASF108:
 8695 041b 494E5452 		.ascii	"INTR_RX\000"
 8695      5F525800 
 8696              	.LASF202:
 8697 0423 64775374 		.ascii	"dwStatusChIdxPos\000"
 8697      61747573 
 8697      43684964 
 8697      78506F73 
 8697      00
 8698              	.LASF62:
 8699 0434 4932435F 		.ascii	"I2C_CFG\000"
 8699      43464700 
 8700              	.LASF406:
 8701 043c 43595F42 		.ascii	"CY_BLE_EVT_GATTC_EXEC_WRITE_RSP\000"
 8701      4C455F45 
 8701      56545F47 
 8701      41545443 
 8701      5F455845 
 8702              	.LASF509:
 8703 045c 63616C6C 		.ascii	"callback\000"
ARM GAS  C:\Users\xhuli\AppData\Local\Temp\ccrNCJrA.s 			page 201


 8703      6261636B 
 8703      00
 8704              	.LASF489:
 8705 0465 76616C75 		.ascii	"value_valley\000"
 8705      655F7661 
 8705      6C6C6579 
 8705      00
 8706              	.LASF440:
 8707 0472 43595F42 		.ascii	"CY_BLE_STATE_ON\000"
 8707      4C455F53 
 8707      54415445 
 8707      5F4F4E00 
 8708              	.LASF384:
 8709 0482 43595F42 		.ascii	"CY_BLE_EVT_GAP_GEN_SET_LOCAL_P256_KEYS_COMPLETE\000"
 8709      4C455F45 
 8709      56545F47 
 8709      41505F47 
 8709      454E5F53 
 8710              	.LASF413:
 8711 04b2 43595F42 		.ascii	"CY_BLE_EVT_GATTC_LONG_PROCEDURE_END\000"
 8711      4C455F45 
 8711      56545F47 
 8711      41545443 
 8711      5F4C4F4E 
 8712              	.LASF72:
 8713 04d6 52585F46 		.ascii	"RX_FIFO_STATUS\000"
 8713      49464F5F 
 8713      53544154 
 8713      555300
 8714              	.LASF418:
 8715 04e5 43595F42 		.ascii	"CY_BLE_EVT_L2CAP_CBFC_CONN_CNF\000"
 8715      4C455F45 
 8715      56545F4C 
 8715      32434150 
 8715      5F434246 
 8716              	.LASF426:
 8717 0504 62644861 		.ascii	"bdHandle\000"
 8717      6E646C65 
 8717      00
 8718              	.LASF498:
 8719 050d 77726974 		.ascii	"writeRefValue\000"
 8719      65526566 
 8719      56616C75 
 8719      6500
 8720              	.LASF517:
 8721 051b 4932435F 		.ascii	"I2C_Data\000"
 8721      44617461 
 8721      00
 8722              	.LASF496:
 8723 0524 73657276 		.ascii	"serviceHandle\000"
 8723      69636548 
 8723      616E646C 
 8723      6500
 8724              	.LASF4:
 8725 0532 5F5F7569 		.ascii	"__uint8_t\000"
 8725      6E74385F 
 8725      7400
ARM GAS  C:\Users\xhuli\AppData\Local\Temp\ccrNCJrA.s 			page 202


 8726              	.LASF367:
 8727 053c 43595F42 		.ascii	"CY_BLE_EVT_GAP_AUTH_FAILED\000"
 8727      4C455F45 
 8727      56545F47 
 8727      41505F41 
 8727      5554485F 
 8728              	.LASF110:
 8729 0557 494E5452 		.ascii	"INTR_RX_MASK\000"
 8729      5F52585F 
 8729      4D41534B 
 8729      00
 8730              	.LASF333:
 8731 0564 43595F42 		.ascii	"CY_BLE_EVT_ADD_DEVICE_TO_WHITE_LIST_COMPLETE\000"
 8731      4C455F45 
 8731      56545F41 
 8731      44445F44 
 8731      45564943 
 8732              	.LASF270:
 8733 0591 75736552 		.ascii	"useRxFifo\000"
 8733      78466966 
 8733      6F00
 8734              	.LASF132:
 8735 059b 52414E47 		.ascii	"RANGE_INTR_SET\000"
 8735      455F494E 
 8735      54525F53 
 8735      455400
 8736              	.LASF257:
 8737 05aa 72616E67 		.ascii	"rangeIntrMask\000"
 8737      65496E74 
 8737      724D6173 
 8737      6B00
 8738              	.LASF504:
 8739 05b8 6D61736B 		.ascii	"mask_MSB\000"
 8739      5F4D5342 
 8739      00
 8740              	.LASF408:
 8741 05c1 43595F42 		.ascii	"CY_BLE_EVT_GATTC_HANDLE_VALUE_IND\000"
 8741      4C455F45 
 8741      56545F47 
 8741      41545443 
 8741      5F48414E 
 8742              	.LASF305:
 8743 05e3 74784275 		.ascii	"txBufSize\000"
 8743      6653697A 
 8743      6500
 8744              	.LASF312:
 8745 05ed 43595F42 		.ascii	"CY_BLE_EVT_STACK_BUSY_STATUS\000"
 8745      4C455F45 
 8745      56545F53 
 8745      5441434B 
 8745      5F425553 
 8746              	.LASF70:
 8747 060a 52585F43 		.ascii	"RX_CTRL\000"
 8747      54524C00 
 8748              	.LASF567:
 8749 0612 4144435F 		.ascii	"ADC_GetResult16\000"
 8749      47657452 
ARM GAS  C:\Users\xhuli\AppData\Local\Temp\ccrNCJrA.s 			page 203


 8749      6573756C 
 8749      74313600 
 8750              	.LASF9:
 8751 0622 6C6F6E67 		.ascii	"long int\000"
 8751      20696E74 
 8751      00
 8752              	.LASF36:
 8753 062b 494E5452 		.ascii	"INTR_CAUSE0\000"
 8753      5F434155 
 8753      53453000 
 8754              	.LASF392:
 8755 0637 43595F42 		.ascii	"CY_BLE_EVT_GATTS_XCNHG_MTU_REQ\000"
 8755      4C455F45 
 8755      56545F47 
 8755      41545453 
 8755      5F58434E 
 8756              	.LASF38:
 8757 0656 494E5452 		.ascii	"INTR_CAUSE2\000"
 8757      5F434155 
 8757      53453200 
 8758              	.LASF39:
 8759 0662 494E5452 		.ascii	"INTR_CAUSE3\000"
 8759      5F434155 
 8759      53453300 
 8760              	.LASF358:
 8761 066e 43595F42 		.ascii	"CY_BLE_EVT_SET_EVENT_MASK_COMPLETE\000"
 8761      4C455F45 
 8761      56545F53 
 8761      45545F45 
 8761      56454E54 
 8762              	.LASF454:
 8763 0691 43595F42 		.ascii	"CY_BLE_CONN_STATE_CLIENT_DISCOVERED\000"
 8763      4C455F43 
 8763      4F4E4E5F 
 8763      53544154 
 8763      455F434C 
 8764              	.LASF401:
 8765 06b5 43595F42 		.ascii	"CY_BLE_EVT_GATTS_WRITE_REQ\000"
 8765      4C455F45 
 8765      56545F47 
 8765      41545453 
 8765      5F575249 
 8766              	.LASF534:
 8767 06d0 62656174 		.ascii	"beat\000"
 8767      00
 8768              	.LASF50:
 8769 06d5 5350495F 		.ascii	"SPI_CTRL\000"
 8769      4354524C 
 8769      00
 8770              	.LASF548:
 8771 06de 4932435F 		.ascii	"I2C_Start\000"
 8771      53746172 
 8771      7400
 8772              	.LASF205:
 8773 06e8 70657269 		.ascii	"periTrCmdGrSelMsk\000"
 8773      5472436D 
 8773      64477253 
ARM GAS  C:\Users\xhuli\AppData\Local\Temp\ccrNCJrA.s 			page 204


 8773      656C4D73 
 8773      6B00
 8774              	.LASF189:
 8775 06fa 666C6173 		.ascii	"flashPipeRequired\000"
 8775      68506970 
 8775      65526571 
 8775      75697265 
 8775      6400
 8776              	.LASF103:
 8777 070c 494E5452 		.ascii	"INTR_TX\000"
 8777      5F545800 
 8778              	.LASF431:
 8779 0714 63795F73 		.ascii	"cy_stc_ble_gatt_value_t\000"
 8779      74635F62 
 8779      6C655F67 
 8779      6174745F 
 8779      76616C75 
 8780              	.LASF212:
 8781 072c 70657269 		.ascii	"periDiv8CtlOffset\000"
 8781      44697638 
 8781      43746C4F 
 8781      66667365 
 8781      7400
 8782              	.LASF106:
 8783 073e 494E5452 		.ascii	"INTR_TX_MASKED\000"
 8783      5F54585F 
 8783      4D41534B 
 8783      454400
 8784              	.LASF207:
 8785 074d 70657269 		.ascii	"periTrGrSize\000"
 8785      54724772 
 8785      53697A65 
 8785      00
 8786              	.LASF339:
 8787 075a 43595F42 		.ascii	"CY_BLE_EVT_SET_PRIVACY_MODE_COMPLETE\000"
 8787      4C455F45 
 8787      56545F53 
 8787      45545F50 
 8787      52495641 
 8788              	.LASF6:
 8789 077f 5F5F7569 		.ascii	"__uint16_t\000"
 8789      6E743136 
 8789      5F7400
 8790              	.LASF371:
 8791 078a 43595F42 		.ascii	"CY_BLE_EVT_GAP_ENCRYPT_CHANGE\000"
 8791      4C455F45 
 8791      56545F47 
 8791      41505F45 
 8791      4E435259 
 8792              	.LASF385:
 8793 07a8 43595F42 		.ascii	"CY_BLE_EVT_GAP_CREATE_CONN_CANCEL_COMPLETE\000"
 8793      4C455F45 
 8793      56545F47 
 8793      41505F43 
 8793      52454154 
 8794              	.LASF330:
 8795 07d3 43595F42 		.ascii	"CY_BLE_EVT_SET_HOST_CHANNEL_COMPLETE\000"
ARM GAS  C:\Users\xhuli\AppData\Local\Temp\ccrNCJrA.s 			page 205


 8795      4C455F45 
 8795      56545F53 
 8795      45545F48 
 8795      4F53545F 
 8796              	.LASF54:
 8797 07f8 55415254 		.ascii	"UART_RX_CTRL\000"
 8797      5F52585F 
 8797      4354524C 
 8797      00
 8798              	.LASF524:
 8799 0805 63795F62 		.ascii	"cy_ble_pendingFlashWrite\000"
 8799      6C655F70 
 8799      656E6469 
 8799      6E67466C 
 8799      61736857 
 8800              	.LASF109:
 8801 081e 494E5452 		.ascii	"INTR_RX_SET\000"
 8801      5F52585F 
 8801      53455400 
 8802              	.LASF443:
 8803 082a 43595F42 		.ascii	"CY_BLE_ADV_STATE_ADV_INITIATED\000"
 8803      4C455F41 
 8803      44565F53 
 8803      54415445 
 8803      5F414456 
 8804              	.LASF311:
 8805 0849 43595F42 		.ascii	"CY_BLE_EVT_TIMEOUT\000"
 8805      4C455F45 
 8805      56545F54 
 8805      494D454F 
 8805      555400
 8806              	.LASF479:
 8807 085c 73746464 		.ascii	"stddev\000"
 8807      657600
 8808              	.LASF33:
 8809 0863 4346475F 		.ascii	"CFG_IN_GPIO5V\000"
 8809      494E5F47 
 8809      50494F35 
 8809      5600
 8810              	.LASF514:
 8811 0871 47524545 		.ascii	"GREEN\000"
 8811      4E00
 8812              	.LASF332:
 8813 0877 43595F42 		.ascii	"CY_BLE_EVT_REMOVE_DEVICE_FROM_RPA_LIST_COMPLETE\000"
 8813      4C455F45 
 8813      56545F52 
 8813      454D4F56 
 8813      455F4445 
 8814              	.LASF60:
 8815 08a7 4932435F 		.ascii	"I2C_M_CMD\000"
 8815      4D5F434D 
 8815      4400
 8816              	.LASF419:
 8817 08b1 43595F42 		.ascii	"CY_BLE_EVT_L2CAP_CBFC_DISCONN_IND\000"
 8817      4C455F45 
 8817      56545F4C 
 8817      32434150 
ARM GAS  C:\Users\xhuli\AppData\Local\Temp\ccrNCJrA.s 			page 206


 8817      5F434246 
 8818              	.LASF457:
 8819 08d3 6368616E 		.ascii	"channelBase\000"
 8819      6E656C42 
 8819      61736500 
 8820              	.LASF180:
 8821 08df 70657269 		.ascii	"periClockNr\000"
 8821      436C6F63 
 8821      6B4E7200 
 8822              	.LASF465:
 8823 08eb 51756575 		.ascii	"QueueHandle_t\000"
 8823      6548616E 
 8823      646C655F 
 8823      7400
 8824              	.LASF2:
 8825 08f9 7369676E 		.ascii	"signed char\000"
 8825      65642063 
 8825      68617200 
 8826              	.LASF379:
 8827 0905 43595F42 		.ascii	"CY_BLE_EVT_GAPC_DIRECT_ADV_REPORT\000"
 8827      4C455F45 
 8827      56545F47 
 8827      4150435F 
 8827      44495245 
 8828              	.LASF15:
 8829 0927 75696E74 		.ascii	"uint8_t\000"
 8829      385F7400 
 8830              	.LASF145:
 8831 092f 5341525F 		.ascii	"SAR_V1_Type\000"
 8831      56315F54 
 8831      79706500 
 8832              	.LASF263:
 8833 093b 43595F53 		.ascii	"CY_SCB_I2C_WRITE_XFER\000"
 8833      43425F49 
 8833      32435F57 
 8833      52495445 
 8833      5F584645 
 8834              	.LASF429:
 8835 0951 63795F62 		.ascii	"cy_ble_gatt_db_attr_handle_t\000"
 8835      6C655F67 
 8835      6174745F 
 8835      64625F61 
 8835      7474725F 
 8836              	.LASF210:
 8837 096e 70657269 		.ascii	"periDivCmdPaDivSelPos\000"
 8837      44697643 
 8837      6D645061 
 8837      44697653 
 8837      656C506F 
 8838              	.LASF117:
 8839 0984 52414E47 		.ascii	"RANGE_COND\000"
 8839      455F434F 
 8839      4E4400
 8840              	.LASF231:
 8841 098f 63707573 		.ascii	"cpussRomCtl\000"
 8841      73526F6D 
 8841      43746C00 
ARM GAS  C:\Users\xhuli\AppData\Local\Temp\ccrNCJrA.s 			page 207


 8842              	.LASF284:
 8843 099b 736C6176 		.ascii	"slaveTxBufferIdx\000"
 8843      65547842 
 8843      75666665 
 8843      72496478 
 8843      00
 8844              	.LASF422:
 8845 09ac 43595F42 		.ascii	"CY_BLE_EVT_L2CAP_CBFC_RX_CREDIT_IND\000"
 8845      4C455F45 
 8845      56545F4C 
 8845      32434150 
 8845      5F434246 
 8846              	.LASF409:
 8847 09d0 43595F42 		.ascii	"CY_BLE_EVT_GATTS_HANDLE_VALUE_CNF\000"
 8847      4C455F45 
 8847      56545F47 
 8847      41545453 
 8847      5F48414E 
 8848              	.LASF152:
 8849 09f2 666C6173 		.ascii	"flashcBase\000"
 8849      68634261 
 8849      736500
 8850              	.LASF286:
 8851 09fd 736C6176 		.ascii	"slaveRxBuffer\000"
 8851      65527842 
 8851      75666665 
 8851      7200
 8852              	.LASF34:
 8853 0a0b 52455345 		.ascii	"RESERVED1\000"
 8853      52564544 
 8853      3100
 8854              	.LASF57:
 8855 0a15 52455345 		.ascii	"RESERVED2\000"
 8855      52564544 
 8855      3200
 8856              	.LASF63:
 8857 0a1f 52455345 		.ascii	"RESERVED3\000"
 8857      52564544 
 8857      3300
 8858              	.LASF67:
 8859 0a29 52455345 		.ascii	"RESERVED4\000"
 8859      52564544 
 8859      3400
 8860              	.LASF69:
 8861 0a33 52455345 		.ascii	"RESERVED5\000"
 8861      52564544 
 8861      3500
 8862              	.LASF73:
 8863 0a3d 52455345 		.ascii	"RESERVED6\000"
 8863      52564544 
 8863      3600
 8864              	.LASF75:
 8865 0a47 52455345 		.ascii	"RESERVED7\000"
 8865      52564544 
 8865      3700
 8866              	.LASF78:
 8867 0a51 52455345 		.ascii	"RESERVED8\000"
ARM GAS  C:\Users\xhuli\AppData\Local\Temp\ccrNCJrA.s 			page 208


 8867      52564544 
 8867      3800
 8868              	.LASF80:
 8869 0a5b 52455345 		.ascii	"RESERVED9\000"
 8869      52564544 
 8869      3900
 8870              	.LASF291:
 8871 0a65 63795F73 		.ascii	"cy_stc_scb_i2c_context_t\000"
 8871      74635F73 
 8871      63625F69 
 8871      32635F63 
 8871      6F6E7465 
 8872              	.LASF256:
 8873 0a7e 73617449 		.ascii	"satIntrMask\000"
 8873      6E74724D 
 8873      61736B00 
 8874              	.LASF546:
 8875 0a8a 55415254 		.ascii	"UART_Start\000"
 8875      5F537461 
 8875      727400
 8876              	.LASF381:
 8877 0a95 43595F42 		.ascii	"CY_BLE_EVT_GAP_DEVICE_ADDR_GEN_COMPLETE\000"
 8877      4C455F45 
 8877      56545F47 
 8877      41505F44 
 8877      45564943 
 8878              	.LASF452:
 8879 0abd 43595F42 		.ascii	"CY_BLE_CONN_STATE_CLIENT_CHAR_DISCOVERING\000"
 8879      4C455F43 
 8879      4F4E4E5F 
 8879      53544154 
 8879      455F434C 
 8880              	.LASF247:
 8881 0ae7 6374726C 		.ascii	"ctrl\000"
 8881      00
 8882              	.LASF396:
 8883 0aec 43595F42 		.ascii	"CY_BLE_EVT_GATTC_FIND_INFO_RSP\000"
 8883      4C455F45 
 8883      56545F47 
 8883      41545443 
 8883      5F46494E 
 8884              	.LASF364:
 8885 0b0b 43595F42 		.ascii	"CY_BLE_EVT_GAP_PASSKEY_ENTRY_REQUEST\000"
 8885      4C455F45 
 8885      56545F47 
 8885      41505F50 
 8885      4153534B 
 8886              	.LASF261:
 8887 0b30 76726566 		.ascii	"vrefMvValue\000"
 8887      4D765661 
 8887      6C756500 
 8888              	.LASF226:
 8889 0b3c 63707573 		.ascii	"cpussTrimRamCtlOffset\000"
 8889      73547269 
 8889      6D52616D 
 8889      43746C4F 
 8889      66667365 
ARM GAS  C:\Users\xhuli\AppData\Local\Temp\ccrNCJrA.s 			page 209


 8890              	.LASF131:
 8891 0b52 52414E47 		.ascii	"RANGE_INTR\000"
 8891      455F494E 
 8891      545200
 8892              	.LASF513:
 8893 0b5d 626C6554 		.ascii	"bleTask\000"
 8893      61736B00 
 8894              	.LASF136:
 8895 0b65 494E4A5F 		.ascii	"INJ_RESULT\000"
 8895      52455355 
 8895      4C5400
 8896              	.LASF241:
 8897 0b70 5F426F6F 		.ascii	"_Bool\000"
 8897      6C00
 8898              	.LASF158:
 8899 0b76 70617373 		.ascii	"passBase\000"
 8899      42617365 
 8899      00
 8900              	.LASF227:
 8901 0b7f 63707573 		.ascii	"cpussTrimRomCtlOffset\000"
 8901      73547269 
 8901      6D526F6D 
 8901      43746C4F 
 8901      66667365 
 8902              	.LASF492:
 8903 0b95 66696C74 		.ascii	"filteredY\000"
 8903      65726564 
 8903      5900
 8904              	.LASF432:
 8905 0b9f 76616C75 		.ascii	"value\000"
 8905      6500
 8906              	.LASF473:
 8907 0ba5 6368616E 		.ascii	"chan\000"
 8907      00
 8908              	.LASF566:
 8909 0baa 433A5C55 		.ascii	"C:\\Users\\xhuli\\OneDrive\\Documents\\PSoC Creator"
 8909      73657273 
 8909      5C786875 
 8909      6C695C4F 
 8909      6E654472 
 8910 0bd8 5C46696E 		.ascii	"\\Final project\\HR\\HR\\heart_rate.cydsn\000"
 8910      616C2070 
 8910      726F6A65 
 8910      63745C48 
 8910      525C4852 
 8911              	.LASF239:
 8912 0bfe 63686172 		.ascii	"char\000"
 8912      00
 8913              	.LASF411:
 8914 0c03 43595F42 		.ascii	"CY_BLE_EVT_GATTC_STOP_CMD_COMPLETE\000"
 8914      4C455F45 
 8914      56545F47 
 8914      41545443 
 8914      5F53544F 
 8915              	.LASF61:
 8916 0c26 4932435F 		.ascii	"I2C_S_CMD\000"
 8916      535F434D 
ARM GAS  C:\Users\xhuli\AppData\Local\Temp\ccrNCJrA.s 			page 210


 8916      4400
 8917              	.LASF506:
 8918 0c30 6F757470 		.ascii	"output\000"
 8918      757400
 8919              	.LASF335:
 8920 0c37 43595F42 		.ascii	"CY_BLE_EVT_GET_PHY_COMPLETE\000"
 8920      4C455F45 
 8920      56545F47 
 8920      45545F50 
 8920      48595F43 
 8921              	.LASF540:
 8922 0c53 43795F53 		.ascii	"Cy_SysLib_AssertFailed\000"
 8922      79734C69 
 8922      625F4173 
 8922      73657274 
 8922      4661696C 
 8923              	.LASF480:
 8924 0c6a 7468655F 		.ascii	"the_mean\000"
 8924      6D65616E 
 8924      00
 8925              	.LASF352:
 8926 0c73 43595F42 		.ascii	"CY_BLE_EVT_AES_CCM_DECRYPT_COMPLETE\000"
 8926      4C455F45 
 8926      56545F41 
 8926      45535F43 
 8926      434D5F44 
 8927              	.LASF45:
 8928 0c97 4750494F 		.ascii	"GPIO_V1_Type\000"
 8928      5F56315F 
 8928      54797065 
 8928      00
 8929              	.LASF302:
 8930 0ca4 72784275 		.ascii	"rxBufSize\000"
 8930      6653697A 
 8930      6500
 8931              	.LASF53:
 8932 0cae 55415254 		.ascii	"UART_TX_CTRL\000"
 8932      5F54585F 
 8932      4354524C 
 8932      00
 8933              	.LASF466:
 8934 0cbb 53656D61 		.ascii	"SemaphoreHandle_t\000"
 8934      70686F72 
 8934      6548616E 
 8934      646C655F 
 8934      7400
 8935              	.LASF68:
 8936 0ccd 54585F46 		.ascii	"TX_FIFO_WR\000"
 8936      49464F5F 
 8936      575200
 8937              	.LASF550:
 8938 0cd8 43795F53 		.ascii	"Cy_SCB_I2C_MasterSendStart\000"
 8938      43425F49 
 8938      32435F4D 
 8938      61737465 
 8938      7253656E 
 8939              	.LASF362:
ARM GAS  C:\Users\xhuli\AppData\Local\Temp\ccrNCJrA.s 			page 211


 8940 0cf3 43595F42 		.ascii	"CY_BLE_EVT_GAPC_SCAN_PROGRESS_RESULT\000"
 8940      4C455F45 
 8940      56545F47 
 8940      4150435F 
 8940      5343414E 
 8941              	.LASF378:
 8942 0d18 43595F42 		.ascii	"CY_BLE_EVT_GAP_ENHANCE_CONN_COMPLETE\000"
 8942      4C455F45 
 8942      56545F47 
 8942      41505F45 
 8942      4E48414E 
 8943              	.LASF493:
 8944 0d3d 496E6974 		.ascii	"Init_Components\000"
 8944      5F436F6D 
 8944      706F6E65 
 8944      6E747300 
 8945              	.LASF414:
 8946 0d4d 43595F42 		.ascii	"CY_BLE_EVT_L2CAP_CONN_PARAM_UPDATE_REQ\000"
 8946      4C455F45 
 8946      56545F4C 
 8946      32434150 
 8946      5F434F4E 
 8947              	.LASF439:
 8948 0d74 43595F42 		.ascii	"CY_BLE_STATE_INITIALIZING\000"
 8948      4C455F53 
 8948      54415445 
 8948      5F494E49 
 8948      5449414C 
 8949              	.LASF174:
 8950 0d8e 63707573 		.ascii	"cpussIpc0Irq\000"
 8950      73497063 
 8950      30497271 
 8950      00
 8951              	.LASF467:
 8952 0d9b 75696E74 		.ascii	"uint\000"
 8952      00
 8953              	.LASF29:
 8954 0da0 4346475F 		.ascii	"CFG_IN\000"
 8954      494E00
 8955              	.LASF495:
 8956 0da7 73656E64 		.ascii	"sendTempData\000"
 8956      54656D70 
 8956      44617461 
 8956      00
 8957              	.LASF281:
 8958 0db4 736C6176 		.ascii	"slaveRdBufEmpty\000"
 8958      65526442 
 8958      7566456D 
 8958      70747900 
 8959              	.LASF262:
 8960 0dc4 63795F73 		.ascii	"cy_stc_sar_config_t\000"
 8960      74635F73 
 8960      61725F63 
 8960      6F6E6669 
 8960      675F7400 
 8961              	.LASF154:
 8962 0dd8 75646242 		.ascii	"udbBase\000"
ARM GAS  C:\Users\xhuli\AppData\Local\Temp\ccrNCJrA.s 			page 212


 8962      61736500 
 8963              	.LASF538:
 8964 0de0 73616D70 		.ascii	"sample\000"
 8964      6C6500
 8965              	.LASF42:
 8966 0de7 5644445F 		.ascii	"VDD_INTR_MASK\000"
 8966      494E5452 
 8966      5F4D4153 
 8966      4B00
 8967              	.LASF139:
 8968 0df5 4D55585F 		.ascii	"MUX_SWITCH_CLEAR0\000"
 8968      53574954 
 8968      43485F43 
 8968      4C454152 
 8968      3000
 8969              	.LASF402:
 8970 0e07 43595F42 		.ascii	"CY_BLE_EVT_GATTC_WRITE_RSP\000"
 8970      4C455F45 
 8970      56545F47 
 8970      41545443 
 8970      5F575249 
 8971              	.LASF221:
 8972 0e22 63707573 		.ascii	"cpussCm0ClockCtlOffset\000"
 8972      73436D30 
 8972      436C6F63 
 8972      6B43746C 
 8972      4F666673 
 8973              	.LASF206:
 8974 0e39 70657269 		.ascii	"periTrGrOffset\000"
 8974      54724772 
 8974      4F666673 
 8974      657400
 8975              	.LASF501:
 8976 0e48 73686966 		.ascii	"shiftOut\000"
 8976      744F7574 
 8976      00
 8977              	.LASF285:
 8978 0e51 736C6176 		.ascii	"slaveTxBufferCnt\000"
 8978      65547842 
 8978      75666665 
 8978      72436E74 
 8978      00
 8979              	.LASF236:
 8980 0e62 6970634C 		.ascii	"ipcLockStatusOffset\000"
 8980      6F636B53 
 8980      74617475 
 8980      734F6666 
 8980      73657400 
 8981              	.LASF407:
 8982 0e76 43595F42 		.ascii	"CY_BLE_EVT_GATTC_HANDLE_VALUE_NTF\000"
 8982      4C455F45 
 8982      56545F47 
 8982      41545443 
 8982      5F48414E 
 8983              	.LASF377:
 8984 0e98 43595F42 		.ascii	"CY_BLE_EVT_GAP_OOB_GENERATED_NOTIFICATION\000"
 8984      4C455F45 
ARM GAS  C:\Users\xhuli\AppData\Local\Temp\ccrNCJrA.s 			page 213


 8984      56545F47 
 8984      41505F4F 
 8984      4F425F47 
 8985              	.LASF360:
 8986 0ec2 43595F42 		.ascii	"CY_BLE_EVT_SET_CONN_PRIORITY_COMPLETE\000"
 8986      4C455F45 
 8986      56545F53 
 8986      45545F43 
 8986      4F4E4E5F 
 8987              	.LASF134:
 8988 0ee8 52414E47 		.ascii	"RANGE_INTR_MASKED\000"
 8988      455F494E 
 8988      54525F4D 
 8988      41534B45 
 8988      4400
 8989              	.LASF470:
 8990 0efa 43795F47 		.ascii	"Cy_GPIO_Set\000"
 8990      50494F5F 
 8990      53657400 
 8991              	.LASF336:
 8992 0f06 43595F42 		.ascii	"CY_BLE_EVT_SET_DEFAULT_PHY_COMPLETE\000"
 8992      4C455F45 
 8992      56545F53 
 8992      45545F44 
 8992      45464155 
 8993              	.LASF544:
 8994 0f2a 7072696E 		.ascii	"printf\000"
 8994      746600
 8995              	.LASF114:
 8996 0f31 53414D50 		.ascii	"SAMPLE_TIME01\000"
 8996      4C455F54 
 8996      494D4530 
 8996      3100
 8997              	.LASF30:
 8998 0f3f 4346475F 		.ascii	"CFG_OUT\000"
 8998      4F555400 
 8999              	.LASF32:
 9000 0f47 52455345 		.ascii	"RESERVED\000"
 9000      52564544 
 9000      00
 9001              	.LASF225:
 9002 0f50 63707573 		.ascii	"cpussCm4PwrCtlOffset\000"
 9002      73436D34 
 9002      50777243 
 9002      746C4F66 
 9002      66736574 
 9003              	.LASF55:
 9004 0f65 55415254 		.ascii	"UART_RX_STATUS\000"
 9004      5F52585F 
 9004      53544154 
 9004      555300
 9005              	.LASF265:
 9006 0f74 43595F53 		.ascii	"CY_SCB_I2C_ACK\000"
 9006      43425F49 
 9006      32435F41 
 9006      434B00
 9007              	.LASF197:
ARM GAS  C:\Users\xhuli\AppData\Local\Temp\ccrNCJrA.s 			page 214


 9008 0f83 666C6173 		.ascii	"flashCtlMainWs4Freq\000"
 9008      6843746C 
 9008      4D61696E 
 9008      57733446 
 9008      72657100 
 9009              	.LASF389:
 9010 0f97 43595F42 		.ascii	"CY_BLE_EVT_GATTC_ERROR_RSP\000"
 9010      4C455F45 
 9010      56545F47 
 9010      41545443 
 9010      5F455252 
 9011              	.LASF404:
 9012 0fb2 43595F42 		.ascii	"CY_BLE_EVT_GATTS_PREP_WRITE_REQ\000"
 9012      4C455F45 
 9012      56545F47 
 9012      41545453 
 9012      5F505245 
 9013              	.LASF459:
 9014 0fd2 6877436F 		.ascii	"hwConfigStc\000"
 9014      6E666967 
 9014      53746300 
 9015              	.LASF264:
 9016 0fde 43595F53 		.ascii	"CY_SCB_I2C_READ_XFER\000"
 9016      43425F49 
 9016      32435F52 
 9016      4541445F 
 9016      58464552 
 9017              	.LASF423:
 9018 0ff3 43595F42 		.ascii	"CY_BLE_EVT_L2CAP_CBFC_TX_CREDIT_IND\000"
 9018      4C455F45 
 9018      56545F4C 
 9018      32434150 
 9018      5F434246 
 9019              	.LASF176:
 9020 1017 63707573 		.ascii	"cpussNotConnectedIrq\000"
 9020      734E6F74 
 9020      436F6E6E 
 9020      65637465 
 9020      64497271 
 9021              	.LASF133:
 9022 102c 52414E47 		.ascii	"RANGE_INTR_MASK\000"
 9022      455F494E 
 9022      54525F4D 
 9022      41534B00 
 9023              	.LASF218:
 9024 103c 6770696F 		.ascii	"gpioPrtCfgInOffset\000"
 9024      50727443 
 9024      6667496E 
 9024      4F666673 
 9024      657400
 9025              	.LASF153:
 9026 104f 70657269 		.ascii	"periBase\000"
 9026      42617365 
 9026      00
 9027              	.LASF417:
 9028 1058 43595F42 		.ascii	"CY_BLE_EVT_L2CAP_CBFC_CONN_IND\000"
 9028      4C455F45 
ARM GAS  C:\Users\xhuli\AppData\Local\Temp\ccrNCJrA.s 			page 215


 9028      56545F4C 
 9028      32434150 
 9028      5F434246 
 9029              	.LASF512:
 9030 1077 77726974 		.ascii	"writeReqParameter\000"
 9030      65526571 
 9030      50617261 
 9030      6D657465 
 9030      7200
 9031              	.LASF344:
 9032 1089 43595F42 		.ascii	"CY_BLE_EVT_GET_RSSI_COMPLETE\000"
 9032      4C455F45 
 9032      56545F47 
 9032      45545F52 
 9032      5353495F 
 9033              	.LASF337:
 9034 10a6 43595F42 		.ascii	"CY_BLE_EVT_SET_PHY_COMPLETE\000"
 9034      4C455F45 
 9034      56545F53 
 9034      45545F50 
 9034      48595F43 
 9035              	.LASF277:
 9036 10c2 6D617374 		.ascii	"masterBufferSize\000"
 9036      65724275 
 9036      66666572 
 9036      53697A65 
 9036      00
 9037              	.LASF537:
 9038 10d3 706F7373 		.ascii	"possible_val\000"
 9038      69626C65 
 9038      5F76616C 
 9038      00
 9039              	.LASF20:
 9040 10e0 73697A65 		.ascii	"sizetype\000"
 9040      74797065 
 9040      00
 9041              	.LASF173:
 9042 10e9 63707573 		.ascii	"cpussFlashPaSize\000"
 9042      73466C61 
 9042      73685061 
 9042      53697A65 
 9042      00
 9043              	.LASF121:
 9044 10fa 4348414E 		.ascii	"CHAN_WORK\000"
 9044      5F574F52 
 9044      4B00
 9045              	.LASF289:
 9046 1104 63624576 		.ascii	"cbEvents\000"
 9046      656E7473 
 9046      00
 9047              	.LASF533:
 9048 110d 6E756D5F 		.ascii	"num_steps\000"
 9048      73746570 
 9048      7300
 9049              	.LASF394:
 9050 1117 43595F42 		.ascii	"CY_BLE_EVT_GATTC_READ_BY_GROUP_TYPE_RSP\000"
 9050      4C455F45 
ARM GAS  C:\Users\xhuli\AppData\Local\Temp\ccrNCJrA.s 			page 216


 9050      56545F47 
 9050      41545443 
 9050      5F524541 
 9051              	.LASF11:
 9052 113f 6C6F6E67 		.ascii	"long unsigned int\000"
 9052      20756E73 
 9052      69676E65 
 9052      6420696E 
 9052      7400
 9053              	.LASF515:
 9054 1151 4144435F 		.ascii	"ADC_bytes\000"
 9054      62797465 
 9054      7300
 9055              	.LASF373:
 9056 115b 43595F42 		.ascii	"CY_BLE_EVT_GAPC_SCAN_START_STOP\000"
 9056      4C455F45 
 9056      56545F47 
 9056      4150435F 
 9056      5343414E 
 9057              	.LASF115:
 9058 117b 53414D50 		.ascii	"SAMPLE_TIME23\000"
 9058      4C455F54 
 9058      494D4532 
 9058      3300
 9059              	.LASF183:
 9060 1189 65704D6F 		.ascii	"epMonitorNr\000"
 9060      6E69746F 
 9060      724E7200 
 9061              	.LASF267:
 9062 1195 63795F65 		.ascii	"cy_en_scb_i2c_command_t\000"
 9062      6E5F7363 
 9062      625F6932 
 9062      635F636F 
 9062      6D6D616E 
 9063              	.LASF328:
 9064 11ad 43595F42 		.ascii	"CY_BLE_EVT_SET_RPA_TO_COMPLETE\000"
 9064      4C455F45 
 9064      56545F53 
 9064      45545F52 
 9064      50415F54 
 9065              	.LASF234:
 9066 11cc 63707573 		.ascii	"cpussRam2Ctl0\000"
 9066      7352616D 
 9066      3243746C 
 9066      3000
 9067              	.LASF95:
 9068 11da 494E5452 		.ascii	"INTR_M_MASK\000"
 9068      5F4D5F4D 
 9068      41534B00 
 9069              	.LASF245:
 9070 11e6 43595F53 		.ascii	"CY_SAR_RANGE_COND_OUTSIDE\000"
 9070      41525F52 
 9070      414E4745 
 9070      5F434F4E 
 9070      445F4F55 
 9071              	.LASF306:
 9072 1200 74784C65 		.ascii	"txLeftToTransmit\000"
ARM GAS  C:\Users\xhuli\AppData\Local\Temp\ccrNCJrA.s 			page 217


 9072      6674546F 
 9072      5472616E 
 9072      736D6974 
 9072      00
 9073              	.LASF178:
 9074 1211 73727373 		.ascii	"srssNumPll\000"
 9074      4E756D50 
 9074      6C6C00
 9075              	.LASF161:
 9076 121c 63707573 		.ascii	"cpussVersion\000"
 9076      73566572 
 9076      73696F6E 
 9076      00
 9077              	.LASF310:
 9078 1229 43595F42 		.ascii	"CY_BLE_EVT_STACK_ON\000"
 9078      4C455F45 
 9078      56545F53 
 9078      5441434B 
 9078      5F4F4E00 
 9079              	.LASF416:
 9080 123d 43595F42 		.ascii	"CY_BLE_EVT_L2CAP_COMMAND_REJ\000"
 9080      4C455F45 
 9080      56545F4C 
 9080      32434150 
 9080      5F434F4D 
 9081              	.LASF175:
 9082 125a 63707573 		.ascii	"cpussFmIrq\000"
 9082      73466D49 
 9082      727100
 9083              	.LASF280:
 9084 1265 736C6176 		.ascii	"slaveStatus\000"
 9084      65537461 
 9084      74757300 
 9085              	.LASF391:
 9086 1271 43595F42 		.ascii	"CY_BLE_EVT_GATT_DISCONNECT_IND\000"
 9086      4C455F45 
 9086      56545F47 
 9086      4154545F 
 9086      44495343 
 9087              	.LASF186:
 9088 1290 70726F74 		.ascii	"protBusMasterMask\000"
 9088      4275734D 
 9088      61737465 
 9088      724D6173 
 9088      6B00
 9089              	.LASF299:
 9090 12a2 72785269 		.ascii	"rxRingBufHead\000"
 9090      6E674275 
 9090      66486561 
 9090      6400
 9091              	.LASF199:
 9092 12b0 64774368 		.ascii	"dwChSize\000"
 9092      53697A65 
 9092      00
 9093              	.LASF461:
 9094 12b9 636C6B44 		.ascii	"clkDivider\000"
 9094      69766964 
ARM GAS  C:\Users\xhuli\AppData\Local\Temp\ccrNCJrA.s 			page 218


 9094      657200
 9095              	.LASF494:
 9096 12c4 72617732 		.ascii	"raw2\000"
 9096      00
 9097              	.LASF24:
 9098 12c9 494E5452 		.ascii	"INTR\000"
 9098      00
 9099              	.LASF397:
 9100 12ce 43595F42 		.ascii	"CY_BLE_EVT_GATTC_FIND_BY_TYPE_VALUE_RSP\000"
 9100      4C455F45 
 9100      56545F47 
 9100      41545443 
 9100      5F46494E 
 9101              	.LASF28:
 9102 12f6 494E5452 		.ascii	"INTR_CFG\000"
 9102      5F434647 
 9102      00
 9103              	.LASF116:
 9104 12ff 52414E47 		.ascii	"RANGE_THRES\000"
 9104      455F5448 
 9104      52455300 
 9105              	.LASF554:
 9106 130b 73707269 		.ascii	"sprintf\000"
 9106      6E746600 
 9107              	.LASF398:
 9108 1313 43595F42 		.ascii	"CY_BLE_EVT_GATTC_READ_RSP\000"
 9108      4C455F45 
 9108      56545F47 
 9108      41545443 
 9108      5F524541 
 9109              	.LASF181:
 9110 132d 736D6966 		.ascii	"smifDeviceNr\000"
 9110      44657669 
 9110      63654E72 
 9110      00
 9111              	.LASF353:
 9112 133a 43595F42 		.ascii	"CY_BLE_EVT_SET_SLAVE_LATENCY_MODE_COMPLETE\000"
 9112      4C455F45 
 9112      56545F53 
 9112      45545F53 
 9112      4C415645 
 9113              	.LASF43:
 9114 1365 5644445F 		.ascii	"VDD_INTR_MASKED\000"
 9114      494E5452 
 9114      5F4D4153 
 9114      4B454400 
 9115              	.LASF450:
 9116 1375 43595F42 		.ascii	"CY_BLE_CONN_STATE_CLIENT_SRVC_DISCOVERING\000"
 9116      4C455F43 
 9116      4F4E4E5F 
 9116      53544154 
 9116      455F434C 
 9117              	.LASF436:
 9118 139f 636F6E6E 		.ascii	"connHandle\000"
 9118      48616E64 
 9118      6C6500
 9119              	.LASF349:
ARM GAS  C:\Users\xhuli\AppData\Local\Temp\ccrNCJrA.s 			page 219


 9120 13aa 43595F42 		.ascii	"CY_BLE_EVT_RANDOM_NUM_GEN_COMPLETE\000"
 9120      4C455F45 
 9120      56545F52 
 9120      414E444F 
 9120      4D5F4E55 
 9121              	.LASF213:
 9122 13cd 70657269 		.ascii	"periDiv16CtlOffset\000"
 9122      44697631 
 9122      3643746C 
 9122      4F666673 
 9122      657400
 9123              	.LASF228:
 9124 13e0 63707573 		.ascii	"cpussSysTickCtlOffset\000"
 9124      73537973 
 9124      5469636B 
 9124      43746C4F 
 9124      66667365 
 9125              	.LASF561:
 9126 13f6 43795F42 		.ascii	"Cy_BLE_ProcessEvents\000"
 9126      4C455F50 
 9126      726F6365 
 9126      73734576 
 9126      656E7473 
 9127              	.LASF405:
 9128 140b 43595F42 		.ascii	"CY_BLE_EVT_GATTS_EXEC_WRITE_REQ\000"
 9128      4C455F45 
 9128      56545F47 
 9128      41545453 
 9128      5F455845 
 9129              	.LASF142:
 9130 142b 4D55585F 		.ascii	"MUX_SWITCH_STATUS\000"
 9130      53574954 
 9130      43485F53 
 9130      54415455 
 9130      5300
 9131              	.LASF283:
 9132 143d 736C6176 		.ascii	"slaveTxBufferSize\000"
 9132      65547842 
 9132      75666665 
 9132      7253697A 
 9132      6500
 9133              	.LASF209:
 9134 144f 70657269 		.ascii	"periDivCmdTypeSelPos\000"
 9134      44697643 
 9134      6D645479 
 9134      70655365 
 9134      6C506F73 
 9135              	.LASF151:
 9136 1464 63707573 		.ascii	"cpussBase\000"
 9136      73426173 
 9136      6500
 9137              	.LASF155:
 9138 146e 70726F74 		.ascii	"protBase\000"
 9138      42617365 
 9138      00
 9139              	.LASF167:
 9140 1477 69706356 		.ascii	"ipcVersion\000"
ARM GAS  C:\Users\xhuli\AppData\Local\Temp\ccrNCJrA.s 			page 220


 9140      65727369 
 9140      6F6E00
 9141              	.LASF313:
 9142 1482 43595F42 		.ascii	"CY_BLE_EVT_MEMORY_REQUEST\000"
 9142      4C455F45 
 9142      56545F4D 
 9142      454D4F52 
 9142      595F5245 
 9143              	.LASF10:
 9144 149c 5F5F7569 		.ascii	"__uint32_t\000"
 9144      6E743332 
 9144      5F7400
 9145              	.LASF79:
 9146 14a7 455A5F44 		.ascii	"EZ_DATA\000"
 9146      41544100 
 9147              	.LASF541:
 9148 14af 43795F53 		.ascii	"Cy_SAR_GetResult16\000"
 9148      41525F47 
 9148      65745265 
 9148      73756C74 
 9148      313600
 9149              	.LASF182:
 9150 14c2 70617373 		.ascii	"passSarChannels\000"
 9150      53617243 
 9150      68616E6E 
 9150      656C7300 
 9151              	.LASF12:
 9152 14d2 6C6F6E67 		.ascii	"long long int\000"
 9152      206C6F6E 
 9152      6720696E 
 9152      7400
 9153              	.LASF549:
 9154 14e0 43795F53 		.ascii	"Cy_SCB_I2C_MasterReadByte\000"
 9154      43425F49 
 9154      32435F4D 
 9154      61737465 
 9154      72526561 
 9155              	.LASF282:
 9156 14fa 736C6176 		.ascii	"slaveTxBuffer\000"
 9156      65547842 
 9156      75666665 
 9156      7200
 9157              	.LASF250:
 9158 1508 73616D70 		.ascii	"sampleTime23\000"
 9158      6C655469 
 9158      6D653233 
 9158      00
 9159              	.LASF308:
 9160 1515 63795F73 		.ascii	"cy_stc_scb_uart_context_t\000"
 9160      74635F73 
 9160      63625F75 
 9160      6172745F 
 9160      636F6E74 
 9161              	.LASF112:
 9162 152f 43795343 		.ascii	"CySCB_V1_Type\000"
 9162      425F5631 
 9162      5F547970 
ARM GAS  C:\Users\xhuli\AppData\Local\Temp\ccrNCJrA.s 			page 221


 9162      6500
 9163              	.LASF438:
 9164 153d 43595F42 		.ascii	"CY_BLE_STATE_STOPPED\000"
 9164      4C455F53 
 9164      54415445 
 9164      5F53544F 
 9164      50504544 
 9165              	.LASF420:
 9166 1552 43595F42 		.ascii	"CY_BLE_EVT_L2CAP_CBFC_DISCONN_CNF\000"
 9166      4C455F45 
 9166      56545F4C 
 9166      32434150 
 9166      5F434246 
 9167              	.LASF279:
 9168 1574 6D617374 		.ascii	"masterNumBytes\000"
 9168      65724E75 
 9168      6D427974 
 9168      657300
 9169              	.LASF557:
 9170 1583 43795F42 		.ascii	"Cy_BLE_GAPP_StartAdvertisement\000"
 9170      4C455F47 
 9170      4150505F 
 9170      53746172 
 9170      74416476 
 9171              	.LASF237:
 9172 15a2 63795F73 		.ascii	"cy_stc_device_t\000"
 9172      74635F64 
 9172      65766963 
 9172      655F7400 
 9173              	.LASF249:
 9174 15b2 73616D70 		.ascii	"sampleTime01\000"
 9174      6C655469 
 9174      6D653031 
 9174      00
 9175              	.LASF96:
 9176 15bf 494E5452 		.ascii	"INTR_M_MASKED\000"
 9176      5F4D5F4D 
 9176      41534B45 
 9176      4400
 9177              	.LASF338:
 9178 15cd 43595F42 		.ascii	"CY_BLE_EVT_PHY_UPDATE_COMPLETE\000"
 9178      4C455F45 
 9178      56545F50 
 9178      48595F55 
 9178      50444154 
 9179              	.LASF105:
 9180 15ec 494E5452 		.ascii	"INTR_TX_MASK\000"
 9180      5F54585F 
 9180      4D41534B 
 9180      00
 9181              	.LASF240:
 9182 15f9 646F7562 		.ascii	"double\000"
 9182      6C6500
 9183              	.LASF219:
 9184 1600 6770696F 		.ascii	"gpioPrtCfgOutOffset\000"
 9184      50727443 
 9184      66674F75 
ARM GAS  C:\Users\xhuli\AppData\Local\Temp\ccrNCJrA.s 			page 222


 9184      744F6666 
 9184      73657400 
 9185              	.LASF162:
 9186 1614 63727970 		.ascii	"cryptoVersion\000"
 9186      746F5665 
 9186      7273696F 
 9186      6E00
 9187              	.LASF421:
 9188 1622 43595F42 		.ascii	"CY_BLE_EVT_L2CAP_CBFC_DATA_READ\000"
 9188      4C455F45 
 9188      56545F4C 
 9188      32434150 
 9188      5F434246 
 9189              	.LASF437:
 9190 1642 63795F73 		.ascii	"cy_stc_ble_gatt_write_param_t\000"
 9190      74635F62 
 9190      6C655F67 
 9190      6174745F 
 9190      77726974 
 9191              	.LASF190:
 9192 1660 666C6173 		.ascii	"flashWriteDelay\000"
 9192      68577269 
 9192      74654465 
 9192      6C617900 
 9193              	.LASF188:
 9194 1670 666C6173 		.ascii	"flashRwwRequired\000"
 9194      68527777 
 9194      52657175 
 9194      69726564 
 9194      00
 9195              	.LASF196:
 9196 1681 666C6173 		.ascii	"flashCtlMainWs3Freq\000"
 9196      6843746C 
 9196      4D61696E 
 9196      57733346 
 9196      72657100 
 9197              	.LASF529:
 9198 1695 73657276 		.ascii	"serviceData\000"
 9198      69636544 
 9198      61746100 
 9199              	.LASF303:
 9200 16a1 72784275 		.ascii	"rxBufIdx\000"
 9200      66496478 
 9200      00
 9201              	.LASF214:
 9202 16aa 70657269 		.ascii	"periDiv16_5CtlOffset\000"
 9202      44697631 
 9202      365F3543 
 9202      746C4F66 
 9202      66736574 
 9203              	.LASF570:
 9204 16bf 5F5F6275 		.ascii	"__builtin_puts\000"
 9204      696C7469 
 9204      6E5F7075 
 9204      747300
 9205              	.LASF502:
 9206 16ce 756C4269 		.ascii	"ulBitOrder\000"
ARM GAS  C:\Users\xhuli\AppData\Local\Temp\ccrNCJrA.s 			page 223


 9206      744F7264 
 9206      657200
 9207              	.LASF518:
 9208 16d9 49544D5F 		.ascii	"ITM_RxBuffer\000"
 9208      52784275 
 9208      66666572 
 9208      00
 9209              	.LASF324:
 9210 16e6 43595F42 		.ascii	"CY_BLE_EVT_GET_DATA_LENGTH_COMPLETE\000"
 9210      4C455F45 
 9210      56545F47 
 9210      45545F44 
 9210      4154415F 
 9211              	.LASF0:
 9212 170a 666C6F61 		.ascii	"float\000"
 9212      7400
 9213              	.LASF386:
 9214 1710 43595F42 		.ascii	"CY_BLE_EVT_GAP_CONN_ESTB\000"
 9214      4C455F45 
 9214      56545F47 
 9214      41505F43 
 9214      4F4E4E5F 
 9215              	.LASF363:
 9216 1729 43595F42 		.ascii	"CY_BLE_EVT_GAP_AUTH_REQ\000"
 9216      4C455F45 
 9216      56545F47 
 9216      41505F41 
 9216      5554485F 
 9217              	.LASF51:
 9218 1741 5350495F 		.ascii	"SPI_STATUS\000"
 9218      53544154 
 9218      555300
 9219              	.LASF510:
 9220 174c 6576656E 		.ascii	"event\000"
 9220      7400
 9221              	.LASF170:
 9222 1752 63707573 		.ascii	"cpussIpcNr\000"
 9222      73497063 
 9222      4E7200
 9223              	.LASF483:
 9224 175d 74687265 		.ascii	"threshold\000"
 9224      73686F6C 
 9224      6400
 9225              	.LASF433:
 9226 1767 61747472 		.ascii	"attrHandle\000"
 9226      48616E64 
 9226      6C6500
 9227              	.LASF14:
 9228 1772 756E7369 		.ascii	"unsigned int\000"
 9228      676E6564 
 9228      20696E74 
 9228      00
 9229              	.LASF46:
 9230 177f 4354524C 		.ascii	"CTRL\000"
 9230      00
 9231              	.LASF448:
 9232 1784 43595F42 		.ascii	"CY_BLE_CONN_STATE_CLIENT_DISCONNECTED_DISCOVERED\000"
ARM GAS  C:\Users\xhuli\AppData\Local\Temp\ccrNCJrA.s 			page 224


 9232      4C455F43 
 9232      4F4E4E5F 
 9232      53544154 
 9232      455F434C 
 9233              	.LASF553:
 9234 17b5 43795F53 		.ascii	"Cy_SCB_I2C_MasterSendStop\000"
 9234      43425F49 
 9234      32435F4D 
 9234      61737465 
 9234      7253656E 
 9235              	.LASF564:
 9236 17cf 474E5520 		.ascii	"GNU C11 5.4.1 20160609 (release) [ARM/embedded-5-br"
 9236      43313120 
 9236      352E342E 
 9236      31203230 
 9236      31363036 
 9237 1802 616E6368 		.ascii	"anch revision 237715] -mcpu=cortex-m4 -mfloat-abi=s"
 9237      20726576 
 9237      6973696F 
 9237      6E203233 
 9237      37373135 
 9238 1835 6F667466 		.ascii	"oftfp -mfpu=fpv4-sp-d16 -mthumb -g -Og -ffunction-s"
 9238      70202D6D 
 9238      6670753D 
 9238      66707634 
 9238      2D73702D 
 9239 1868 65637469 		.ascii	"ections -ffat-lto-objects\000"
 9239      6F6E7320 
 9239      2D666661 
 9239      742D6C74 
 9239      6F2D6F62 
 9240              	.LASF268:
 9241 1882 63795F63 		.ascii	"cy_cb_scb_i2c_handle_events_t\000"
 9241      625F7363 
 9241      625F6932 
 9241      635F6861 
 9241      6E646C65 
 9242              	.LASF447:
 9243 18a0 43595F42 		.ascii	"CY_BLE_CONN_STATE_DISCONNECTED\000"
 9243      4C455F43 
 9243      4F4E4E5F 
 9243      53544154 
 9243      455F4449 
 9244              	.LASF164:
 9245 18bf 666C6173 		.ascii	"flashcVersion\000"
 9245      68635665 
 9245      7273696F 
 9245      6E00
 9246              	.LASF539:
 9247 18cd 78517565 		.ascii	"xQueueGiveFromISR\000"
 9247      75654769 
 9247      76654672 
 9247      6F6D4953 
 9247      5200
 9248              	.LASF376:
 9249 18df 43595F42 		.ascii	"CY_BLE_EVT_GAP_KEYPRESS_NOTIFICATION\000"
 9249      4C455F45 
ARM GAS  C:\Users\xhuli\AppData\Local\Temp\ccrNCJrA.s 			page 225


 9249      56545F47 
 9249      41505F4B 
 9249      45595052 
 9250              	.LASF508:
 9251 1904 4C65644E 		.ascii	"LedNo\000"
 9251      6F00
 9252              	.LASF216:
 9253 190a 6770696F 		.ascii	"gpioPrtIntrCfgOffset\000"
 9253      50727449 
 9253      6E747243 
 9253      66674F66 
 9253      66736574 
 9254              	.LASF233:
 9255 191f 63707573 		.ascii	"cpussRam1Ctl0\000"
 9255      7352616D 
 9255      3143746C 
 9255      3000
 9256              	.LASF325:
 9257 192d 43595F42 		.ascii	"CY_BLE_EVT_DATA_LENGTH_CHANGE\000"
 9257      4C455F45 
 9257      56545F44 
 9257      4154415F 
 9257      4C454E47 
 9258              	.LASF474:
 9259 194b 626C6549 		.ascii	"bleInterruptNotify\000"
 9259      6E746572 
 9259      72757074 
 9259      4E6F7469 
 9259      667900
 9260              	.LASF451:
 9261 195e 43595F42 		.ascii	"CY_BLE_CONN_STATE_CLIENT_INCL_DISCOVERING\000"
 9261      4C455F43 
 9261      4F4E4E5F 
 9261      53544154 
 9261      455F434C 
 9262              	.LASF390:
 9263 1988 43595F42 		.ascii	"CY_BLE_EVT_GATT_CONNECT_IND\000"
 9263      4C455F45 
 9263      56545F47 
 9263      4154545F 
 9263      434F4E4E 
 9264              	.LASF64:
 9265 19a4 54585F43 		.ascii	"TX_CTRL\000"
 9265      54524C00 
 9266              	.LASF85:
 9267 19ac 494E5452 		.ascii	"INTR_I2C_EC_MASK\000"
 9267      5F493243 
 9267      5F45435F 
 9267      4D41534B 
 9267      00
 9268              	.LASF127:
 9269 19bd 53415455 		.ascii	"SATURATE_INTR\000"
 9269      52415445 
 9269      5F494E54 
 9269      5200
 9270              	.LASF442:
 9271 19cb 43595F42 		.ascii	"CY_BLE_ADV_STATE_STOPPED\000"
ARM GAS  C:\Users\xhuli\AppData\Local\Temp\ccrNCJrA.s 			page 226


 9271      4C455F41 
 9271      44565F53 
 9271      54415445 
 9271      5F53544F 
 9272              	.LASF481:
 9273 19e4 7374616E 		.ascii	"standardDeviation\000"
 9273      64617264 
 9273      44657669 
 9273      6174696F 
 9273      6E00
 9274              	.LASF547:
 9275 19f6 4144435F 		.ascii	"ADC_StartConvert\000"
 9275      53746172 
 9275      74436F6E 
 9275      76657274 
 9275      00
 9276              	.LASF520:
 9277 1a07 63795F62 		.ascii	"cy_ble_state\000"
 9277      6C655F73 
 9277      74617465 
 9277      00
 9278              	.LASF446:
 9279 1a14 63795F65 		.ascii	"cy_en_ble_adv_state_t\000"
 9279      6E5F626C 
 9279      655F6164 
 9279      765F7374 
 9279      6174655F 
 9280              	.LASF242:
 9281 1a2a 43595F53 		.ascii	"CY_SAR_RANGE_COND_BELOW\000"
 9281      41525F52 
 9281      414E4745 
 9281      5F434F4E 
 9281      445F4245 
 9282              	.LASF361:
 9283 1a42 43595F42 		.ascii	"CY_BLE_EVT_HCI_PKT_RCVD\000"
 9283      4C455F45 
 9283      56545F48 
 9283      43495F50 
 9283      4B545F52 
 9284              	.LASF244:
 9285 1a5a 43595F53 		.ascii	"CY_SAR_RANGE_COND_ABOVE\000"
 9285      41525F52 
 9285      414E4745 
 9285      5F434F4E 
 9285      445F4142 
 9286              	.LASF123:
 9287 1a72 4348414E 		.ascii	"CHAN_WORK_UPDATED\000"
 9287      5F574F52 
 9287      4B5F5550 
 9287      44415445 
 9287      4400
 9288              	.LASF56:
 9289 1a84 55415254 		.ascii	"UART_FLOW_CTRL\000"
 9289      5F464C4F 
 9289      575F4354 
 9289      524C00
 9290              	.LASF287:
ARM GAS  C:\Users\xhuli\AppData\Local\Temp\ccrNCJrA.s 			page 227


 9291 1a93 736C6176 		.ascii	"slaveRxBufferSize\000"
 9291      65527842 
 9291      75666665 
 9291      7253697A 
 9291      6500
 9292              	.LASF3:
 9293 1aa5 756E7369 		.ascii	"unsigned char\000"
 9293      676E6564 
 9293      20636861 
 9293      7200
 9294              	.LASF309:
 9295 1ab3 43595F42 		.ascii	"CY_BLE_EVT_INVALID\000"
 9295      4C455F45 
 9295      56545F49 
 9295      4E56414C 
 9295      494400
 9296              	.LASF482:
 9297 1ac6 64657465 		.ascii	"detectPeaks\000"
 9297      63745065 
 9297      616B7300 
 9298              	.LASF491:
 9299 1ad2 73746446 		.ascii	"stdFilter\000"
 9299      696C7465 
 9299      7200
 9300              	.LASF403:
 9301 1adc 43595F42 		.ascii	"CY_BLE_EVT_GATTS_WRITE_CMD_REQ\000"
 9301      4C455F45 
 9301      56545F47 
 9301      41545453 
 9301      5F575249 
 9302              	.LASF251:
 9303 1afb 72616E67 		.ascii	"rangeThres\000"
 9303      65546872 
 9303      657300
 9304              	.LASF113:
 9305 1b06 53414D50 		.ascii	"SAMPLE_CTRL\000"
 9305      4C455F43 
 9305      54524C00 
 9306              	.LASF203:
 9307 1b12 64775374 		.ascii	"dwStatusChIdxMsk\000"
 9307      61747573 
 9307      43684964 
 9307      784D736B 
 9307      00
 9308              	.LASF456:
 9309 1b23 63795F73 		.ascii	"cy_stc_ble_gatts_write_cmd_req_param_t\000"
 9309      74635F62 
 9309      6C655F67 
 9309      61747473 
 9309      5F777269 
 9310              	.LASF359:
 9311 1b4a 43595F42 		.ascii	"CY_BLE_EVT_SET_CE_LENGTH_COMPLETE\000"
 9311      4C455F45 
 9311      56545F53 
 9311      45545F43 
 9311      455F4C45 
 9312              	.LASF298:
ARM GAS  C:\Users\xhuli\AppData\Local\Temp\ccrNCJrA.s 			page 228


 9313 1b6c 72785269 		.ascii	"rxRingBufSize\000"
 9313      6E674275 
 9313      6653697A 
 9313      6500
 9314              	.LASF148:
 9315 1b7a 43795343 		.ascii	"CySCB_Type\000"
 9315      425F5479 
 9315      706500
 9316              	.LASF192:
 9317 1b85 666C6173 		.ascii	"flashEraseDelay\000"
 9317      68457261 
 9317      73654465 
 9317      6C617900 
 9318              	.LASF41:
 9319 1b95 5644445F 		.ascii	"VDD_INTR\000"
 9319      494E5452 
 9319      00
 9320              	.LASF90:
 9321 1b9e 494E5452 		.ascii	"INTR_SPI_EC_MASK\000"
 9321      5F535049 
 9321      5F45435F 
 9321      4D41534B 
 9321      00
 9322              	.LASF366:
 9323 1baf 43595F42 		.ascii	"CY_BLE_EVT_GAP_AUTH_COMPLETE\000"
 9323      4C455F45 
 9323      56545F47 
 9323      41505F41 
 9323      5554485F 
 9324              	.LASF149:
 9325 1bcc 5341525F 		.ascii	"SAR_Type\000"
 9325      54797065 
 9325      00
 9326              	.LASF150:
 9327 1bd5 6C6F6E67 		.ascii	"long double\000"
 9327      20646F75 
 9327      626C6500 
 9328              	.LASF27:
 9329 1be1 494E5452 		.ascii	"INTR_SET\000"
 9329      5F534554 
 9329      00
 9330              	.LASF101:
 9331 1bea 494E5452 		.ascii	"INTR_S_MASKED\000"
 9331      5F535F4D 
 9331      41534B45 
 9331      4400
 9332              	.LASF137:
 9333 1bf8 4156475F 		.ascii	"AVG_STAT\000"
 9333      53544154 
 9333      00
 9334              	.LASF292:
 9335 1c01 63795F63 		.ascii	"cy_cb_scb_uart_handle_events_t\000"
 9335      625F7363 
 9335      625F7561 
 9335      72745F68 
 9335      616E646C 
 9336              	.LASF322:
ARM GAS  C:\Users\xhuli\AppData\Local\Temp\ccrNCJrA.s 			page 229


 9337 1c20 43595F42 		.ascii	"CY_BLE_EVT_SET_DATA_LENGTH_COMPLETE\000"
 9337      4C455F45 
 9337      56545F53 
 9337      45545F44 
 9337      4154415F 
 9338              	.LASF460:
 9339 1c44 6D697363 		.ascii	"miscConfig\000"
 9339      436F6E66 
 9339      696700
 9340              	.LASF66:
 9341 1c4f 54585F46 		.ascii	"TX_FIFO_STATUS\000"
 9341      49464F5F 
 9341      53544154 
 9341      555300
 9342              	.LASF88:
 9343 1c5e 494E5452 		.ascii	"INTR_SPI_EC\000"
 9343      5F535049 
 9343      5F454300 
 9344              	.LASF26:
 9345 1c6a 494E5452 		.ascii	"INTR_MASKED\000"
 9345      5F4D4153 
 9345      4B454400 
 9346              	.LASF147:
 9347 1c76 4750494F 		.ascii	"GPIO_Type\000"
 9347      5F547970 
 9347      6500
 9348              	.LASF230:
 9349 1c80 63707573 		.ascii	"cpussCm4NmiCtlOffset\000"
 9349      73436D34 
 9349      4E6D6943 
 9349      746C4F66 
 9349      66736574 
 9350              	.LASF542:
 9351 1c95 76546173 		.ascii	"vTaskDelay\000"
 9351      6B44656C 
 9351      617900
 9352              	.LASF552:
 9353 1ca0 43795F53 		.ascii	"Cy_SCB_I2C_MasterSendReStart\000"
 9353      43425F49 
 9353      32435F4D 
 9353      61737465 
 9353      7253656E 
 9354              	.LASF229:
 9355 1cbd 63707573 		.ascii	"cpussCm0NmiCtlOffset\000"
 9355      73436D30 
 9355      4E6D6943 
 9355      746C4F66 
 9355      66736574 
 9356              	.LASF329:
 9357 1cd2 43595F42 		.ascii	"CY_BLE_EVT_SET_RPA_ENABLE_COMPLETE\000"
 9357      4C455F45 
 9357      56545F53 
 9357      45545F52 
 9357      50415F45 
 9358              	.LASF195:
 9359 1cf5 666C6173 		.ascii	"flashCtlMainWs2Freq\000"
 9359      6843746C 
ARM GAS  C:\Users\xhuli\AppData\Local\Temp\ccrNCJrA.s 			page 230


 9359      4D61696E 
 9359      57733246 
 9359      72657100 
 9360              	.LASF372:
 9361 1d09 43595F42 		.ascii	"CY_BLE_EVT_GAP_CONNECTION_UPDATE_COMPLETE\000"
 9361      4C455F45 
 9361      56545F47 
 9361      41505F43 
 9361      4F4E4E45 
 9362              	.LASF271:
 9363 1d33 75736554 		.ascii	"useTxFifo\000"
 9363      78466966 
 9363      6F00
 9364              	.LASF260:
 9365 1d3d 636F6E66 		.ascii	"configRouting\000"
 9365      6967526F 
 9365      7574696E 
 9365      6700
 9366              	.LASF238:
 9367 1d4b 63686172 		.ascii	"char_t\000"
 9367      5F7400
 9368              	.LASF365:
 9369 1d52 43595F42 		.ascii	"CY_BLE_EVT_GAP_PASSKEY_DISPLAY_REQUEST\000"
 9369      4C455F45 
 9369      56545F47 
 9369      41505F50 
 9369      4153534B 
 9370              	.LASF13:
 9371 1d79 6C6F6E67 		.ascii	"long long unsigned int\000"
 9371      206C6F6E 
 9371      6720756E 
 9371      7369676E 
 9371      65642069 
 9372              	.LASF532:
 9373 1d90 626C6553 		.ascii	"bleSemaphore\000"
 9373      656D6170 
 9373      686F7265 
 9373      00
 9374              	.LASF536:
 9375 1d9d 706F7373 		.ascii	"possible_beat\000"
 9375      69626C65 
 9375      5F626561 
 9375      7400
 9376              	.LASF321:
 9377 1dab 43595F42 		.ascii	"CY_BLE_EVT_LE_PING_AUTH_TIMEOUT\000"
 9377      4C455F45 
 9377      56545F4C 
 9377      455F5049 
 9377      4E475F41 
 9378              	.LASF531:
 9379 1dcb 73656E73 		.ascii	"sensorAddress\000"
 9379      6F724164 
 9379      64726573 
 9379      7300
 9380              	.LASF17:
 9381 1dd9 75696E74 		.ascii	"uint16_t\000"
 9381      31365F74 
ARM GAS  C:\Users\xhuli\AppData\Local\Temp\ccrNCJrA.s 			page 231


 9381      00
 9382              	.LASF351:
 9383 1de2 43595F42 		.ascii	"CY_BLE_EVT_AES_CCM_ENCRYPT_COMPLETE\000"
 9383      4C455F45 
 9383      56545F41 
 9383      45535F43 
 9383      434D5F45 
 9384              	.LASF65:
 9385 1e06 54585F46 		.ascii	"TX_FIFO_CTRL\000"
 9385      49464F5F 
 9385      4354524C 
 9385      00
 9386              	.LASF383:
 9387 1e13 43595F42 		.ascii	"CY_BLE_EVT_GAP_RESOLVE_DEVICE_COMPLETE\000"
 9387      4C455F45 
 9387      56545F47 
 9387      41505F52 
 9387      45534F4C 
 9388              	.LASF393:
 9389 1e3a 43595F42 		.ascii	"CY_BLE_EVT_GATTC_XCHNG_MTU_RSP\000"
 9389      4C455F45 
 9389      56545F47 
 9389      41545443 
 9389      5F584348 
 9390              	.LASF82:
 9391 1e59 52455345 		.ascii	"RESERVED10\000"
 9391      52564544 
 9391      313000
 9392              	.LASF84:
 9393 1e64 52455345 		.ascii	"RESERVED11\000"
 9393      52564544 
 9393      313100
 9394              	.LASF87:
 9395 1e6f 52455345 		.ascii	"RESERVED12\000"
 9395      52564544 
 9395      313200
 9396              	.LASF89:
 9397 1e7a 52455345 		.ascii	"RESERVED13\000"
 9397      52564544 
 9397      313300
 9398              	.LASF92:
 9399 1e85 52455345 		.ascii	"RESERVED14\000"
 9399      52564544 
 9399      313400
 9400              	.LASF97:
 9401 1e90 52455345 		.ascii	"RESERVED15\000"
 9401      52564544 
 9401      313500
 9402              	.LASF326:
 9403 1e9b 43595F42 		.ascii	"CY_BLE_EVT_GET_PEER_RPA_COMPLETE\000"
 9403      4C455F45 
 9403      56545F47 
 9403      45545F50 
 9403      4545525F 
 9404              	.LASF107:
 9405 1ebc 52455345 		.ascii	"RESERVED17\000"
 9405      52564544 
ARM GAS  C:\Users\xhuli\AppData\Local\Temp\ccrNCJrA.s 			page 232


 9405      313700
 9406              	.LASF478:
 9407 1ec7 6D65616E 		.ascii	"mean\000"
 9407      00
 9408              	.LASF543:
 9409 1ecc 73717274 		.ascii	"sqrt\000"
 9409      00
 9410              	.LASF248:
 9411 1ed1 73616D70 		.ascii	"sampleCtrl\000"
 9411      6C654374 
 9411      726C00
 9412              	.LASF455:
 9413 1edc 63795F65 		.ascii	"cy_en_ble_conn_state_t\000"
 9413      6E5F626C 
 9413      655F636F 
 9413      6E6E5F73 
 9413      74617465 
 9414              	.LASF304:
 9415 1ef3 74784275 		.ascii	"txBuf\000"
 9415      6600
 9416              	.LASF208:
 9417 1ef9 70657269 		.ascii	"periDivCmdDivSelMsk\000"
 9417      44697643 
 9417      6D644469 
 9417      7653656C 
 9417      4D736B00 
 9418              	.LASF522:
 9419 1f0d 63795F62 		.ascii	"cy_ble_connHandle\000"
 9419      6C655F63 
 9419      6F6E6E48 
 9419      616E646C 
 9419      6500
 9420              	.LASF49:
 9421 1f1f 434D445F 		.ascii	"CMD_RESP_STATUS\000"
 9421      52455350 
 9421      5F535441 
 9421      54555300 
 9422              	.LASF445:
 9423 1f2f 43595F42 		.ascii	"CY_BLE_ADV_STATE_STOP_INITIATED\000"
 9423      4C455F41 
 9423      44565F53 
 9423      54415445 
 9423      5F53544F 
 9424              	.LASF565:
 9425 1f4f 424C455F 		.ascii	"BLE_Task.c\000"
 9425      5461736B 
 9425      2E6300
 9426              	.LASF526:
 9427 1f5a 4144435F 		.ascii	"ADC_allConfigs\000"
 9427      616C6C43 
 9427      6F6E6669 
 9427      677300
 9428              	.LASF464:
 9429 1f69 5469636B 		.ascii	"TickType_t\000"
 9429      54797065 
 9429      5F7400
 9430              	.LASF424:
ARM GAS  C:\Users\xhuli\AppData\Local\Temp\ccrNCJrA.s 			page 233


 9431 1f74 43595F42 		.ascii	"CY_BLE_EVT_L2CAP_CBFC_DATA_WRITE_IND\000"
 9431      4C455F45 
 9431      56545F4C 
 9431      32434150 
 9431      5F434246 
 9432              	.LASF222:
 9433 1f99 63707573 		.ascii	"cpussCm4ClockCtlOffset\000"
 9433      73436D34 
 9433      436C6F63 
 9433      6B43746C 
 9433      4F666673 
 9434              	.LASF18:
 9435 1fb0 696E7433 		.ascii	"int32_t\000"
 9435      325F7400 
 9436              	.LASF44:
 9437 1fb8 5644445F 		.ascii	"VDD_INTR_SET\000"
 9437      494E5452 
 9437      5F534554 
 9437      00
 9438              	.LASF172:
 9439 1fc5 63707573 		.ascii	"cpussDwChNr\000"
 9439      73447743 
 9439      684E7200 
 9440              	.LASF215:
 9441 1fd1 70657269 		.ascii	"periDiv24_5CtlOffset\000"
 9441      44697632 
 9441      345F3543 
 9441      746C4F66 
 9441      66736574 
 9442              	.LASF104:
 9443 1fe6 494E5452 		.ascii	"INTR_TX_SET\000"
 9443      5F54585F 
 9443      53455400 
 9444              	.LASF232:
 9445 1ff2 63707573 		.ascii	"cpussRam0Ctl0\000"
 9445      7352616D 
 9445      3043746C 
 9445      3000
 9446              	.LASF563:
 9447 2000 78517565 		.ascii	"xQueueSemaphoreTake\000"
 9447      75655365 
 9447      6D617068 
 9447      6F726554 
 9447      616B6500 
 9448              	.LASF129:
 9449 2014 53415455 		.ascii	"SATURATE_INTR_MASK\000"
 9449      52415445 
 9449      5F494E54 
 9449      525F4D41 
 9449      534B00
 9450              	.LASF525:
 9451 2027 4144435F 		.ascii	"ADC_currentConfig\000"
 9451      63757272 
 9451      656E7443 
 9451      6F6E6669 
 9451      6700
 9452              	.LASF5:
ARM GAS  C:\Users\xhuli\AppData\Local\Temp\ccrNCJrA.s 			page 234


 9453 2039 5F5F696E 		.ascii	"__int16_t\000"
 9453      7431365F 
 9453      7400
 9454              	.LASF530:
 9455 2043 74656D70 		.ascii	"temperature\000"
 9455      65726174 
 9455      75726500 
 9456              	.LASF380:
 9457 204f 43595F42 		.ascii	"CY_BLE_EVT_GAP_SMP_NEGOTIATED_AUTH_INFO\000"
 9457      4C455F45 
 9457      56545F47 
 9457      41505F53 
 9457      4D505F4E 
 9458              	.LASF500:
 9459 2077 67657454 		.ascii	"getTemperature\000"
 9459      656D7065 
 9459      72617475 
 9459      726500
 9460              	.LASF48:
 9461 2086 434D445F 		.ascii	"CMD_RESP_CTRL\000"
 9461      52455350 
 9461      5F435452 
 9461      4C00
 9462              	.LASF47:
 9463 2094 53544154 		.ascii	"STATUS\000"
 9463      555300
 9464              	.LASF484:
 9465 209b 706F7373 		.ascii	"possible_peak\000"
 9465      69626C65 
 9465      5F706561 
 9465      6B00
 9466              	.LASF415:
 9467 20a9 43595F42 		.ascii	"CY_BLE_EVT_L2CAP_CONN_PARAM_UPDATE_RSP\000"
 9467      4C455F45 
 9467      56545F4C 
 9467      32434150 
 9467      5F434F4E 
 9468              	.LASF86:
 9469 20d0 494E5452 		.ascii	"INTR_I2C_EC_MASKED\000"
 9469      5F493243 
 9469      5F45435F 
 9469      4D41534B 
 9469      454400
 9470              	.LASF163:
 9471 20e3 64775665 		.ascii	"dwVersion\000"
 9471      7273696F 
 9471      6E00
 9472              	.LASF516:
 9473 20ed 4932435F 		.ascii	"I2C_bytes\000"
 9473      62797465 
 9473      7300
 9474              	.LASF31:
 9475 20f7 4346475F 		.ascii	"CFG_SIO\000"
 9475      53494F00 
 9476              	.LASF399:
 9477 20ff 43595F42 		.ascii	"CY_BLE_EVT_GATTC_READ_BLOB_RSP\000"
 9477      4C455F45 
ARM GAS  C:\Users\xhuli\AppData\Local\Temp\ccrNCJrA.s 			page 235


 9477      56545F47 
 9477      41545443 
 9477      5F524541 
 9478              	.LASF157:
 9479 211e 6770696F 		.ascii	"gpioBase\000"
 9479      42617365 
 9479      00
 9480              	.LASF434:
 9481 2127 63795F73 		.ascii	"cy_stc_ble_gatt_handle_value_pair_t\000"
 9481      74635F62 
 9481      6C655F67 
 9481      6174745F 
 9481      68616E64 
 9482              	.LASF100:
 9483 214b 494E5452 		.ascii	"INTR_S_MASK\000"
 9483      5F535F4D 
 9483      41534B00 
 9484              	.LASF120:
 9485 2157 4348414E 		.ascii	"CHAN_CONFIG\000"
 9485      5F434F4E 
 9485      46494700 
 9486              	.LASF185:
 9487 2163 73797350 		.ascii	"sysPmSimoPresent\000"
 9487      6D53696D 
 9487      6F507265 
 9487      73656E74 
 9487      00
 9488              	.LASF412:
 9489 2174 43595F42 		.ascii	"CY_BLE_EVT_GATTS_READ_CHAR_VAL_ACCESS_REQ\000"
 9489      4C455F45 
 9489      56545F47 
 9489      41545453 
 9489      5F524541 
 9490              	.LASF94:
 9491 219e 494E5452 		.ascii	"INTR_M_SET\000"
 9491      5F4D5F53 
 9491      455400
 9492              	.LASF497:
 9493 21a9 74656D70 		.ascii	"tempChar\000"
 9493      43686172 
 9493      00
 9494              	.LASF91:
 9495 21b2 494E5452 		.ascii	"INTR_SPI_EC_MASKED\000"
 9495      5F535049 
 9495      5F45435F 
 9495      4D41534B 
 9495      454400
 9496              	.LASF171:
 9497 21c5 63707573 		.ascii	"cpussIpcIrqNr\000"
 9497      73497063 
 9497      4972714E 
 9497      7200
 9498              	.LASF111:
 9499 21d3 494E5452 		.ascii	"INTR_RX_MASKED\000"
 9499      5F52585F 
 9499      4D41534B 
 9499      454400
ARM GAS  C:\Users\xhuli\AppData\Local\Temp\ccrNCJrA.s 			page 236


 9500              	.LASF519:
 9501 21e2 63795F64 		.ascii	"cy_device\000"
 9501      65766963 
 9501      6500
 9502              	.LASF255:
 9503 21ec 696E7472 		.ascii	"intrMask\000"
 9503      4D61736B 
 9503      00
 9504              	.LASF146:
 9505 21f5 4750494F 		.ascii	"GPIO_PRT_Type\000"
 9505      5F505254 
 9505      5F547970 
 9505      6500
 9506              	.LASF428:
 9507 2203 63795F73 		.ascii	"cy_stc_ble_conn_handle_t\000"
 9507      74635F62 
 9507      6C655F63 
 9507      6F6E6E5F 
 9507      68616E64 
 9508              	.LASF368:
 9509 221c 43595F42 		.ascii	"CY_BLE_EVT_GAPP_ADVERTISEMENT_START_STOP\000"
 9509      4C455F45 
 9509      56545F47 
 9509      4150505F 
 9509      41445645 
 9510              	.LASF296:
 9511 2245 72785374 		.ascii	"rxStatus\000"
 9511      61747573 
 9511      00
 9512              	.LASF276:
 9513 224e 6D617374 		.ascii	"masterBuffer\000"
 9513      65724275 
 9513      66666572 
 9513      00
 9514              	.LASF290:
 9515 225b 63624164 		.ascii	"cbAddr\000"
 9515      647200
 9516              	.LASF258:
 9517 2262 6D757853 		.ascii	"muxSwitch\000"
 9517      77697463 
 9517      6800
 9518              	.LASF449:
 9519 226c 43595F42 		.ascii	"CY_BLE_CONN_STATE_CONNECTED\000"
 9519      4C455F43 
 9519      4F4E4E5F 
 9519      53544154 
 9519      455F434F 
 9520              	.LASF76:
 9521 2288 52585F46 		.ascii	"RX_FIFO_RD\000"
 9521      49464F5F 
 9521      524400
 9522              	.LASF243:
 9523 2293 43595F53 		.ascii	"CY_SAR_RANGE_COND_INSIDE\000"
 9523      41525F52 
 9523      414E4745 
 9523      5F434F4E 
 9523      445F494E 
ARM GAS  C:\Users\xhuli\AppData\Local\Temp\ccrNCJrA.s 			page 237


 9524              	.LASF318:
 9525 22ac 43595F42 		.ascii	"CY_BLE_EVT_READ_AUTH_PAYLOAD_TO_COMPLETE\000"
 9525      4C455F45 
 9525      56545F52 
 9525      4541445F 
 9525      41555448 
 9526              	.LASF169:
 9527 22d5 70726F74 		.ascii	"protVersion\000"
 9527      56657273 
 9527      696F6E00 
 9528              	.LASF319:
 9529 22e1 43595F42 		.ascii	"CY_BLE_EVT_GET_CHANNEL_MAP_COMPLETE\000"
 9529      4C455F45 
 9529      56545F47 
 9529      45545F43 
 9529      48414E4E 
 9530              	.LASF307:
 9531 2305 696E6974 		.ascii	"initKey\000"
 9531      4B657900 
 9532              	.LASF168:
 9533 230d 70657269 		.ascii	"periVersion\000"
 9533      56657273 
 9533      696F6E00 
 9534              	.LASF545:
 9535 2319 4144435F 		.ascii	"ADC_Start\000"
 9535      53746172 
 9535      7400
 9536              	.LASF1:
 9537 2323 73686F72 		.ascii	"short int\000"
 9537      7420696E 
 9537      7400
 9538              	.LASF354:
 9539 232d 43595F42 		.ascii	"CY_BLE_EVT_STACK_SHUTDOWN_COMPLETE\000"
 9539      4C455F45 
 9539      56545F53 
 9539      5441434B 
 9539      5F534855 
 9540              	.LASF435:
 9541 2350 68616E64 		.ascii	"handleValPair\000"
 9541      6C655661 
 9541      6C506169 
 9541      7200
 9542              	.LASF345:
 9543 235e 43595F42 		.ascii	"CY_BLE_EVT_GET_TX_PWR_COMPLETE\000"
 9543      4C455F45 
 9543      56545F47 
 9543      45545F54 
 9543      585F5057 
 9544              	.LASF83:
 9545 237d 494E5452 		.ascii	"INTR_I2C_EC\000"
 9545      5F493243 
 9545      5F454300 
 9546              	.LASF485:
 9547 2389 706F7373 		.ascii	"possible_valley\000"
 9547      69626C65 
 9547      5F76616C 
 9547      6C657900 
ARM GAS  C:\Users\xhuli\AppData\Local\Temp\ccrNCJrA.s 			page 238


 9548              	.LASF16:
 9549 2399 696E7431 		.ascii	"int16_t\000"
 9549      365F7400 
 9550              	.LASF122:
 9551 23a1 4348414E 		.ascii	"CHAN_RESULT\000"
 9551      5F524553 
 9551      554C5400 
 9552              	.LASF194:
 9553 23ad 666C6173 		.ascii	"flashCtlMainWs1Freq\000"
 9553      6843746C 
 9553      4D61696E 
 9553      57733146 
 9553      72657100 
 9554              	.LASF71:
 9555 23c1 52585F46 		.ascii	"RX_FIFO_CTRL\000"
 9555      49464F5F 
 9555      4354524C 
 9555      00
 9556              	.LASF130:
 9557 23ce 53415455 		.ascii	"SATURATE_INTR_MASKED\000"
 9557      52415445 
 9557      5F494E54 
 9557      525F4D41 
 9557      534B4544 
 9558              	.LASF528:
 9559 23e3 4932435F 		.ascii	"I2C_context\000"
 9559      636F6E74 
 9559      65787400 
 9560              	.LASF99:
 9561 23ef 494E5452 		.ascii	"INTR_S_SET\000"
 9561      5F535F53 
 9561      455400
 9562              	.LASF369:
 9563 23fa 43595F42 		.ascii	"CY_BLE_EVT_GAP_DEVICE_CONNECTED\000"
 9563      4C455F45 
 9563      56545F47 
 9563      41505F44 
 9563      45564943 
 9564              	.LASF356:
 9565 241a 43595F42 		.ascii	"CY_BLE_EVT_RADIO_VOLTAGE_LEVEL\000"
 9565      4C455F45 
 9565      56545F52 
 9565      4144494F 
 9565      5F564F4C 
 9566              	.LASF278:
 9567 2439 6D617374 		.ascii	"masterBufferIdx\000"
 9567      65724275 
 9567      66666572 
 9567      49647800 
 9568              	.LASF523:
 9569 2449 63795F62 		.ascii	"cy_ble_connState\000"
 9569      6C655F63 
 9569      6F6E6E53 
 9569      74617465 
 9569      00
 9570              	.LASF273:
 9571 245a 6D617374 		.ascii	"masterStatus\000"
ARM GAS  C:\Users\xhuli\AppData\Local\Temp\ccrNCJrA.s 			page 239


 9571      65725374 
 9571      61747573 
 9571      00
 9572              	.LASF191:
 9573 2467 666C6173 		.ascii	"flashProgramDelay\000"
 9573      6850726F 
 9573      6772616D 
 9573      44656C61 
 9573      7900
 9574              	.LASF126:
 9575 2479 4348414E 		.ascii	"CHAN_RESULT_NEWVALUE\000"
 9575      5F524553 
 9575      554C545F 
 9575      4E455756 
 9575      414C5545 
 9576              	.LASF469:
 9577 248e 70696E4E 		.ascii	"pinNum\000"
 9577      756D00
 9578              	.LASF327:
 9579 2495 43595F42 		.ascii	"CY_BLE_EVT_GET_LOCAL_RPA_COMPLETE\000"
 9579      4C455F45 
 9579      56545F47 
 9579      45545F4C 
 9579      4F43414C 
 9580              	.LASF40:
 9581 24b7 5644445F 		.ascii	"VDD_ACTIVE\000"
 9581      41435449 
 9581      564500
 9582              	.LASF119:
 9583 24c2 53544152 		.ascii	"START_CTRL\000"
 9583      545F4354 
 9583      524C00
 9584              	.LASF165:
 9585 24cd 6770696F 		.ascii	"gpioVersion\000"
 9585      56657273 
 9585      696F6E00 
 9586              	.LASF220:
 9587 24d9 6770696F 		.ascii	"gpioPrtCfgSioOffset\000"
 9587      50727443 
 9587      66675369 
 9587      6F4F6666 
 9587      73657400 
 9588              	.LASF259:
 9589 24ed 6D757853 		.ascii	"muxSwitchSqCtrl\000"
 9589      77697463 
 9589      68537143 
 9589      74726C00 
 9590              	.LASF571:
 9591 24fd 6D656D63 		.ascii	"memcpy\000"
 9591      707900
 9592              	.LASF521:
 9593 2504 63795F62 		.ascii	"cy_ble_advState\000"
 9593      6C655F61 
 9593      64765374 
 9593      61746500 
 9594              	.LASF503:
 9595 2514 756C5661 		.ascii	"ulVal\000"
ARM GAS  C:\Users\xhuli\AppData\Local\Temp\ccrNCJrA.s 			page 240


 9595      6C00
 9596              	.LASF462:
 9597 251a 4144435F 		.ascii	"ADC_CONFIG_STRUCT\000"
 9597      434F4E46 
 9597      49475F53 
 9597      54525543 
 9597      5400
 9598              	.LASF23:
 9599 252c 4F55545F 		.ascii	"OUT_INV\000"
 9599      494E5600 
 9600              	.LASF357:
 9601 2534 43595F42 		.ascii	"CY_BLE_EVT_AES_CMAC_GEN_COMPLETE\000"
 9601      4C455F45 
 9601      56545F41 
 9601      45535F43 
 9601      4D41435F 
 9602              	.LASF184:
 9603 2555 75646250 		.ascii	"udbPresent\000"
 9603      72657365 
 9603      6E7400
 9604              	.LASF555:
 9605 2560 43795F42 		.ascii	"Cy_BLE_GATTS_WriteAttributeValueLocal\000"
 9605      4C455F47 
 9605      41545453 
 9605      5F577269 
 9605      74654174 
 9606              	.LASF59:
 9607 2586 4932435F 		.ascii	"I2C_STATUS\000"
 9607      53544154 
 9607      555300
 9608              	.LASF343:
 9609 2591 43595F42 		.ascii	"CY_BLE_EVT_GET_DEVICE_ADDR_COMPLETE\000"
 9609      4C455F45 
 9609      56545F47 
 9609      45545F44 
 9609      45564943 
 9610              	.LASF350:
 9611 25b5 43595F42 		.ascii	"CY_BLE_EVT_AES_ENCRYPT_COMPLETE\000"
 9611      4C455F45 
 9611      56545F41 
 9611      45535F45 
 9611      4E435259 
 9612              	.LASF19:
 9613 25d5 75696E74 		.ascii	"uint32_t\000"
 9613      33325F74 
 9613      00
 9614              	.LASF527:
 9615 25de 55415254 		.ascii	"UART_context\000"
 9615      5F636F6E 
 9615      74657874 
 9615      00
 9616              	.LASF252:
 9617 25eb 72616E67 		.ascii	"rangeCond\000"
 9617      65436F6E 
 9617      6400
 9618              	.LASF488:
 9619 25f5 76616C75 		.ascii	"value_peak\000"
ARM GAS  C:\Users\xhuli\AppData\Local\Temp\ccrNCJrA.s 			page 241


 9619      655F7065 
 9619      616B00
 9620              	.LASF274:
 9621 2600 6D617374 		.ascii	"masterPause\000"
 9621      65725061 
 9621      75736500 
 9622              	.LASF275:
 9623 260c 6D617374 		.ascii	"masterRdDir\000"
 9623      65725264 
 9623      44697200 
 9624              	.LASF487:
 9625 2618 76616C75 		.ascii	"value_possible_valley\000"
 9625      655F706F 
 9625      73736962 
 9625      6C655F76 
 9625      616C6C65 
 9626              	.LASF266:
 9627 262e 43595F53 		.ascii	"CY_SCB_I2C_NAK\000"
 9627      43425F49 
 9627      32435F4E 
 9627      414B00
 9628              	.LASF200:
 9629 263d 64774368 		.ascii	"dwChCtlPrioPos\000"
 9629      43746C50 
 9629      72696F50 
 9629      6F7300
 9630              	.LASF159:
 9631 264c 69706342 		.ascii	"ipcBase\000"
 9631      61736500 
 9632              	.LASF77:
 9633 2654 52585F46 		.ascii	"RX_FIFO_RD_SILENT\000"
 9633      49464F5F 
 9633      52445F53 
 9633      494C454E 
 9633      5400
 9634              	.LASF507:
 9635 2666 656E6162 		.ascii	"enableLED\000"
 9635      6C654C45 
 9635      4400
 9636              	.LASF223:
 9637 2670 63707573 		.ascii	"cpussCm4StatusOffset\000"
 9637      73436D34 
 9637      53746174 
 9637      75734F66 
 9637      66736574 
 9638              	.LASF471:
 9639 2685 43795F47 		.ascii	"Cy_GPIO_Clr\000"
 9639      50494F5F 
 9639      436C7200 
 9640              	.LASF562:
 9641 2691 43795F42 		.ascii	"Cy_BLE_RegisterAppHostCallback\000"
 9641      4C455F52 
 9641      65676973 
 9641      74657241 
 9641      7070486F 
 9642              	.LASF201:
 9643 26b0 64774368 		.ascii	"dwChCtlPreemptablePos\000"
ARM GAS  C:\Users\xhuli\AppData\Local\Temp\ccrNCJrA.s 			page 242


 9643      43746C50 
 9643      7265656D 
 9643      70746162 
 9643      6C65506F 
 9644              	.LASF7:
 9645 26c6 73686F72 		.ascii	"short unsigned int\000"
 9645      7420756E 
 9645      7369676E 
 9645      65642069 
 9645      6E7400
 9646              	.LASF375:
 9647 26d9 43595F42 		.ascii	"CY_BLE_EVT_GAP_NUMERIC_COMPARISON_REQUEST\000"
 9647      4C455F45 
 9647      56545F47 
 9647      41505F4E 
 9647      554D4552 
 9648              	.LASF505:
 9649 2703 6D61736B 		.ascii	"mask_LSB\000"
 9649      5F4C5342 
 9649      00
 9650              	.LASF468:
 9651 270c 62617365 		.ascii	"base\000"
 9651      00
 9652              	.LASF370:
 9653 2711 43595F42 		.ascii	"CY_BLE_EVT_GAP_DEVICE_DISCONNECTED\000"
 9653      4C455F45 
 9653      56545F47 
 9653      41505F44 
 9653      45564943 
 9654              	.LASF288:
 9655 2734 736C6176 		.ascii	"slaveRxBufferIdx\000"
 9655      65527842 
 9655      75666665 
 9655      72496478 
 9655      00
 9656              	.LASF355:
 9657 2745 43595F42 		.ascii	"CY_BLE_EVT_RADIO_TEMPERATURE\000"
 9657      4C455F45 
 9657      56545F52 
 9657      4144494F 
 9657      5F54454D 
 9658              	.LASF211:
 9659 2762 70657269 		.ascii	"periDivCmdPaTypeSelPos\000"
 9659      44697643 
 9659      6D645061 
 9659      54797065 
 9659      53656C50 
 9660              	.LASF387:
 9661 2779 43595F42 		.ascii	"CY_BLE_EVT_GAPP_UPDATE_ADV_SCAN_DATA_COMPLETE\000"
 9661      4C455F45 
 9661      56545F47 
 9661      4150505F 
 9661      55504441 
 9662              	.LASF235:
 9663 27a7 69706353 		.ascii	"ipcStructSize\000"
 9663      74727563 
 9663      7453697A 
ARM GAS  C:\Users\xhuli\AppData\Local\Temp\ccrNCJrA.s 			page 243


 9663      6500
 9664              	.LASF430:
 9665 27b5 61637475 		.ascii	"actualLen\000"
 9665      616C4C65 
 9665      6E00
 9666              	.LASF102:
 9667 27bf 52455345 		.ascii	"RESERVED16\000"
 9667      52564544 
 9667      313600
 9668              	.LASF124:
 9669 27ca 4348414E 		.ascii	"CHAN_RESULT_UPDATED\000"
 9669      5F524553 
 9669      554C545F 
 9669      55504441 
 9669      54454400 
 9670              	.LASF315:
 9671 27de 43595F42 		.ascii	"CY_BLE_EVT_FLASH_CORRUPT\000"
 9671      4C455F45 
 9671      56545F46 
 9671      4C415348 
 9671      5F434F52 
 9672              	.LASF118:
 9673 27f7 4348414E 		.ascii	"CHAN_EN\000"
 9673      5F454E00 
 9674              	.LASF204:
 9675 27ff 70657269 		.ascii	"periTrCmdOffset\000"
 9675      5472436D 
 9675      644F6666 
 9675      73657400 
 9676              	.LASF8:
 9677 280f 5F5F696E 		.ascii	"__int32_t\000"
 9677      7433325F 
 9677      7400
 9678              	.LASF427:
 9679 2819 61747449 		.ascii	"attId\000"
 9679      6400
 9680              	.LASF535:
 9681 281f 76616C6C 		.ascii	"valley\000"
 9681      657900
 9682              	.LASF560:
 9683 2826 43795F42 		.ascii	"Cy_BLE_Start\000"
 9683      4C455F53 
 9683      74617274 
 9683      00
 9684              	.LASF300:
 9685 2833 72785269 		.ascii	"rxRingBufTail\000"
 9685      6E674275 
 9685      66546169 
 9685      6C00
 9686              	.LASF476:
 9687 2841 78486967 		.ascii	"xHigherPriorityTaskWoken\000"
 9687      68657250 
 9687      72696F72 
 9687      69747954 
 9687      61736B57 
 9688              	.LASF37:
 9689 285a 494E5452 		.ascii	"INTR_CAUSE1\000"
ARM GAS  C:\Users\xhuli\AppData\Local\Temp\ccrNCJrA.s 			page 244


 9689      5F434155 
 9689      53453100 
 9690              	.LASF346:
 9691 2866 43595F42 		.ascii	"CY_BLE_EVT_SET_TX_PWR_COMPLETE\000"
 9691      4C455F45 
 9691      56545F53 
 9691      45545F54 
 9691      585F5057 
 9692              	.LASF559:
 9693 2885 78517565 		.ascii	"xQueueCreateCountingSemaphore\000"
 9693      75654372 
 9693      65617465 
 9693      436F756E 
 9693      74696E67 
 9694              	.LASF475:
 9695 28a3 66696C6C 		.ascii	"fillSampleData\000"
 9695      53616D70 
 9695      6C654461 
 9695      746100
 9696              	.LASF472:
 9697 28b2 43795F47 		.ascii	"Cy_GPIO_Write\000"
 9697      50494F5F 
 9697      57726974 
 9697      6500
 9698              	.LASF297:
 9699 28c0 72785269 		.ascii	"rxRingBuf\000"
 9699      6E674275 
 9699      6600
 9700              	.LASF293:
 9701 28ca 63795F73 		.ascii	"cy_stc_scb_i2c_context\000"
 9701      74635F73 
 9701      63625F69 
 9701      32635F63 
 9701      6F6E7465 
 9702              	.LASF477:
 9703 28e1 64617461 		.ascii	"data\000"
 9703      00
 9704              	.LASF334:
 9705 28e6 43595F42 		.ascii	"CY_BLE_EVT_REMOVE_DEVICE_FROM_WHITE_LIST_COMPLETE\000"
 9705      4C455F45 
 9705      56545F52 
 9705      454D4F56 
 9705      455F4445 
 9706              	.LASF331:
 9707 2918 43595F42 		.ascii	"CY_BLE_EVT_ADD_DEVICE_TO_RPA_LIST_COMPLETE\000"
 9707      4C455F45 
 9707      56545F41 
 9707      44445F44 
 9707      45564943 
 9708              	.LASF323:
 9709 2943 43595F42 		.ascii	"CY_BLE_EVT_SET_SUGGESTED_DATA_LENGTH_COMPLETE\000"
 9709      4C455F45 
 9709      56545F53 
 9709      45545F53 
 9709      55474745 
 9710              	.LASF374:
 9711 2971 43595F42 		.ascii	"CY_BLE_EVT_GAP_KEYINFO_EXCHNGE_CMPLT\000"
ARM GAS  C:\Users\xhuli\AppData\Local\Temp\ccrNCJrA.s 			page 245


 9711      4C455F45 
 9711      56545F47 
 9711      41505F4B 
 9711      4559494E 
 9712              	.LASF143:
 9713 2996 414E415F 		.ascii	"ANA_TRIM0\000"
 9713      5452494D 
 9713      3000
 9714              	.LASF144:
 9715 29a0 414E415F 		.ascii	"ANA_TRIM1\000"
 9715      5452494D 
 9715      3100
 9716              	.LASF58:
 9717 29aa 4932435F 		.ascii	"I2C_CTRL\000"
 9717      4354524C 
 9717      00
 9718              	.LASF193:
 9719 29b3 666C6173 		.ascii	"flashCtlMainWs0Freq\000"
 9719      6843746C 
 9719      4D61696E 
 9719      57733046 
 9719      72657100 
 9720              	.LASF166:
 9721 29c7 6873696F 		.ascii	"hsiomVersion\000"
 9721      6D566572 
 9721      73696F6E 
 9721      00
 9722              	.LASF382:
 9723 29d4 43595F42 		.ascii	"CY_BLE_EVT_GAP_KEYS_GEN_COMPLETE\000"
 9723      4C455F45 
 9723      56545F47 
 9723      41505F4B 
 9723      4559535F 
 9724              	.LASF486:
 9725 29f5 76616C75 		.ascii	"value_possible_peak\000"
 9725      655F706F 
 9725      73736962 
 9725      6C655F70 
 9725      65616B00 
 9726              	.LASF269:
 9727 2a09 63795F63 		.ascii	"cy_cb_scb_i2c_handle_addr_t\000"
 9727      625F7363 
 9727      625F6932 
 9727      635F6861 
 9727      6E646C65 
 9728              	.LASF198:
 9729 2a25 64774368 		.ascii	"dwChOffset\000"
 9729      4F666673 
 9729      657400
 9730              	.LASF556:
 9731 2a30 43795F53 		.ascii	"Cy_SysLib_Delay\000"
 9731      79734C69 
 9731      625F4465 
 9731      6C617900 
 9732              		.ident	"GCC: (GNU Tools for ARM Embedded Processors) 5.4.1 20160609 (release) [ARM/embedded-5-bran
