ARM GAS  C:\Users\xhuli\AppData\Local\Temp\ccrNCJrA.s 			page 1


   1              		.syntax unified
   2              		.cpu cortex-m4
   3              		.eabi_attribute 27, 1
   4              		.fpu fpv4-sp-d16
   5              		.eabi_attribute 20, 1
   6              		.eabi_attribute 21, 1
   7              		.eabi_attribute 23, 3
   8              		.eabi_attribute 24, 1
   9              		.eabi_attribute 25, 1
  10              		.eabi_attribute 26, 1
  11              		.eabi_attribute 30, 1
  12              		.eabi_attribute 34, 1
  13              		.eabi_attribute 18, 4
  14              		.thumb
  15              		.syntax unified
  16              		.file	"BLE_Task.c"
  17              		.text
  18              	.Ltext0:
  19              		.cfi_sections	.debug_frame
  20              		.section	.text.bleInterruptNotify,"ax",%progbits
  21              		.align	2
  22              		.global	bleInterruptNotify
  23              		.thumb
  24              		.thumb_func
  25              		.type	bleInterruptNotify, %function
  26              	bleInterruptNotify:
  27              	.LFB597:
  28              		.file 1 "BLE_Task.c"
   1:BLE_Task.c    **** #include "project.h"
   2:BLE_Task.c    **** #include "FreeRTOS.h"
   3:BLE_Task.c    **** #include "semphr.h"
   4:BLE_Task.c    **** #include "task.h"
   5:BLE_Task.c    **** 
   6:BLE_Task.c    **** #include "ADC_Task.h"
   7:BLE_Task.c    **** #include "I2C_Task.h"
   8:BLE_Task.c    **** #include "BLE_Task.h"
   9:BLE_Task.c    **** 
  10:BLE_Task.c    **** #include <stdio.h>
  11:BLE_Task.c    **** #include <limits.h>
  12:BLE_Task.c    **** #include <math.h>
  13:BLE_Task.c    **** 
  14:BLE_Task.c    **** //Semaphore for the BLE FreeRTOS Task
  15:BLE_Task.c    **** SemaphoreHandle_t bleSemaphore;
  16:BLE_Task.c    **** 
  17:BLE_Task.c    **** //Buffers for BLE read service
  18:BLE_Task.c    **** static uint8_t ADC_bytes[4]; 
  19:BLE_Task.c    **** static uint8_t I2C_bytes[5];
  20:BLE_Task.c    **** 
  21:BLE_Task.c    **** //Buffers for data conversion operations
  22:BLE_Task.c    **** static uint16_t ADC_Data[1]; //ADC data
  23:BLE_Task.c    **** static uint8_t I2C_Data[3]; //I2C data
  24:BLE_Task.c    **** 
  25:BLE_Task.c    **** //Heart Rate buffers and variables
  26:BLE_Task.c    **** int num_steps = 0;
  27:BLE_Task.c    **** int beat = 0;
  28:BLE_Task.c    **** int valley = 0;
  29:BLE_Task.c    **** int possible_beat = 0;
ARM GAS  C:\Users\xhuli\AppData\Local\Temp\ccrNCJrA.s 			page 2


  30:BLE_Task.c    **** int possible_val = 0;
  31:BLE_Task.c    **** 
  32:BLE_Task.c    **** //Heart rate sample
  33:BLE_Task.c    **** float sample[SAMPLE_LENGTH] = {0};
  34:BLE_Task.c    **** 
  35:BLE_Task.c    **** 
  36:BLE_Task.c    **** /*********************************************************/
  37:BLE_Task.c    **** /*********FUNCTION FOR SAMPLING HEART RATE DATA***********/
  38:BLE_Task.c    **** /*********************************************************/
  39:BLE_Task.c    **** void fillSampleData(){
  40:BLE_Task.c    ****     printf(">>Collecting Heart Rate Data\r\n");
  41:BLE_Task.c    ****     for(int i = 0; i <= SAMPLE_LENGTH; i++){
  42:BLE_Task.c    ****         sample[i] = 0;
  43:BLE_Task.c    ****         sample[i] = ADC_GetResult16(0);
  44:BLE_Task.c    ****         vTaskDelay(10);
  45:BLE_Task.c    ****     }
  46:BLE_Task.c    **** }
  47:BLE_Task.c    **** 
  48:BLE_Task.c    **** /*********************************************************/
  49:BLE_Task.c    **** /***********FUNCTION FOR CALCULATING THE MEAN*************/
  50:BLE_Task.c    **** /*********************************************************/
  51:BLE_Task.c    **** float mean(float data[], int len) {
  52:BLE_Task.c    ****     float sum = 0.0, mean = 0.0;
  53:BLE_Task.c    ****     int i;
  54:BLE_Task.c    ****     for(i=0; i<len; ++i) {
  55:BLE_Task.c    ****         sum += data[i];
  56:BLE_Task.c    ****     }
  57:BLE_Task.c    ****     mean = sum/len;
  58:BLE_Task.c    ****     return mean;
  59:BLE_Task.c    **** }
  60:BLE_Task.c    **** 
  61:BLE_Task.c    **** /*********************************************************/
  62:BLE_Task.c    **** /******FUNCTION FOR CALCULATING STANDARD DEVIATION********/
  63:BLE_Task.c    **** /*********************************************************/
  64:BLE_Task.c    **** float stddev(float data[], int len) {
  65:BLE_Task.c    ****     float the_mean = mean(data, len);
  66:BLE_Task.c    ****     float standardDeviation = 0.0;
  67:BLE_Task.c    ****     int i;
  68:BLE_Task.c    ****     for(i=0; i<len; ++i) {
  69:BLE_Task.c    ****         standardDeviation += pow(data[i] - the_mean, 2);
  70:BLE_Task.c    ****     }
  71:BLE_Task.c    ****     return sqrt(standardDeviation/len);
  72:BLE_Task.c    **** }
  73:BLE_Task.c    **** 
  74:BLE_Task.c    **** /*********************************************************/
  75:BLE_Task.c    **** /***********FUNCTION FOR MEASURING HEART RATE*************/
  76:BLE_Task.c    **** /*********************************************************/
  77:BLE_Task.c    **** void detectPeaks(){
  78:BLE_Task.c    ****     fillSampleData();
  79:BLE_Task.c    ****     printf(">>Calculating Heart Rate\r\n");
  80:BLE_Task.c    ****     float threshold = 6;
  81:BLE_Task.c    ****     int lag = 3;
  82:BLE_Task.c    ****     bool possible_peak = false;
  83:BLE_Task.c    ****     bool possible_valley = false;
  84:BLE_Task.c    **** 
  85:BLE_Task.c    ****     float value_possible_peak = 0;
  86:BLE_Task.c    ****     float value_possible_valley = 0;
ARM GAS  C:\Users\xhuli\AppData\Local\Temp\ccrNCJrA.s 			page 3


  87:BLE_Task.c    **** 
  88:BLE_Task.c    ****     float value_peak = 0;
  89:BLE_Task.c    ****     float value_valley = 0;
  90:BLE_Task.c    ****     float avgFilter[SAMPLE_LENGTH];
  91:BLE_Task.c    ****     float stdFilter[SAMPLE_LENGTH];
  92:BLE_Task.c    **** 
  93:BLE_Task.c    ****     avgFilter[lag-1] = mean(sample, lag);
  94:BLE_Task.c    ****     stdFilter[lag-1] = stddev(sample, lag);
  95:BLE_Task.c    ****     float filteredY[SAMPLE_LENGTH];
  96:BLE_Task.c    ****     memcpy(filteredY, sample, sizeof(float) * SAMPLE_LENGTH);
  97:BLE_Task.c    ****     for(int i = lag; i<=SAMPLE_LENGTH; i++)
  98:BLE_Task.c    ****     {
  99:BLE_Task.c    ****         avgFilter[i] = mean(filteredY + i-lag+1, lag);
 100:BLE_Task.c    ****         stdFilter[i] = stddev(filteredY + i-lag+1, lag);
 101:BLE_Task.c    **** 	    if(sample[i] > sample[i-1]){
 102:BLE_Task.c    **** 	       num_steps++;
 103:BLE_Task.c    **** 		        //Looking for the valley
 104:BLE_Task.c    **** 		    if(possible_valley == false){
 105:BLE_Task.c    **** 		 	    //Potential valley has been found
 106:BLE_Task.c    **** 		        possible_valley = true; 
 107:BLE_Task.c    **** 		 	    value_possible_valley = sample[i-1];
 108:BLE_Task.c    ****                 possible_val++;
 109:BLE_Task.c    **** 		        }
 110:BLE_Task.c    **** 	    else {
 111:BLE_Task.c    **** 		    //Looking for the peak
 112:BLE_Task.c    **** 		    if(num_steps >= threshold && fabsf(sample[i] - avgFilter[i-1]) > threshold * stdFilter[i-1]){
 113:BLE_Task.c    **** 			    //Potential peak has been found
 114:BLE_Task.c    **** 			    possible_peak = true;
 115:BLE_Task.c    **** 			    value_possible_peak = sample[i-1];
 116:BLE_Task.c    ****                 possible_beat++;
 117:BLE_Task.c    **** 		    } 
 118:BLE_Task.c    **** 
 119:BLE_Task.c    **** 		    else {
 120:BLE_Task.c    **** 			    //Updating potential valley
 121:BLE_Task.c    **** 			    if(possible_valley == true){
 122:BLE_Task.c    **** 				    if(sample[i] <= value_possible_valley){
 123:BLE_Task.c    **** 				    value_possible_valley = sample[i];
 124:BLE_Task.c    ****                     possible_val++;
 125:BLE_Task.c    **** 				    }
 126:BLE_Task.c    **** 			    }
 127:BLE_Task.c    **** 			    //Peak has been found
 128:BLE_Task.c    **** 		        if(possible_peak == true){
 129:BLE_Task.c    **** 				    //Updating peak information
 130:BLE_Task.c    **** 		  	        if(sample[i-1] > value_possible_peak || sample[i] > avgFilter[i-1]){
 131:BLE_Task.c    **** 			        value_peak = sample[i-1];
 132:BLE_Task.c    ****                     beat++;
 133:BLE_Task.c    **** 			    } 
 134:BLE_Task.c    **** 			
 135:BLE_Task.c    **** 			    else {
 136:BLE_Task.c    ****                     beat++;
 137:BLE_Task.c    **** 			        value_peak = value_possible_peak;
 138:BLE_Task.c    **** 			        }
 139:BLE_Task.c    **** 		        }
 140:BLE_Task.c    **** 			    //Valley has been found
 141:BLE_Task.c    **** 		        if(possible_valley == true){
 142:BLE_Task.c    **** 				    //Updating valley information
 143:BLE_Task.c    **** 		            value_valley = value_possible_valley;
ARM GAS  C:\Users\xhuli\AppData\Local\Temp\ccrNCJrA.s 			page 4


 144:BLE_Task.c    **** 		            possible_valley = false;
 145:BLE_Task.c    ****                     valley++;
 146:BLE_Task.c    **** 		        }
 147:BLE_Task.c    **** 			    //Updating threshold
 148:BLE_Task.c    **** 		        threshold = 0.6 * num_steps;
 149:BLE_Task.c    **** 		        possible_peak = false;
 150:BLE_Task.c    ****                 filteredY[i] = 0.1 * sample[i] + (1 - 0.1) * filteredY[i-1];
 151:BLE_Task.c    ****                 avgFilter[i] = mean(filteredY + i-lag+1, lag);
 152:BLE_Task.c    **** 		    }
 153:BLE_Task.c    **** 	    }
 154:BLE_Task.c    **** 	    //Resetting number of steps
 155:BLE_Task.c    **** 	    num_steps = 0;
 156:BLE_Task.c    ****         }
 157:BLE_Task.c    ****         }
 158:BLE_Task.c    ****     
 159:BLE_Task.c    **** printf("Peaks:                  %d \r\n", beat);
 160:BLE_Task.c    **** printf("Possible Peaks:         %d \r\n", possible_beat);
 161:BLE_Task.c    **** printf("Estimated Heart Rate:   %d \r\n", 7*beat);
 162:BLE_Task.c    **** }
 163:BLE_Task.c    **** 
 164:BLE_Task.c    **** /*********************************************************/
 165:BLE_Task.c    **** /*******FUNCTION FOR INITIALIZING PSOC COMPONENTS*********/
 166:BLE_Task.c    **** /*********************************************************/
 167:BLE_Task.c    **** void Init_Components(){
 168:BLE_Task.c    ****     ADC_Start();
 169:BLE_Task.c    ****     UART_Start();
 170:BLE_Task.c    ****     ADC_StartConvert();
 171:BLE_Task.c    ****     I2C_Start();
 172:BLE_Task.c    ****     printf(">>Components Initialized!\r\n");
 173:BLE_Task.c    **** }
 174:BLE_Task.c    **** 
 175:BLE_Task.c    **** /*********************************************************/
 176:BLE_Task.c    **** /*****FUNCTION FOR FETCHING TEMPERATURE THROUGH I2C*******/
 177:BLE_Task.c    **** /*********************************************************/
 178:BLE_Task.c    **** float getTemperature(){
 179:BLE_Task.c    ****     float raw = 0;
 180:BLE_Task.c    ****     float raw2 = 0;
 181:BLE_Task.c    ****     
 182:BLE_Task.c    ****     Cy_SCB_I2C_MasterSendStart(I2C_HW, sensorAddress, CY_SCB_I2C_WRITE_XFER, 0, &I2C_context);
 183:BLE_Task.c    ****     Cy_SCB_I2C_MasterWriteByte(I2C_HW, MAX30205_TEMPERATURE, 0, &I2C_context);
 184:BLE_Task.c    ****     Cy_SCB_I2C_MasterSendReStart(I2C_HW, sensorAddress, CY_SCB_I2C_READ_XFER, 0, &I2C_context);
 185:BLE_Task.c    ****     
 186:BLE_Task.c    ****     for(uint i = 0; i<sizeof(I2C_Data)-1; i++ ){
 187:BLE_Task.c    ****         Cy_SCB_I2C_MasterReadByte(I2C_HW, CY_SCB_I2C_ACK, &I2C_Data[i], 0, &I2C_context);
 188:BLE_Task.c    ****         raw = I2C_Data[0]; 
 189:BLE_Task.c    ****         raw2 = I2C_Data[1] * 0.00390625;
 190:BLE_Task.c    ****         temperature = raw + raw2;
 191:BLE_Task.c    ****     }
 192:BLE_Task.c    ****     
 193:BLE_Task.c    ****     Cy_SCB_I2C_MasterReadByte(I2C_HW, CY_SCB_I2C_NAK, &I2C_Data[sizeof(I2C_Data)], 0, &I2C_context)
 194:BLE_Task.c    ****     Cy_SCB_I2C_MasterSendStop(I2C_HW, 0, &I2C_context);
 195:BLE_Task.c    ****     
 196:BLE_Task.c    ****     return temperature;
 197:BLE_Task.c    **** }
 198:BLE_Task.c    **** 
 199:BLE_Task.c    **** /*********************************************************/
 200:BLE_Task.c    **** /*******FUNCTION FOR TX TEMPERATURE DATA OVER BLE*********/
ARM GAS  C:\Users\xhuli\AppData\Local\Temp\ccrNCJrA.s 			page 5


 201:BLE_Task.c    **** /*********************************************************/
 202:BLE_Task.c    **** void sendTempData()
 203:BLE_Task.c    **** {
 204:BLE_Task.c    ****     cy_stc_ble_gatt_handle_value_pair_t serviceHandle;
 205:BLE_Task.c    ****     serviceHandle.attrHandle = CY_BLE_TEMPERATURE_TEMPERATURE_CHAR_HANDLE;
 206:BLE_Task.c    ****     
 207:BLE_Task.c    ****     char tempChar[5];
 208:BLE_Task.c    ****     
 209:BLE_Task.c    ****     sprintf(tempChar, "%f", getTemperature());
 210:BLE_Task.c    ****     
 211:BLE_Task.c    ****     for(uint i = 0; i<sizeof(I2C_bytes); i++)
 212:BLE_Task.c    ****     {
 213:BLE_Task.c    ****     I2C_bytes[i] = tempChar[i];
 214:BLE_Task.c    ****     }
 215:BLE_Task.c    ****     
 216:BLE_Task.c    ****     serviceHandle.value.len = sizeof(I2C_bytes);
 217:BLE_Task.c    ****     serviceHandle.value.val = (uint8_t*) &I2C_bytes;
 218:BLE_Task.c    ****     
 219:BLE_Task.c    ****     Cy_BLE_GATTS_WriteAttributeValueLocal(&serviceHandle);
 220:BLE_Task.c    **** }
 221:BLE_Task.c    **** 
 222:BLE_Task.c    **** /*********************************************************/
 223:BLE_Task.c    **** /*********FUNCTION FOR ADC DATA TRANSFER OVER BLE*********/
 224:BLE_Task.c    **** /*********************************************************/
 225:BLE_Task.c    **** void writeRefValue(){
 226:BLE_Task.c    ****     //Value pair for the BLE service
 227:BLE_Task.c    ****     cy_stc_ble_gatt_handle_value_pair_t serviceHandle;
 228:BLE_Task.c    ****     
 229:BLE_Task.c    ****     //Attribute to read
 230:BLE_Task.c    ****     serviceHandle.attrHandle = CY_BLE_ADCVAL_ADC_CHAR_HANDLE;
 231:BLE_Task.c    ****     //ADC Value
 232:BLE_Task.c    ****     ADC_Data[0] = ADC_GetResult16(0);
 233:BLE_Task.c    ****     //String for conversion
 234:BLE_Task.c    ****     char charVal[5];
 235:BLE_Task.c    ****     //Conversion of 16 bits decimal number (Decimal to ASCII)
 236:BLE_Task.c    ****     sprintf(charVal, "%d", ADC_Data[0]);
 237:BLE_Task.c    ****     //Passing each ASCII character to 8-bit unsigned integer 
 238:BLE_Task.c    ****     for (int i = 0; i<(int)sizeof(ADC_bytes);i++)
 239:BLE_Task.c    ****     {
 240:BLE_Task.c    ****     ADC_bytes[i] = charVal[i];
 241:BLE_Task.c    ****     }
 242:BLE_Task.c    ****     //Assigning buffer to packet sent over BLE
 243:BLE_Task.c    ****     serviceHandle.value.len = sizeof(ADC_bytes);
 244:BLE_Task.c    ****     serviceHandle.value.val = (uint8_t*) &ADC_bytes;
 245:BLE_Task.c    ****     //Updating local GATT database
 246:BLE_Task.c    ****     Cy_BLE_GATTS_WriteAttributeValueLocal(&serviceHandle);
 247:BLE_Task.c    **** }
 248:BLE_Task.c    **** 
 249:BLE_Task.c    **** /*********************************************************/
 250:BLE_Task.c    **** /************FUNCTION FOR LED SDI SIGNAL SHIFT************/
 251:BLE_Task.c    **** /*********************************************************/
 252:BLE_Task.c    **** void shiftOut(uint16_t ulBitOrder, uint16_t ulVal)
 253:BLE_Task.c    ****     {
 254:BLE_Task.c    ****         uint8_t i;
 255:BLE_Task.c    ****         uint16_t mask_MSB = 0x8000; // 1...(15)0
 256:BLE_Task.c    ****         uint16_t mask_LSB = 0x0001; // 0(15)... 1
 257:BLE_Task.c    ****         
ARM GAS  C:\Users\xhuli\AppData\Local\Temp\ccrNCJrA.s 			page 6


 258:BLE_Task.c    ****         //To keep LEDs off while shifting into register
 259:BLE_Task.c    ****         Cy_GPIO_Set(OE_PORT, OE_NUM);
 260:BLE_Task.c    ****         bool output = false;
 261:BLE_Task.c    ****         for (i = 0; i < 16; i++)
 262:BLE_Task.c    ****         {         
 263:BLE_Task.c    ****             if (ulBitOrder == 1){               
 264:BLE_Task.c    ****                 output = ulVal & mask_MSB;
 265:BLE_Task.c    ****                 ulVal = ulVal << 1;
 266:BLE_Task.c    ****             }
 267:BLE_Task.c    ****             else{               
 268:BLE_Task.c    ****                 output = ulVal & mask_LSB; 
 269:BLE_Task.c    ****                 ulVal = ulVal >> 1;
 270:BLE_Task.c    ****             }
 271:BLE_Task.c    ****             Cy_GPIO_Set(CLK_PORT, CLK_NUM);
 272:BLE_Task.c    ****             Cy_GPIO_Write(SDI_Port, SDI_Num, output);
 273:BLE_Task.c    ****             Cy_SysLib_Delay(1);
 274:BLE_Task.c    ****             Cy_GPIO_Clr(CLK_PORT, CLK_NUM);
 275:BLE_Task.c    ****           }
 276:BLE_Task.c    ****     }
 277:BLE_Task.c    **** 
 278:BLE_Task.c    **** /*********************************************************/
 279:BLE_Task.c    **** /*****FUNCTION FOR ENABLING LEDS OF DIFFERENT COLORS******/
 280:BLE_Task.c    **** /*********************************************************/
 281:BLE_Task.c    **** void enableLED(uint8_t LedNo){
 282:BLE_Task.c    ****         printf(">>Starting LED register shifting! \n\r");
 283:BLE_Task.c    ****         Cy_GPIO_Clr(LE_PORT, LE_NUM);
 284:BLE_Task.c    ****         Cy_GPIO_Clr(CLK_PORT, CLK_NUM);
 285:BLE_Task.c    ****         //To keep LEDs off while shifting into register
 286:BLE_Task.c    ****         Cy_GPIO_Set(OE_PORT, OE_NUM); 
 287:BLE_Task.c    ****         
 288:BLE_Task.c    ****         if(LedNo == 1){
 289:BLE_Task.c    ****             shiftOut(0, RED);
 290:BLE_Task.c    ****         }
 291:BLE_Task.c    ****         else if (LedNo == 2){           
 292:BLE_Task.c    ****             shiftOut(0, GREEN);
 293:BLE_Task.c    ****         }
 294:BLE_Task.c    ****         else if (LedNo == 3){
 295:BLE_Task.c    ****             shiftOut(0, IR);           
 296:BLE_Task.c    ****         }     
 297:BLE_Task.c    ****         Cy_GPIO_Set(LE_PORT, LE_NUM);
 298:BLE_Task.c    ****         Cy_GPIO_Clr(LE_Port, LE_Num);
 299:BLE_Task.c    ****         Cy_GPIO_Clr(OE_PORT, OE_NUM);
 300:BLE_Task.c    ****         
 301:BLE_Task.c    ****         printf(">>LED Enabled Successfully! \n\r");
 302:BLE_Task.c    ****     }
 303:BLE_Task.c    **** 
 304:BLE_Task.c    **** /*********************************************************/
 305:BLE_Task.c    **** /*********CALLBACK FUNCTION BLE SERVICE HANDLING**********/
 306:BLE_Task.c    **** /*********************************************************/
 307:BLE_Task.c    **** void callback(uint32_t event, void *eventParam)
 308:BLE_Task.c    **** {
 309:BLE_Task.c    ****     cy_stc_ble_gatts_write_cmd_req_param_t  *writeReqParameter;
 310:BLE_Task.c    ****     switch (event)
 311:BLE_Task.c    ****     {
 312:BLE_Task.c    ****         case CY_BLE_EVT_STACK_ON:
 313:BLE_Task.c    ****         printf(">>Start advertising\r\n");
 314:BLE_Task.c    ****         Cy_BLE_GAPP_StartAdvertisement(CY_BLE_ADVERTISING_FAST, CY_BLE_PERIPHERAL_CONFIGURATION_0_I
ARM GAS  C:\Users\xhuli\AppData\Local\Temp\ccrNCJrA.s 			page 7


 315:BLE_Task.c    ****         break;
 316:BLE_Task.c    ****         
 317:BLE_Task.c    ****         case CY_BLE_EVT_GAP_DEVICE_DISCONNECTED:
 318:BLE_Task.c    ****             printf(">>Device disconnected!\r\n");
 319:BLE_Task.c    ****             Cy_GPIO_Set(OE_PORT, OE_NUM); //turn off the led when disconnected
 320:BLE_Task.c    ****             Cy_BLE_GAPP_StartAdvertisement(CY_BLE_ADVERTISING_FAST, CY_BLE_PERIPHERAL_CONFIGURATION
 321:BLE_Task.c    ****             printf(">>Start advertising!\r\n");
 322:BLE_Task.c    ****             break;
 323:BLE_Task.c    ****             
 324:BLE_Task.c    ****         case CY_BLE_EVT_GATT_CONNECT_IND:
 325:BLE_Task.c    ****             printf(">>Device connected!\r\n");
 326:BLE_Task.c    ****         break;
 327:BLE_Task.c    ****             
 328:BLE_Task.c    ****         case CY_BLE_EVT_GATTS_WRITE_REQ:
 329:BLE_Task.c    ****             
 330:BLE_Task.c    ****             writeReqParameter = (cy_stc_ble_gatts_write_cmd_req_param_t *)eventParam;
 331:BLE_Task.c    ****             
 332:BLE_Task.c    ****             if(CY_BLE_LED_CHANGE_LED_CHAR_HANDLE == writeReqParameter->handleValPair.attrHandle)
 333:BLE_Task.c    ****             {
 334:BLE_Task.c    ****                 uint8_t val = writeReqParameter->handleValPair.value.val[0];
 335:BLE_Task.c    **** 
 336:BLE_Task.c    ****                 if(val==49) 
 337:BLE_Task.c    ****                 {
 338:BLE_Task.c    ****                     val=1;
 339:BLE_Task.c    ****                     enableLED(val);
 340:BLE_Task.c    ****                     vTaskDelay(100);                
 341:BLE_Task.c    ****                     detectPeaks();
 342:BLE_Task.c    ****                 }
 343:BLE_Task.c    ****                 else if(val==50) 
 344:BLE_Task.c    ****                 {
 345:BLE_Task.c    ****                     val=2;
 346:BLE_Task.c    ****                     enableLED(val); 
 347:BLE_Task.c    ****                     vTaskDelay(100);
 348:BLE_Task.c    ****                     detectPeaks();
 349:BLE_Task.c    ****                 }
 350:BLE_Task.c    ****                 else if (val == 51) {
 351:BLE_Task.c    ****                     val = 3;
 352:BLE_Task.c    ****                     enableLED(val); 
 353:BLE_Task.c    ****                     vTaskDelay(100);
 354:BLE_Task.c    ****                     detectPeaks();
 355:BLE_Task.c    ****                 }
 356:BLE_Task.c    ****                 else writeRefValue();
 357:BLE_Task.c    ****             }
 358:BLE_Task.c    ****             Cy_BLE_GATTS_WriteRsp(writeReqParameter->connHandle);
 359:BLE_Task.c    ****             break;
 360:BLE_Task.c    ****         default:
 361:BLE_Task.c    ****             sendTempData();
 362:BLE_Task.c    ****             writeRefValue();
 363:BLE_Task.c    ****             break;
 364:BLE_Task.c    ****     }
 365:BLE_Task.c    **** 
 366:BLE_Task.c    **** }
 367:BLE_Task.c    ****     
 368:BLE_Task.c    **** void bleInterruptNotify(){
  29              		.loc 1 368 0
  30              		.cfi_startproc
  31              		@ args = 0, pretend = 0, frame = 8
ARM GAS  C:\Users\xhuli\AppData\Local\Temp\ccrNCJrA.s 			page 8


  32              		@ frame_needed = 0, uses_anonymous_args = 0
  33 0000 00B5     		push	{lr}
  34              		.cfi_def_cfa_offset 4
  35              		.cfi_offset 14, -4
  36 0002 83B0     		sub	sp, sp, #12
  37              		.cfi_def_cfa_offset 16
 369:BLE_Task.c    ****     BaseType_t xHigherPriorityTaskWoken;
 370:BLE_Task.c    ****     xHigherPriorityTaskWoken = pdFALSE;
  38              		.loc 1 370 0
  39 0004 02A9     		add	r1, sp, #8
  40 0006 0023     		movs	r3, #0
  41 0008 41F8043D 		str	r3, [r1, #-4]!
 371:BLE_Task.c    ****     xSemaphoreGiveFromISR(bleSemaphore, &xHigherPriorityTaskWoken);
  42              		.loc 1 371 0
  43 000c 084B     		ldr	r3, .L4
  44 000e 1868     		ldr	r0, [r3]
  45 0010 FFF7FEFF 		bl	xQueueGiveFromISR
  46              	.LVL0:
 372:BLE_Task.c    ****     portYIELD_FROM_ISR(xHigherPriorityTaskWoken);
  47              		.loc 1 372 0
  48 0014 019B     		ldr	r3, [sp, #4]
  49 0016 3BB1     		cbz	r3, .L1
  50              		.loc 1 372 0 is_stmt 0 discriminator 1
  51 0018 4FF08052 		mov	r2, #268435456
  52 001c 054B     		ldr	r3, .L4+4
  53 001e 1A60     		str	r2, [r3]
  54              		.syntax unified
  55              	@ 372 "BLE_Task.c" 1
  56 0020 BFF34F8F 		dsb
  57              	@ 0 "" 2
  58              	@ 372 "BLE_Task.c" 1
  59 0024 BFF36F8F 		isb
  60              	@ 0 "" 2
  61              		.thumb
  62              		.syntax unified
  63              	.L1:
 373:BLE_Task.c    **** }
  64              		.loc 1 373 0 is_stmt 1
  65 0028 03B0     		add	sp, sp, #12
  66              		.cfi_def_cfa_offset 4
  67              		@ sp needed
  68 002a 5DF804FB 		ldr	pc, [sp], #4
  69              	.L5:
  70 002e 00BF     		.align	2
  71              	.L4:
  72 0030 00000000 		.word	bleSemaphore
  73 0034 04ED00E0 		.word	-536810236
  74              		.cfi_endproc
  75              	.LFE597:
  76              		.size	bleInterruptNotify, .-bleInterruptNotify
  77              		.section	.text.fillSampleData,"ax",%progbits
  78              		.align	2
  79              		.global	fillSampleData
  80              		.thumb
  81              		.thumb_func
  82              		.type	fillSampleData, %function
  83              	fillSampleData:
ARM GAS  C:\Users\xhuli\AppData\Local\Temp\ccrNCJrA.s 			page 9


  84              	.LFB586:
  39:BLE_Task.c    ****     printf(">>Collecting Heart Rate Data\r\n");
  85              		.loc 1 39 0
  86              		.cfi_startproc
  87              		@ args = 0, pretend = 0, frame = 0
  88              		@ frame_needed = 0, uses_anonymous_args = 0
  89 0000 10B5     		push	{r4, lr}
  90              		.cfi_def_cfa_offset 8
  91              		.cfi_offset 4, -8
  92              		.cfi_offset 14, -4
  40:BLE_Task.c    ****     for(int i = 0; i <= SAMPLE_LENGTH; i++){
  93              		.loc 1 40 0
  94 0002 1648     		ldr	r0, .L11
  95 0004 FFF7FEFF 		bl	puts
  96              	.LVL1:
  97              	.LBB28:
  41:BLE_Task.c    ****         sample[i] = 0;
  98              		.loc 1 41 0
  99 0008 0024     		movs	r4, #0
 100 000a 23E0     		b	.L7
 101              	.LVL2:
 102              	.L9:
  42:BLE_Task.c    ****         sample[i] = ADC_GetResult16(0);
 103              		.loc 1 42 0 discriminator 3
 104 000c 144B     		ldr	r3, .L11+4
 105 000e 03EB8403 		add	r3, r3, r4, lsl #2
 106 0012 0022     		movs	r2, #0
 107 0014 1A60     		str	r2, [r3]	@ float
 108              	.LVL3:
 109              	.LBB29:
 110              	.LBB30:
 111              		.file 2 "Generated_Source\\PSoC6/ADC.h"
   1:Generated_Source\PSoC6/ADC.h **** /***************************************************************************//**
   2:Generated_Source\PSoC6/ADC.h **** * \file     ADC.h
   3:Generated_Source\PSoC6/ADC.h **** * \version  3.10
   4:Generated_Source\PSoC6/ADC.h **** *
   5:Generated_Source\PSoC6/ADC.h **** * \brief
   6:Generated_Source\PSoC6/ADC.h **** * Provides the source code to the API for the ADC Component.
   7:Generated_Source\PSoC6/ADC.h **** *
   8:Generated_Source\PSoC6/ADC.h **** ********************************************************************************
   9:Generated_Source\PSoC6/ADC.h **** * \copyright
  10:Generated_Source\PSoC6/ADC.h **** * (c) 2017-2018, Cypress Semiconductor Corporation. All rights reserved.
  11:Generated_Source\PSoC6/ADC.h **** * This software, including source code, documentation and related
  12:Generated_Source\PSoC6/ADC.h **** * materials ("Software"), is owned by Cypress Semiconductor
  13:Generated_Source\PSoC6/ADC.h **** * Corporation ("Cypress") and is protected by and subject to worldwide
  14:Generated_Source\PSoC6/ADC.h **** * patent protection (United States and foreign), United States copyright
  15:Generated_Source\PSoC6/ADC.h **** * laws and international treaty provisions. Therefore, you may use this
  16:Generated_Source\PSoC6/ADC.h **** * Software only as provided in the license agreement accompanying the
  17:Generated_Source\PSoC6/ADC.h **** * software package from which you obtained this Software ("EULA").
  18:Generated_Source\PSoC6/ADC.h **** * If no EULA applies, Cypress hereby grants you a personal, nonexclusive,
  19:Generated_Source\PSoC6/ADC.h **** * non-transferable license to copy, modify, and compile the
  20:Generated_Source\PSoC6/ADC.h **** * Software source code solely for use in connection with Cypress's
  21:Generated_Source\PSoC6/ADC.h **** * integrated circuit products. Any reproduction, modification, translation,
  22:Generated_Source\PSoC6/ADC.h **** * compilation, or representation of this Software except as specified
  23:Generated_Source\PSoC6/ADC.h **** * above is prohibited without the express written permission of Cypress.
  24:Generated_Source\PSoC6/ADC.h **** * Disclaimer: THIS SOFTWARE IS PROVIDED AS-IS, WITH NO
  25:Generated_Source\PSoC6/ADC.h **** * WARRANTY OF ANY KIND, EXPRESS OR IMPLIED, INCLUDING,
ARM GAS  C:\Users\xhuli\AppData\Local\Temp\ccrNCJrA.s 			page 10


  26:Generated_Source\PSoC6/ADC.h **** * BUT NOT LIMITED TO, NONINFRINGEMENT, IMPLIED
  27:Generated_Source\PSoC6/ADC.h **** * WARRANTIES OF MERCHANTABILITY AND FITNESS FOR A
  28:Generated_Source\PSoC6/ADC.h **** * PARTICULAR PURPOSE. Cypress reserves the right to make
  29:Generated_Source\PSoC6/ADC.h **** * changes to the Software without notice. Cypress does not assume any
  30:Generated_Source\PSoC6/ADC.h **** * liability arising out of the application or use of the Software or any
  31:Generated_Source\PSoC6/ADC.h **** * product or circuit described in the Software. Cypress does not
  32:Generated_Source\PSoC6/ADC.h **** * authorize its products for use in any products where a malfunction or
  33:Generated_Source\PSoC6/ADC.h **** * failure of the Cypress product may reasonably be expected to result in
  34:Generated_Source\PSoC6/ADC.h **** * significant property damage, injury or death ("High Risk Product"). By
  35:Generated_Source\PSoC6/ADC.h **** * including Cypress's product in a High Risk Product, the manufacturer
  36:Generated_Source\PSoC6/ADC.h **** * of such system or application assumes all risk of such use and in doing
  37:Generated_Source\PSoC6/ADC.h **** * so agrees to indemnify Cypress against all liability.
  38:Generated_Source\PSoC6/ADC.h **** *******************************************************************************/
  39:Generated_Source\PSoC6/ADC.h **** #if !defined(CY_ADC_H)
  40:Generated_Source\PSoC6/ADC.h **** #define CY_ADC_H
  41:Generated_Source\PSoC6/ADC.h **** 
  42:Generated_Source\PSoC6/ADC.h **** #include <cy_device_headers.h>
  43:Generated_Source\PSoC6/ADC.h **** #include <sar/cy_sar.h>
  44:Generated_Source\PSoC6/ADC.h **** 
  45:Generated_Source\PSoC6/ADC.h **** #define ADC_VREF_ROUTED                  ((0) == 1u)
  46:Generated_Source\PSoC6/ADC.h **** #if (ADC_VREF_ROUTED)
  47:Generated_Source\PSoC6/ADC.h **** #include "ADC_vrefAMux.h"
  48:Generated_Source\PSoC6/ADC.h **** #endif
  49:Generated_Source\PSoC6/ADC.h **** 
  50:Generated_Source\PSoC6/ADC.h **** #define ADC_CLOCK_INTERNAL               ((1) == 1u)
  51:Generated_Source\PSoC6/ADC.h **** #if (ADC_CLOCK_INTERNAL)
  52:Generated_Source\PSoC6/ADC.h **** #include "ADC_intSarClock.h"
  53:Generated_Source\PSoC6/ADC.h **** #endif /* ADC_CLOCK_INTERNAL */
  54:Generated_Source\PSoC6/ADC.h **** 
  55:Generated_Source\PSoC6/ADC.h **** /**
  56:Generated_Source\PSoC6/ADC.h **** * \addtogroup group_structures
  57:Generated_Source\PSoC6/ADC.h **** *
  58:Generated_Source\PSoC6/ADC.h **** */
  59:Generated_Source\PSoC6/ADC.h **** typedef struct
  60:Generated_Source\PSoC6/ADC.h **** {
  61:Generated_Source\PSoC6/ADC.h ****     uint32_t channelBase;                   /* Start of channels for the configuration */
  62:Generated_Source\PSoC6/ADC.h ****     uint32_t numChannels;                   /* Number of channels in the configuration */
  63:Generated_Source\PSoC6/ADC.h ****     const cy_stc_sar_config_t *hwConfigStc; /* PDL structure */
  64:Generated_Source\PSoC6/ADC.h ****     uint32_t miscConfig;                    /* Miscellaneous configuration bits broken down as foll
  65:Generated_Source\PSoC6/ADC.h ****                                             [0] - Freerunning: Set if the sample mode is freerunnin
  66:Generated_Source\PSoC6/ADC.h ****                                             [2] - Mux Switch 0: Set when VSSA is used for the neg i
  67:Generated_Source\PSoC6/ADC.h ****                                             */
  68:Generated_Source\PSoC6/ADC.h **** #if (ADC_CLOCK_INTERNAL)
  69:Generated_Source\PSoC6/ADC.h ****     uint32_t clkDivider;                    /* Clock divider */
  70:Generated_Source\PSoC6/ADC.h **** #endif /* ADC_CLOCK_INTERNAL */
  71:Generated_Source\PSoC6/ADC.h **** 
  72:Generated_Source\PSoC6/ADC.h **** } ADC_CONFIG_STRUCT;
  73:Generated_Source\PSoC6/ADC.h **** /** @} structures */
  74:Generated_Source\PSoC6/ADC.h **** 
  75:Generated_Source\PSoC6/ADC.h **** /*******************************************************************************
  76:Generated_Source\PSoC6/ADC.h **** * Function Prototypes
  77:Generated_Source\PSoC6/ADC.h **** *******************************************************************************/
  78:Generated_Source\PSoC6/ADC.h **** void ADC_SelectConfig(uint32_t config, uint32_t restart);
  79:Generated_Source\PSoC6/ADC.h **** void ADC_InitConfig(const ADC_CONFIG_STRUCT *config);
  80:Generated_Source\PSoC6/ADC.h **** void ADC_Init(void);
  81:Generated_Source\PSoC6/ADC.h **** __STATIC_INLINE void ADC_Enable(void);
  82:Generated_Source\PSoC6/ADC.h **** 
ARM GAS  C:\Users\xhuli\AppData\Local\Temp\ccrNCJrA.s 			page 11


  83:Generated_Source\PSoC6/ADC.h **** /**
  84:Generated_Source\PSoC6/ADC.h **** * \addtogroup group_general
  85:Generated_Source\PSoC6/ADC.h **** * @{
  86:Generated_Source\PSoC6/ADC.h **** */
  87:Generated_Source\PSoC6/ADC.h **** void ADC_Start(void);
  88:Generated_Source\PSoC6/ADC.h **** void ADC_StartEx(cy_israddress userIsr);
  89:Generated_Source\PSoC6/ADC.h **** __STATIC_INLINE void ADC_Stop(void);
  90:Generated_Source\PSoC6/ADC.h **** void ADC_StartConvert(void);
  91:Generated_Source\PSoC6/ADC.h **** __STATIC_INLINE void ADC_StopConvert(void);
  92:Generated_Source\PSoC6/ADC.h **** void ADC_SetConvertMode(cy_en_sar_start_convert_sel_t mode);
  93:Generated_Source\PSoC6/ADC.h **** void ADC_SetEosMask(uint32_t mask);
  94:Generated_Source\PSoC6/ADC.h **** uint32_t ADC_IsEndConversion(cy_en_sar_return_mode_t retMode);
  95:Generated_Source\PSoC6/ADC.h **** __STATIC_INLINE int16_t ADC_GetResult16(uint32_t chan);
  96:Generated_Source\PSoC6/ADC.h **** __STATIC_INLINE int32_t ADC_GetResult32(uint32_t chan);
  97:Generated_Source\PSoC6/ADC.h **** __STATIC_INLINE void ADC_SetLowLimit(uint32_t lowLimit);
  98:Generated_Source\PSoC6/ADC.h **** __STATIC_INLINE void ADC_SetHighLimit(uint32_t highLimit);
  99:Generated_Source\PSoC6/ADC.h **** __STATIC_INLINE void ADC_SetLimitMask(uint32_t limitMask);
 100:Generated_Source\PSoC6/ADC.h **** __STATIC_INLINE void ADC_SetSatMask(uint32_t satMask);
 101:Generated_Source\PSoC6/ADC.h **** __STATIC_INLINE cy_en_sar_status_t ADC_SetOffset(uint32_t chan, int16_t offset);
 102:Generated_Source\PSoC6/ADC.h **** __STATIC_INLINE cy_en_sar_status_t ADC_SetGain(uint32_t chan, int32_t adcGain);
 103:Generated_Source\PSoC6/ADC.h **** __STATIC_INLINE float32_t ADC_CountsTo_Volts(uint32_t chan, int16_t adcCounts);
 104:Generated_Source\PSoC6/ADC.h **** __STATIC_INLINE int16_t ADC_CountsTo_mVolts(uint32_t chan, int16_t adcCounts);
 105:Generated_Source\PSoC6/ADC.h **** __STATIC_INLINE int32_t ADC_CountsTo_uVolts(uint32_t chan, int16_t adcCounts);
 106:Generated_Source\PSoC6/ADC.h **** 
 107:Generated_Source\PSoC6/ADC.h **** /** @} general */
 108:Generated_Source\PSoC6/ADC.h **** 
 109:Generated_Source\PSoC6/ADC.h **** void ADC_SetChanMask(uint32_t enableMask);
 110:Generated_Source\PSoC6/ADC.h **** 
 111:Generated_Source\PSoC6/ADC.h **** /**
 112:Generated_Source\PSoC6/ADC.h **** * \addtogroup group_power
 113:Generated_Source\PSoC6/ADC.h **** * @{
 114:Generated_Source\PSoC6/ADC.h **** */
 115:Generated_Source\PSoC6/ADC.h **** __STATIC_INLINE void ADC_Sleep(void);
 116:Generated_Source\PSoC6/ADC.h **** __STATIC_INLINE void ADC_Wakeup(void);
 117:Generated_Source\PSoC6/ADC.h **** 
 118:Generated_Source\PSoC6/ADC.h **** /** @} power */
 119:Generated_Source\PSoC6/ADC.h **** 
 120:Generated_Source\PSoC6/ADC.h **** /**
 121:Generated_Source\PSoC6/ADC.h **** * \addtogroup group_interrupt
 122:Generated_Source\PSoC6/ADC.h **** * @{
 123:Generated_Source\PSoC6/ADC.h **** */
 124:Generated_Source\PSoC6/ADC.h **** void ADC_ISR(void);
 125:Generated_Source\PSoC6/ADC.h **** void ADC_IRQ_Enable(void);
 126:Generated_Source\PSoC6/ADC.h **** void ADC_IRQ_Disable(void);
 127:Generated_Source\PSoC6/ADC.h **** 
 128:Generated_Source\PSoC6/ADC.h **** /** @} interrupt */
 129:Generated_Source\PSoC6/ADC.h **** 
 130:Generated_Source\PSoC6/ADC.h **** /*******************************************************************************
 131:Generated_Source\PSoC6/ADC.h ****                                   Parameters
 132:Generated_Source\PSoC6/ADC.h **** The parameters that are set in the customizer are redefined as constants here.
 133:Generated_Source\PSoC6/ADC.h **** *******************************************************************************/
 134:Generated_Source\PSoC6/ADC.h **** 
 135:Generated_Source\PSoC6/ADC.h **** /*  Sample Mode setting constants */
 136:Generated_Source\PSoC6/ADC.h **** #define ADC_TOTAL_CONFIGS                (1ul)
 137:Generated_Source\PSoC6/ADC.h **** 
 138:Generated_Source\PSoC6/ADC.h **** /* ************************************************************************** */
 139:Generated_Source\PSoC6/ADC.h **** /* Begin configuration 0 customizer defines                                   */
ARM GAS  C:\Users\xhuli\AppData\Local\Temp\ccrNCJrA.s 			page 12


 140:Generated_Source\PSoC6/ADC.h **** /* ************************************************************************** */
 141:Generated_Source\PSoC6/ADC.h **** 
 142:Generated_Source\PSoC6/ADC.h **** #define ADC_CFG0_SAMPLE_RATE             (500)
 143:Generated_Source\PSoC6/ADC.h **** #define ADC_CFG0_CHANNEL_BASE            (0u)
 144:Generated_Source\PSoC6/ADC.h **** #define ADC_CFG0_CHANNEL_COUNT           (1u)
 145:Generated_Source\PSoC6/ADC.h **** #define ADC_CFG0_VREF_SEL_MASK           (0x70u)
 146:Generated_Source\PSoC6/ADC.h **** #define ADC_CFG0_NOMINAL_CLOCK_FREQ      (1724137u)
 147:Generated_Source\PSoC6/ADC.h **** #define ADC_CFG0_CHANNEL_EN              (0x1u)
 148:Generated_Source\PSoC6/ADC.h **** 
 149:Generated_Source\PSoC6/ADC.h **** /* Sample Control Register */
 150:Generated_Source\PSoC6/ADC.h **** #define ADC_CFG0_SINGLE_ENDED_FORMAT     (0uL)
 151:Generated_Source\PSoC6/ADC.h **** #define ADC_CFG0_DIFFERENTIAL_FORMAT     (0uL)
 152:Generated_Source\PSoC6/ADC.h **** #define ADC_CFG0_SAMPLES_AVERAGED        (7uL)
 153:Generated_Source\PSoC6/ADC.h **** #define ADC_CFG0_RANGE_INTR_MASK         (0x0u)
 154:Generated_Source\PSoC6/ADC.h **** #define ADC_CFG0_SATURATE_INTR_MASK      (0x0u)
 155:Generated_Source\PSoC6/ADC.h **** #define ADC_CFG0_VNEG_INPUT_SEL          (7)
 156:Generated_Source\PSoC6/ADC.h **** #define ADC_CFG0_SINGLE_PRESENT          (1)
 157:Generated_Source\PSoC6/ADC.h **** #define ADC_CFG0_VREF_MV_VALUE           (3300)
 158:Generated_Source\PSoC6/ADC.h **** #define ADC_CFG0_APERTURE_TIME0          (1023uL)
 159:Generated_Source\PSoC6/ADC.h **** #define ADC_CFG0_APERTURE_TIME1          (2uL)
 160:Generated_Source\PSoC6/ADC.h **** #define ADC_CFG0_APERTURE_TIME2          (2uL)
 161:Generated_Source\PSoC6/ADC.h **** #define ADC_CFG0_APERTURE_TIME3          (2uL)
 162:Generated_Source\PSoC6/ADC.h **** #define ADC_CFG0_FREERUNNING             (1u)
 163:Generated_Source\PSoC6/ADC.h **** #define ADC_CFG0_AVGERAGING_MODE         (1uL)
 164:Generated_Source\PSoC6/ADC.h **** #define ADC_CFG0_LOW_LIMIT               (512u)
 165:Generated_Source\PSoC6/ADC.h **** #define ADC_CFG0_HIGH_LIMIT              (3584u)
 166:Generated_Source\PSoC6/ADC.h **** #define ADC_CFG0_RANGE_COND              (1uL)
 167:Generated_Source\PSoC6/ADC.h **** #define ADC_CFG0_USE_SOC                 (0uL)
 168:Generated_Source\PSoC6/ADC.h **** #define ADC_CFG0_VREF_PWR                (6uL)
 169:Generated_Source\PSoC6/ADC.h **** #define ADC_CFG0_COMP_PWR                (6uL)
 170:Generated_Source\PSoC6/ADC.h **** #define ADC_CFG0_COMP_DLY                (3uL)
 171:Generated_Source\PSoC6/ADC.h **** 
 172:Generated_Source\PSoC6/ADC.h **** /* Clock parameters*/
 173:Generated_Source\PSoC6/ADC.h **** #if (ADC_CLOCK_INTERNAL)
 174:Generated_Source\PSoC6/ADC.h ****     #define ADC_CFG0_CLOCKDIVIDER        (((CYDEV_CLK_PERICLK__HZ) / (ADC_CFG0_NOMINAL_CLOCK_FREQ))
 175:Generated_Source\PSoC6/ADC.h **** #endif /* (ADC_CLOCK_INTERNAL) */
 176:Generated_Source\PSoC6/ADC.h **** 
 177:Generated_Source\PSoC6/ADC.h **** /* ************************************************************************** */
 178:Generated_Source\PSoC6/ADC.h **** /* End configuration 0 customizer defines                                     */
 179:Generated_Source\PSoC6/ADC.h **** /* ************************************************************************** */
 180:Generated_Source\PSoC6/ADC.h **** 
 181:Generated_Source\PSoC6/ADC.h **** /* ************************************************************************** */
 182:Generated_Source\PSoC6/ADC.h **** /* Begin configuration 1 customizer defines                                   */
 183:Generated_Source\PSoC6/ADC.h **** /* ************************************************************************** */
 184:Generated_Source\PSoC6/ADC.h **** 
 185:Generated_Source\PSoC6/ADC.h **** #if(ADC_TOTAL_CONFIGS > 1)
 186:Generated_Source\PSoC6/ADC.h ****     #define ADC_CFG1_SAMPLE_RATE             ()
 187:Generated_Source\PSoC6/ADC.h ****     #define ADC_CFG1_CHANNEL_BASE            (u)
 188:Generated_Source\PSoC6/ADC.h ****     #define ADC_CFG1_CHANNEL_COUNT           (u)
 189:Generated_Source\PSoC6/ADC.h ****     #define ADC_CFG1_VREF_SEL_MASK           (u)
 190:Generated_Source\PSoC6/ADC.h ****     #define ADC_CFG1_NOMINAL_CLOCK_FREQ      (u)
 191:Generated_Source\PSoC6/ADC.h ****     #define ADC_CFG1_CHANNEL_EN              (u)
 192:Generated_Source\PSoC6/ADC.h **** 
 193:Generated_Source\PSoC6/ADC.h ****     /* Sample Control Register */
 194:Generated_Source\PSoC6/ADC.h ****     #define ADC_CFG1_SINGLE_ENDED_FORMAT     (uL)
 195:Generated_Source\PSoC6/ADC.h ****     #define ADC_CFG1_DIFFERENTIAL_FORMAT     (uL)
 196:Generated_Source\PSoC6/ADC.h ****     #define ADC_CFG1_SAMPLES_AVERAGED        (uL)
ARM GAS  C:\Users\xhuli\AppData\Local\Temp\ccrNCJrA.s 			page 13


 197:Generated_Source\PSoC6/ADC.h ****     #define ADC_CFG1_RANGE_INTR_MASK         (u)
 198:Generated_Source\PSoC6/ADC.h ****     #define ADC_CFG1_SATURATE_INTR_MASK      (u)
 199:Generated_Source\PSoC6/ADC.h ****     #define ADC_CFG1_VNEG_INPUT_SEL          ()
 200:Generated_Source\PSoC6/ADC.h ****     #define ADC_CFG1_SINGLE_PRESENT          ()
 201:Generated_Source\PSoC6/ADC.h ****     #define ADC_CFG1_VREF_MV_VALUE           ()
 202:Generated_Source\PSoC6/ADC.h ****     #define ADC_CFG1_APERTURE_TIME0          (uL)
 203:Generated_Source\PSoC6/ADC.h ****     #define ADC_CFG1_APERTURE_TIME1          (uL)
 204:Generated_Source\PSoC6/ADC.h ****     #define ADC_CFG1_APERTURE_TIME2          (uL)
 205:Generated_Source\PSoC6/ADC.h ****     #define ADC_CFG1_APERTURE_TIME3          (uL)
 206:Generated_Source\PSoC6/ADC.h ****     #define ADC_CFG1_FREERUNNING             (u)
 207:Generated_Source\PSoC6/ADC.h ****     #define ADC_CFG1_AVGERAGING_MODE         (uL)
 208:Generated_Source\PSoC6/ADC.h ****     #define ADC_CFG1_LOW_LIMIT               (u)
 209:Generated_Source\PSoC6/ADC.h ****     #define ADC_CFG1_HIGH_LIMIT              (u)
 210:Generated_Source\PSoC6/ADC.h ****     #define ADC_CFG1_RANGE_COND              (uL)
 211:Generated_Source\PSoC6/ADC.h ****     #define ADC_CFG1_USE_SOC                 (0uL)
 212:Generated_Source\PSoC6/ADC.h ****     #define ADC_CFG1_VREF_PWR                (uL)
 213:Generated_Source\PSoC6/ADC.h ****     #define ADC_CFG1_COMP_PWR                (uL)
 214:Generated_Source\PSoC6/ADC.h ****     #define ADC_CFG1_COMP_DLY                (uL)
 215:Generated_Source\PSoC6/ADC.h **** 
 216:Generated_Source\PSoC6/ADC.h ****     /* Clock parameters*/
 217:Generated_Source\PSoC6/ADC.h ****     #if (ADC_CLOCK_INTERNAL)
 218:Generated_Source\PSoC6/ADC.h ****         #define ADC_CFG1_CLOCKDIVIDER        (((CYDEV_CLK_PERICLK__HZ) / (ADC_CFG1_NOMINAL_CLOCK_FR
 219:Generated_Source\PSoC6/ADC.h ****     #endif /* (ADC_CLOCK_INTERNAL) */
 220:Generated_Source\PSoC6/ADC.h **** #endif /* #if(ADC_TOTAL_CONFIGS > 1) */
 221:Generated_Source\PSoC6/ADC.h **** 
 222:Generated_Source\PSoC6/ADC.h **** /* ************************************************************************** */
 223:Generated_Source\PSoC6/ADC.h **** /* End configuration 1 customizer defines                                     */
 224:Generated_Source\PSoC6/ADC.h **** /* ************************************************************************** */
 225:Generated_Source\PSoC6/ADC.h **** 
 226:Generated_Source\PSoC6/ADC.h **** /* ************************************************************************** */
 227:Generated_Source\PSoC6/ADC.h **** /* Begin configuration 2 customizer defines                                         */
 228:Generated_Source\PSoC6/ADC.h **** /* ************************************************************************** */
 229:Generated_Source\PSoC6/ADC.h **** 
 230:Generated_Source\PSoC6/ADC.h **** #if(ADC_TOTAL_CONFIGS > 2)
 231:Generated_Source\PSoC6/ADC.h ****     #define ADC_CFG2_SAMPLE_RATE             ()
 232:Generated_Source\PSoC6/ADC.h ****     #define ADC_CFG2_CHANNEL_BASE            (u)
 233:Generated_Source\PSoC6/ADC.h ****     #define ADC_CFG2_CHANNEL_COUNT           (u)
 234:Generated_Source\PSoC6/ADC.h ****     #define ADC_CFG2_VREF_SEL_MASK           (u)
 235:Generated_Source\PSoC6/ADC.h ****     #define ADC_CFG2_NOMINAL_CLOCK_FREQ      (u)
 236:Generated_Source\PSoC6/ADC.h ****     #define ADC_CFG2_CHANNEL_EN              (u)
 237:Generated_Source\PSoC6/ADC.h **** 
 238:Generated_Source\PSoC6/ADC.h ****     /* Sample Control Register */
 239:Generated_Source\PSoC6/ADC.h ****     #define ADC_CFG2_SINGLE_ENDED_FORMAT     (uL)
 240:Generated_Source\PSoC6/ADC.h ****     #define ADC_CFG2_DIFFERENTIAL_FORMAT     (uL)
 241:Generated_Source\PSoC6/ADC.h ****     #define ADC_CFG2_SAMPLES_AVERAGED        (uL)
 242:Generated_Source\PSoC6/ADC.h ****     #define ADC_CFG2_RANGE_INTR_MASK         (u)
 243:Generated_Source\PSoC6/ADC.h ****     #define ADC_CFG2_SATURATE_INTR_MASK      (u)
 244:Generated_Source\PSoC6/ADC.h ****     #define ADC_CFG2_VNEG_INPUT_SEL          ()
 245:Generated_Source\PSoC6/ADC.h ****     #define ADC_CFG2_SINGLE_PRESENT          ()
 246:Generated_Source\PSoC6/ADC.h ****     #define ADC_CFG2_VREF_MV_VALUE           ()
 247:Generated_Source\PSoC6/ADC.h ****     #define ADC_CFG2_APERTURE_TIME0          (uL)
 248:Generated_Source\PSoC6/ADC.h ****     #define ADC_CFG2_APERTURE_TIME1          (uL)
 249:Generated_Source\PSoC6/ADC.h ****     #define ADC_CFG2_APERTURE_TIME2          (uL)
 250:Generated_Source\PSoC6/ADC.h ****     #define ADC_CFG2_APERTURE_TIME3          (uL)
 251:Generated_Source\PSoC6/ADC.h ****     #define ADC_CFG2_FREERUNNING             (u)
 252:Generated_Source\PSoC6/ADC.h ****     #define ADC_CFG2_AVGERAGING_MODE         (uL)
 253:Generated_Source\PSoC6/ADC.h ****     #define ADC_CFG2_LOW_LIMIT               (u)
ARM GAS  C:\Users\xhuli\AppData\Local\Temp\ccrNCJrA.s 			page 14


 254:Generated_Source\PSoC6/ADC.h ****     #define ADC_CFG2_HIGH_LIMIT              (u)
 255:Generated_Source\PSoC6/ADC.h ****     #define ADC_CFG2_RANGE_COND              (uL)
 256:Generated_Source\PSoC6/ADC.h ****     #define ADC_CFG2_USE_SOC                 (0uL)
 257:Generated_Source\PSoC6/ADC.h ****     #define ADC_CFG2_VREF_PWR                (uL)
 258:Generated_Source\PSoC6/ADC.h ****     #define ADC_CFG2_COMP_PWR                (uL)
 259:Generated_Source\PSoC6/ADC.h ****     #define ADC_CFG2_COMP_DLY                (uL)
 260:Generated_Source\PSoC6/ADC.h **** 
 261:Generated_Source\PSoC6/ADC.h ****     /* Clock parameters*/
 262:Generated_Source\PSoC6/ADC.h ****     #if (ADC_CLOCK_INTERNAL)
 263:Generated_Source\PSoC6/ADC.h ****         #define ADC_CFG2_CLOCKDIVIDER        (((CYDEV_CLK_PERICLK__HZ) / (ADC_CFG2_NOMINAL_CLOCK_FR
 264:Generated_Source\PSoC6/ADC.h ****     #endif /* (ADC_CLOCK_INTERNAL) */
 265:Generated_Source\PSoC6/ADC.h **** #endif /* (ADC_TOTAL_CONFIGS > 2) */
 266:Generated_Source\PSoC6/ADC.h **** 
 267:Generated_Source\PSoC6/ADC.h **** 
 268:Generated_Source\PSoC6/ADC.h **** /* ************************************************************************** */
 269:Generated_Source\PSoC6/ADC.h **** /* End configuration 2 customizer defines                                     */
 270:Generated_Source\PSoC6/ADC.h **** /* ************************************************************************** */
 271:Generated_Source\PSoC6/ADC.h **** 
 272:Generated_Source\PSoC6/ADC.h **** /* ************************************************************************** */
 273:Generated_Source\PSoC6/ADC.h **** /* Begin configuration 3 customizer defines                                   */
 274:Generated_Source\PSoC6/ADC.h **** /* ************************************************************************** */
 275:Generated_Source\PSoC6/ADC.h **** #if(ADC_TOTAL_CONFIGS > 3)
 276:Generated_Source\PSoC6/ADC.h ****     #define ADC_CFG3_SAMPLE_RATE             ()
 277:Generated_Source\PSoC6/ADC.h ****     #define ADC_CFG3_CHANNEL_BASE            (u)
 278:Generated_Source\PSoC6/ADC.h ****     #define ADC_CFG3_CHANNEL_COUNT           (u)
 279:Generated_Source\PSoC6/ADC.h ****     #define ADC_CFG3_VREF_SEL_MASK           (u)
 280:Generated_Source\PSoC6/ADC.h ****     #define ADC_CFG3_NOMINAL_CLOCK_FREQ      (u)
 281:Generated_Source\PSoC6/ADC.h ****     #define ADC_CFG3_CHANNEL_EN              (u)
 282:Generated_Source\PSoC6/ADC.h **** 
 283:Generated_Source\PSoC6/ADC.h ****     /* Sample Control Register */
 284:Generated_Source\PSoC6/ADC.h ****     #define ADC_CFG3_SINGLE_ENDED_FORMAT     (uL)
 285:Generated_Source\PSoC6/ADC.h ****     #define ADC_CFG3_DIFFERENTIAL_FORMAT     (uL)
 286:Generated_Source\PSoC6/ADC.h ****     #define ADC_CFG3_SAMPLES_AVERAGED        (uL)
 287:Generated_Source\PSoC6/ADC.h ****     #define ADC_CFG3_RANGE_INTR_MASK         (u)
 288:Generated_Source\PSoC6/ADC.h ****     #define ADC_CFG3_SATURATE_INTR_MASK      (u)
 289:Generated_Source\PSoC6/ADC.h ****     #define ADC_CFG3_VNEG_INPUT_SEL          ()
 290:Generated_Source\PSoC6/ADC.h ****     #define ADC_CFG3_SINGLE_PRESENT          ()
 291:Generated_Source\PSoC6/ADC.h ****     #define ADC_CFG3_VREF_MV_VALUE           ()
 292:Generated_Source\PSoC6/ADC.h ****     #define ADC_CFG3_APERTURE_TIME0          (uL)
 293:Generated_Source\PSoC6/ADC.h ****     #define ADC_CFG3_APERTURE_TIME1          (uL)
 294:Generated_Source\PSoC6/ADC.h ****     #define ADC_CFG3_APERTURE_TIME2          (uL)
 295:Generated_Source\PSoC6/ADC.h ****     #define ADC_CFG3_APERTURE_TIME3          (uL)
 296:Generated_Source\PSoC6/ADC.h ****     #define ADC_CFG3_FREERUNNING             (u)
 297:Generated_Source\PSoC6/ADC.h ****     #define ADC_CFG3_AVGERAGING_MODE         (uL)
 298:Generated_Source\PSoC6/ADC.h ****     #define ADC_CFG3_LOW_LIMIT               (u)
 299:Generated_Source\PSoC6/ADC.h ****     #define ADC_CFG3_HIGH_LIMIT              (u)
 300:Generated_Source\PSoC6/ADC.h ****     #define ADC_CFG3_RANGE_COND              (uL)
 301:Generated_Source\PSoC6/ADC.h ****     #define ADC_CFG3_USE_SOC                 (0uL)
 302:Generated_Source\PSoC6/ADC.h ****     #define ADC_CFG3_VREF_PWR                (uL)
 303:Generated_Source\PSoC6/ADC.h ****     #define ADC_CFG3_COMP_PWR                (uL)
 304:Generated_Source\PSoC6/ADC.h ****     #define ADC_CFG3_COMP_DLY                (uL)
 305:Generated_Source\PSoC6/ADC.h **** 
 306:Generated_Source\PSoC6/ADC.h ****     /* Clock parameters*/
 307:Generated_Source\PSoC6/ADC.h ****     #if (ADC_CLOCK_INTERNAL)
 308:Generated_Source\PSoC6/ADC.h ****         #define ADC_CFG3_CLOCKDIVIDER        (((CYDEV_CLK_PERICLK__HZ) / (ADC_CFG3_NOMINAL_CLOCK_FR
 309:Generated_Source\PSoC6/ADC.h ****     #endif /* (ADC_CLOCK_INTERNAL) */
 310:Generated_Source\PSoC6/ADC.h **** #endif /* (ADC_TOTAL_CONFIGS > 3) */
ARM GAS  C:\Users\xhuli\AppData\Local\Temp\ccrNCJrA.s 			page 15


 311:Generated_Source\PSoC6/ADC.h **** 
 312:Generated_Source\PSoC6/ADC.h **** /* ************************************************************************** */
 313:Generated_Source\PSoC6/ADC.h **** /* End configuration 3 customizer defines                                     */
 314:Generated_Source\PSoC6/ADC.h **** /* ************************************************************************** */
 315:Generated_Source\PSoC6/ADC.h **** 
 316:Generated_Source\PSoC6/ADC.h **** #define ADC_DEFAULT_SAMPLE_MODE_SEL      (0u)
 317:Generated_Source\PSoC6/ADC.h **** #define ADC_FREERUNNING                  (1u)
 318:Generated_Source\PSoC6/ADC.h **** #define ADC_HARDWARESOC                  (1u)
 319:Generated_Source\PSoC6/ADC.h **** #define ADC_NEG_SEL_VSSA_KELVIN          (0x0uL)
 320:Generated_Source\PSoC6/ADC.h **** #define ADC_NEG_SEL_VREF                 (0x7uL)
 321:Generated_Source\PSoC6/ADC.h **** #define ADC_PWR_CTRL_VREF_NORMAL_PWR     (0x0uL)
 322:Generated_Source\PSoC6/ADC.h **** 
 323:Generated_Source\PSoC6/ADC.h **** /** ADC_TOTAL_CHANNELS_NUM
 324:Generated_Source\PSoC6/ADC.h **** * This constant represents the number of input channels available for scanning.
 325:Generated_Source\PSoC6/ADC.h **** */
 326:Generated_Source\PSoC6/ADC.h **** #define ADC_TOTAL_CHANNELS_NUM           (1u)
 327:Generated_Source\PSoC6/ADC.h **** 
 328:Generated_Source\PSoC6/ADC.h **** /*******************************************************************************
 329:Generated_Source\PSoC6/ADC.h **** *    Variables with External Linkage
 330:Generated_Source\PSoC6/ADC.h **** *******************************************************************************/
 331:Generated_Source\PSoC6/ADC.h **** /**
 332:Generated_Source\PSoC6/ADC.h **** * \addtogroup group_globals
 333:Generated_Source\PSoC6/ADC.h **** * Globals are noted in the descriptions of the functions that use globals.
 334:Generated_Source\PSoC6/ADC.h **** * They are marked with (R), (W), or (RW) noting whether the variable is read,
 335:Generated_Source\PSoC6/ADC.h **** * write, or read/write.
 336:Generated_Source\PSoC6/ADC.h **** * @{
 337:Generated_Source\PSoC6/ADC.h **** */
 338:Generated_Source\PSoC6/ADC.h **** 
 339:Generated_Source\PSoC6/ADC.h **** /** ADC_initVar
 340:Generated_Source\PSoC6/ADC.h **** * The ADC_initVar variable is used to indicate
 341:Generated_Source\PSoC6/ADC.h **** * initial configuration of this component. The variable is initialized to zero and
 342:Generated_Source\PSoC6/ADC.h **** * set to 1 the first time ADC_Start() is called. This allows for
 343:Generated_Source\PSoC6/ADC.h **** * component initialization without reinitialization in all subsequent calls to the
 344:Generated_Source\PSoC6/ADC.h **** * ADC_Start() routine.
 345:Generated_Source\PSoC6/ADC.h **** *
 346:Generated_Source\PSoC6/ADC.h **** * If reinitialization of the component is required, then the ADC_Init() function
 347:Generated_Source\PSoC6/ADC.h **** * can be called before the ADC_Start() or ADC_Enable()
 348:Generated_Source\PSoC6/ADC.h **** * functions.
 349:Generated_Source\PSoC6/ADC.h **** */
 350:Generated_Source\PSoC6/ADC.h **** extern uint8_t ADC_initVar;
 351:Generated_Source\PSoC6/ADC.h **** extern uint8_t ADC_selected;
 352:Generated_Source\PSoC6/ADC.h **** extern uint32_t ADC_currentConfig;
 353:Generated_Source\PSoC6/ADC.h **** 
 354:Generated_Source\PSoC6/ADC.h **** #define ADC_INIT_VAR_INIT_FLAG     (0x01u)
 355:Generated_Source\PSoC6/ADC.h **** 
 356:Generated_Source\PSoC6/ADC.h **** extern const ADC_CONFIG_STRUCT ADC_allConfigs[ADC_TOTAL_CONFIGS];
 357:Generated_Source\PSoC6/ADC.h **** 
 358:Generated_Source\PSoC6/ADC.h **** /* SysPm callback structure for deep sleep entry and exit.
 359:Generated_Source\PSoC6/ADC.h ****  * Call the Cy_SysPm_RegisterCallback function with this
 360:Generated_Source\PSoC6/ADC.h ****  * structure before calling Cy_SysPm_DeepSleep.
 361:Generated_Source\PSoC6/ADC.h **** */
 362:Generated_Source\PSoC6/ADC.h **** extern cy_stc_syspm_callback_t ADC_DeepSleepCallbackStruct;
 363:Generated_Source\PSoC6/ADC.h **** 
 364:Generated_Source\PSoC6/ADC.h **** /** @} globals */
 365:Generated_Source\PSoC6/ADC.h **** 
 366:Generated_Source\PSoC6/ADC.h **** /* ************************************************************************** */
 367:Generated_Source\PSoC6/ADC.h **** /* *******************Global MUX_SWITCH0 Definitions ************************ */
ARM GAS  C:\Users\xhuli\AppData\Local\Temp\ccrNCJrA.s 			page 16


 368:Generated_Source\PSoC6/ADC.h **** /* ************************************************************************** */
 369:Generated_Source\PSoC6/ADC.h **** #if(ADC_CFG0_VNEG_INPUT_SEL == ADC_NEG_SEL_VSSA_KELVIN)
 370:Generated_Source\PSoC6/ADC.h ****     /* Do not connect VSSA to VMINUS when one channel in differential mode used */
 371:Generated_Source\PSoC6/ADC.h ****     #if((ADC_TOTAL_CHANNELS_NUM == 1u) && (ADC_CFG0_SINGLE_PRESENT == 0u))
 372:Generated_Source\PSoC6/ADC.h ****         #define ADC_MUX_SWITCH0_INIT      0u
 373:Generated_Source\PSoC6/ADC.h ****     #else    /* multiple channels or one single ended channel */
 374:Generated_Source\PSoC6/ADC.h ****         #define ADC_MUX_SWITCH0_INIT      1u
 375:Generated_Source\PSoC6/ADC.h ****     #endif /* ((ADC_TOTAL_CHANNELS_NUM == 1u) && (ADC_CFG0_SINGLE_PRESENT == 0u)) */
 376:Generated_Source\PSoC6/ADC.h **** #else
 377:Generated_Source\PSoC6/ADC.h ****     #define ADC_MUX_SWITCH0_INIT          0u
 378:Generated_Source\PSoC6/ADC.h **** #endif /* ADC_CFG0_VNEG_INPUT_SEL == ADC_NEG_SEL_VSSA_KELVIN */
 379:Generated_Source\PSoC6/ADC.h **** 
 380:Generated_Source\PSoC6/ADC.h **** /* ************************************************************************** */
 381:Generated_Source\PSoC6/ADC.h **** /* Begin configuration 0 calculated defines                                   */
 382:Generated_Source\PSoC6/ADC.h **** /* ************************************************************************** */
 383:Generated_Source\PSoC6/ADC.h **** #define ADC_CFG0_SAMPLE_TIME01_INIT \
 384:Generated_Source\PSoC6/ADC.h ****         ((ADC_CFG0_APERTURE_TIME0 \
 385:Generated_Source\PSoC6/ADC.h ****         << SAR_SAMPLE_TIME01_SAMPLE_TIME0_Pos) \
 386:Generated_Source\PSoC6/ADC.h ****         | (ADC_CFG0_APERTURE_TIME1 \
 387:Generated_Source\PSoC6/ADC.h ****         << SAR_SAMPLE_TIME01_SAMPLE_TIME1_Pos))
 388:Generated_Source\PSoC6/ADC.h **** 
 389:Generated_Source\PSoC6/ADC.h **** #define ADC_CFG0_SAMPLE_TIME23_INIT \
 390:Generated_Source\PSoC6/ADC.h ****         ((ADC_CFG0_APERTURE_TIME2 \
 391:Generated_Source\PSoC6/ADC.h ****         << SAR_SAMPLE_TIME23_SAMPLE_TIME2_Pos) \
 392:Generated_Source\PSoC6/ADC.h ****         | (ADC_CFG0_APERTURE_TIME3 \
 393:Generated_Source\PSoC6/ADC.h ****         << SAR_SAMPLE_TIME23_SAMPLE_TIME3_Pos))
 394:Generated_Source\PSoC6/ADC.h **** 
 395:Generated_Source\PSoC6/ADC.h **** /* Enable soc pin if used */
 396:Generated_Source\PSoC6/ADC.h **** #define ADC_CFG0_DSI_TRIGGER_EN_INIT \
 397:Generated_Source\PSoC6/ADC.h ****         (ADC_CFG0_USE_SOC \
 398:Generated_Source\PSoC6/ADC.h ****         << SAR_SAMPLE_CTRL_DSI_TRIGGER_EN_Pos)
 399:Generated_Source\PSoC6/ADC.h **** 
 400:Generated_Source\PSoC6/ADC.h **** /* Set soc operation to edge or level based on sample mode */
 401:Generated_Source\PSoC6/ADC.h **** #if(ADC_CFG0_FREERUNNING == ADC_FREERUNNING)
 402:Generated_Source\PSoC6/ADC.h ****     #define ADC_CFG0_DSI_TRIGGER_LEVEL_INIT    (SAR_SAMPLE_CTRL_DSI_TRIGGER_LEVEL_Msk)
 403:Generated_Source\PSoC6/ADC.h **** #else /* Edge trigger */
 404:Generated_Source\PSoC6/ADC.h ****     #define ADC_CFG0_DSI_TRIGGER_LEVEL_INIT    (0u)
 405:Generated_Source\PSoC6/ADC.h **** #endif /* End ADC_CFG0_FREERUNNING == ADC_FREERUNNING */
 406:Generated_Source\PSoC6/ADC.h **** 
 407:Generated_Source\PSoC6/ADC.h **** /* Set SE_NEG_INPUT */
 408:Generated_Source\PSoC6/ADC.h **** #if(ADC_CFG0_VNEG_INPUT_SEL == ADC_NEG_SEL_VSSA_KELVIN)
 409:Generated_Source\PSoC6/ADC.h ****     #define ADC_CFG0_SE_NEG_INPUT_INIT \
 410:Generated_Source\PSoC6/ADC.h ****             ((uint32)(ADC_NEG_SEL_VSSA_KELVIN \
 411:Generated_Source\PSoC6/ADC.h ****             << SAR_CTRL_NEG_SEL_Pos ))
 412:Generated_Source\PSoC6/ADC.h **** #elif(ADC_CFG0_VNEG_INPUT_SEL == ADC_NEG_SEL_VREF)
 413:Generated_Source\PSoC6/ADC.h **** 
 414:Generated_Source\PSoC6/ADC.h ****     /* Do not connect VNEG to VREF when one channel in differential mode used */
 415:Generated_Source\PSoC6/ADC.h ****     /* Only needed for config 0 since 2+ configs == 2+ channels */
 416:Generated_Source\PSoC6/ADC.h ****     #if((ADC_CFG0_CHANNEL_COUNT == 1u) && (ADC_CFG0_SINGLE_PRESENT == 0u))
 417:Generated_Source\PSoC6/ADC.h ****         #define ADC_CFG0_SE_NEG_INPUT_INIT     0u
 418:Generated_Source\PSoC6/ADC.h ****     #else    /* multiple channels or one single channel */
 419:Generated_Source\PSoC6/ADC.h ****         #define ADC_CFG0_SE_NEG_INPUT_INIT     (ADC_NEG_SEL_VREF \
 420:Generated_Source\PSoC6/ADC.h ****                                                             << SAR_CTRL_NEG_SEL_Pos )
 421:Generated_Source\PSoC6/ADC.h ****     #endif /* (ADC_CFG0_CHANNEL_COUNT == 1u) && (ADC_CFG0_CHANNELS_MODE != 0u) */
 422:Generated_Source\PSoC6/ADC.h **** #elif (ADC_CFG0_SINGLE_PRESENT != 0u)
 423:Generated_Source\PSoC6/ADC.h ****     #define ADC_CFG0_SE_NEG_INPUT_INIT         ADC_CFG0_NEG_OTHER
 424:Generated_Source\PSoC6/ADC.h **** #else
ARM GAS  C:\Users\xhuli\AppData\Local\Temp\ccrNCJrA.s 			page 17


 425:Generated_Source\PSoC6/ADC.h ****     #define ADC_CFG0_SE_NEG_INPUT_INIT         0u
 426:Generated_Source\PSoC6/ADC.h **** #endif /* ADC_CFG0_VNEG_INPUT_SEL == ADC_NEG_SEL_VSSA_KELVIN */
 427:Generated_Source\PSoC6/ADC.h **** 
 428:Generated_Source\PSoC6/ADC.h **** #if(ADC_TOTAL_CHANNELS_NUM > 1u)
 429:Generated_Source\PSoC6/ADC.h ****     #define ADC_CFG0_NEG_OTHER                 (uint16)((uint16)ADC_SARMUX__VNEG0 << SAR_CTRL_NEG_S
 430:Generated_Source\PSoC6/ADC.h ****     #define ADC_CFG0_SWITCH_CONF_INIT          0u
 431:Generated_Source\PSoC6/ADC.h **** #else /* Disable SAR sequencer from enabling routing switches in single channel mode */
 432:Generated_Source\PSoC6/ADC.h ****     #define ADC_CFG0_SWITCH_CONF_INIT          SAR_CTRL_SWITCH_DISABLE_Msk
 433:Generated_Source\PSoC6/ADC.h ****     #define ADC_CFG0_NEG_OTHER                 0u
 434:Generated_Source\PSoC6/ADC.h **** #endif /* ADC_CFG0_CHANNEL_COUNT > 1u */
 435:Generated_Source\PSoC6/ADC.h **** 
 436:Generated_Source\PSoC6/ADC.h **** /* If the SAR is configured for multiple channels, always set SAR_HW_CTRL_NEGVREF to 1 */
 437:Generated_Source\PSoC6/ADC.h **** #if(ADC_TOTAL_CHANNELS_NUM == 1u)
 438:Generated_Source\PSoC6/ADC.h ****     #define ADC_CFG0_HW_CTRL_NEGVREF_INIT      0u
 439:Generated_Source\PSoC6/ADC.h **** #else
 440:Generated_Source\PSoC6/ADC.h ****     #define ADC_CFG0_HW_CTRL_NEGVREF_INIT      SAR_CTRL_SAR_HW_CTRL_NEGVREF_Msk
 441:Generated_Source\PSoC6/ADC.h **** #endif /* ADC_CFG0_CHANNEL_COUNT == 1u */
 442:Generated_Source\PSoC6/ADC.h **** 
 443:Generated_Source\PSoC6/ADC.h **** #define ADC_CFG0_POWER_INIT  (ADC_PWR_CTRL_VREF_NORMAL_PWR)
 444:Generated_Source\PSoC6/ADC.h **** 
 445:Generated_Source\PSoC6/ADC.h **** /* SAMPLE_CTRL initial values */
 446:Generated_Source\PSoC6/ADC.h **** #define ADC_CFG0_SE_RESULT_FORMAT_INIT \
 447:Generated_Source\PSoC6/ADC.h ****         (ADC_CFG0_SINGLE_ENDED_FORMAT \
 448:Generated_Source\PSoC6/ADC.h ****         << SAR_SAMPLE_CTRL_SINGLE_ENDED_SIGNED_Pos)
 449:Generated_Source\PSoC6/ADC.h **** 
 450:Generated_Source\PSoC6/ADC.h **** #define ADC_CFG0_DIFF_RESULT_FORMAT_INIT \
 451:Generated_Source\PSoC6/ADC.h ****         (ADC_CFG0_DIFFERENTIAL_FORMAT \
 452:Generated_Source\PSoC6/ADC.h ****         << SAR_SAMPLE_CTRL_DIFFERENTIAL_SIGNED_Pos)
 453:Generated_Source\PSoC6/ADC.h **** 
 454:Generated_Source\PSoC6/ADC.h **** #define ADC_CFG0_AVG_SAMPLES_NUM_INIT \
 455:Generated_Source\PSoC6/ADC.h ****         (ADC_CFG0_SAMPLES_AVERAGED \
 456:Generated_Source\PSoC6/ADC.h ****         << SAR_SAMPLE_CTRL_AVG_CNT_Pos)
 457:Generated_Source\PSoC6/ADC.h **** 
 458:Generated_Source\PSoC6/ADC.h **** /* Combination of Average Mode and Average Shift */
 459:Generated_Source\PSoC6/ADC.h **** #define ADC_CFG0_AVG_MODE_INIT \
 460:Generated_Source\PSoC6/ADC.h ****         (ADC_CFG0_AVGERAGING_MODE \
 461:Generated_Source\PSoC6/ADC.h ****         << SAR_SAMPLE_CTRL_AVG_SHIFT_Pos)
 462:Generated_Source\PSoC6/ADC.h **** 
 463:Generated_Source\PSoC6/ADC.h **** #define ADC_CFG0_TRIGGER_OUT_INIT      (0u)
 464:Generated_Source\PSoC6/ADC.h **** #define ADC_CFG0_UAB_SCAN_MODE_INIT    (0u)
 465:Generated_Source\PSoC6/ADC.h **** 
 466:Generated_Source\PSoC6/ADC.h **** #define ADC_CFG0_VREF_POWER_INIT  \
 467:Generated_Source\PSoC6/ADC.h ****         (ADC_CFG0_VREF_PWR \
 468:Generated_Source\PSoC6/ADC.h ****         << SAR_CTRL_PWR_CTRL_VREF_Pos)
 469:Generated_Source\PSoC6/ADC.h **** 
 470:Generated_Source\PSoC6/ADC.h **** #define ADC_CFG0_COMP_PWR_INIT  \
 471:Generated_Source\PSoC6/ADC.h ****         (ADC_CFG0_COMP_PWR \
 472:Generated_Source\PSoC6/ADC.h ****         << SAR_CTRL_COMP_PWR_Pos)
 473:Generated_Source\PSoC6/ADC.h **** 
 474:Generated_Source\PSoC6/ADC.h **** #define ADC_CFG0_COMP_DLY_INIT  \
 475:Generated_Source\PSoC6/ADC.h ****         (ADC_CFG0_COMP_DLY \
 476:Generated_Source\PSoC6/ADC.h ****         << SAR_CTRL_COMP_DLY_Pos)
 477:Generated_Source\PSoC6/ADC.h **** 
 478:Generated_Source\PSoC6/ADC.h **** #define ADC_CFG0_CTRL_INIT  \
 479:Generated_Source\PSoC6/ADC.h ****         (ADC_CFG0_VREF_POWER_INIT \
 480:Generated_Source\PSoC6/ADC.h ****         | ADC_CFG0_VREF_SEL_MASK \
 481:Generated_Source\PSoC6/ADC.h ****         | ADC_CFG0_SE_NEG_INPUT_INIT \
ARM GAS  C:\Users\xhuli\AppData\Local\Temp\ccrNCJrA.s 			page 18


 482:Generated_Source\PSoC6/ADC.h ****         | ADC_CFG0_HW_CTRL_NEGVREF_INIT \
 483:Generated_Source\PSoC6/ADC.h ****         | ADC_CFG0_COMP_DLY_INIT \
 484:Generated_Source\PSoC6/ADC.h ****         | SAR_CTRL_REFBUF_EN_Msk \
 485:Generated_Source\PSoC6/ADC.h ****         | ADC_CFG0_COMP_PWR_INIT \
 486:Generated_Source\PSoC6/ADC.h ****         | SAR_CTRL_DSI_SYNC_CONFIG_Msk  \
 487:Generated_Source\PSoC6/ADC.h ****         | ADC_CFG0_SWITCH_CONF_INIT )
 488:Generated_Source\PSoC6/ADC.h **** 
 489:Generated_Source\PSoC6/ADC.h **** #define ADC_CFG0_SAMPLE_CTRL_INIT \
 490:Generated_Source\PSoC6/ADC.h ****         (ADC_CFG0_SE_RESULT_FORMAT_INIT \
 491:Generated_Source\PSoC6/ADC.h ****         | ADC_CFG0_DIFF_RESULT_FORMAT_INIT \
 492:Generated_Source\PSoC6/ADC.h ****         | ADC_CFG0_AVG_SAMPLES_NUM_INIT \
 493:Generated_Source\PSoC6/ADC.h ****         | ADC_CFG0_AVG_MODE_INIT \
 494:Generated_Source\PSoC6/ADC.h ****         | ADC_CFG0_DSI_TRIGGER_LEVEL_INIT \
 495:Generated_Source\PSoC6/ADC.h ****         | ADC_CFG0_DSI_TRIGGER_EN_INIT \
 496:Generated_Source\PSoC6/ADC.h ****         | ADC_CFG0_UAB_SCAN_MODE_INIT \
 497:Generated_Source\PSoC6/ADC.h ****         | SAR_SAMPLE_CTRL_VALID_IGNORE_Msk \
 498:Generated_Source\PSoC6/ADC.h ****         | ADC_CFG0_TRIGGER_OUT_INIT \
 499:Generated_Source\PSoC6/ADC.h ****         | SAR_SAMPLE_CTRL_EOS_DSI_OUT_EN_Msk \
 500:Generated_Source\PSoC6/ADC.h **** )
 501:Generated_Source\PSoC6/ADC.h **** 
 502:Generated_Source\PSoC6/ADC.h **** #define ADC_CFG0_RANGE_THRES_INIT \
 503:Generated_Source\PSoC6/ADC.h ****         (ADC_CFG0_LOW_LIMIT \
 504:Generated_Source\PSoC6/ADC.h ****         | (uint32)((uint32)ADC_CFG0_HIGH_LIMIT \
 505:Generated_Source\PSoC6/ADC.h ****         << SAR_RANGE_THRES_RANGE_HIGH_Pos))
 506:Generated_Source\PSoC6/ADC.h **** 
 507:Generated_Source\PSoC6/ADC.h **** #define ADC_CFG0_RANGE_COND_INIT   (cy_en_sar_range_detect_condition_t)ADC_CFG0_RANGE_COND
 508:Generated_Source\PSoC6/ADC.h **** 
 509:Generated_Source\PSoC6/ADC.h **** /* Misc Config
 510:Generated_Source\PSoC6/ADC.h ****     [0] - Freerunning: Set if the sample mode is freerunning
 511:Generated_Source\PSoC6/ADC.h **** */
 512:Generated_Source\PSoC6/ADC.h **** #define ADC_CFG0_MISC_CONFIG_INIT \
 513:Generated_Source\PSoC6/ADC.h ****         (ADC_CFG0_FREERUNNING)
 514:Generated_Source\PSoC6/ADC.h **** 
 515:Generated_Source\PSoC6/ADC.h **** /* ************************************************************************** */
 516:Generated_Source\PSoC6/ADC.h **** /* End configuration 0 calculated defines                                     */
 517:Generated_Source\PSoC6/ADC.h **** /* ************************************************************************** */
 518:Generated_Source\PSoC6/ADC.h **** 
 519:Generated_Source\PSoC6/ADC.h **** /* ************************************************************************** */
 520:Generated_Source\PSoC6/ADC.h **** /* Begin configuration 1 calculated defines                                   */
 521:Generated_Source\PSoC6/ADC.h **** /* ************************************************************************** */
 522:Generated_Source\PSoC6/ADC.h **** #if(ADC_TOTAL_CONFIGS > 1)
 523:Generated_Source\PSoC6/ADC.h ****     #define ADC_CFG1_SAMPLE_TIME01_INIT \
 524:Generated_Source\PSoC6/ADC.h ****             ((ADC_CFG1_APERTURE_TIME0 \
 525:Generated_Source\PSoC6/ADC.h ****             << SAR_SAMPLE_TIME01_SAMPLE_TIME0_Pos) \
 526:Generated_Source\PSoC6/ADC.h ****             | (ADC_CFG1_APERTURE_TIME1 \
 527:Generated_Source\PSoC6/ADC.h ****             << SAR_SAMPLE_TIME01_SAMPLE_TIME1_Pos))
 528:Generated_Source\PSoC6/ADC.h **** 
 529:Generated_Source\PSoC6/ADC.h ****     #define ADC_CFG1_SAMPLE_TIME23_INIT \
 530:Generated_Source\PSoC6/ADC.h ****             ((ADC_CFG1_APERTURE_TIME2 \
 531:Generated_Source\PSoC6/ADC.h ****             << SAR_SAMPLE_TIME23_SAMPLE_TIME2_Pos) \
 532:Generated_Source\PSoC6/ADC.h ****             | (ADC_CFG1_APERTURE_TIME3 \
 533:Generated_Source\PSoC6/ADC.h ****             << SAR_SAMPLE_TIME23_SAMPLE_TIME3_Pos))
 534:Generated_Source\PSoC6/ADC.h **** 
 535:Generated_Source\PSoC6/ADC.h ****     /* Enable soc pin if used */
 536:Generated_Source\PSoC6/ADC.h ****     #define ADC_CFG1_DSI_TRIGGER_EN_INIT \
 537:Generated_Source\PSoC6/ADC.h ****             (ADC_CFG1_USE_SOC \
 538:Generated_Source\PSoC6/ADC.h ****             << SAR_SAMPLE_CTRL_DSI_TRIGGER_EN_Pos)
ARM GAS  C:\Users\xhuli\AppData\Local\Temp\ccrNCJrA.s 			page 19


 539:Generated_Source\PSoC6/ADC.h **** 
 540:Generated_Source\PSoC6/ADC.h ****     /* Set soc operation to edge or level based on sample mode */
 541:Generated_Source\PSoC6/ADC.h ****     #if(ADC_CFG1_FREERUNNING == ADC_FREERUNNING)
 542:Generated_Source\PSoC6/ADC.h ****         #define ADC_CFG1_DSI_TRIGGER_LEVEL_INIT    (SAR_SAMPLE_CTRL_DSI_TRIGGER_LEVEL_Msk)
 543:Generated_Source\PSoC6/ADC.h ****     #else /* Edge trigger */
 544:Generated_Source\PSoC6/ADC.h ****         #define ADC_CFG1_DSI_TRIGGER_LEVEL_INIT    (0u)
 545:Generated_Source\PSoC6/ADC.h ****     #endif /* End ADC_CFG1_FREERUNNING == ADC_FREERUNNING */
 546:Generated_Source\PSoC6/ADC.h **** 
 547:Generated_Source\PSoC6/ADC.h ****     /* Set SE_NEG_INPUT */
 548:Generated_Source\PSoC6/ADC.h ****     #if(ADC_CFG1_VNEG_INPUT_SEL == ADC_NEG_SEL_VSSA_KELVIN)
 549:Generated_Source\PSoC6/ADC.h ****         #define ADC_CFG1_SE_NEG_INPUT_INIT \
 550:Generated_Source\PSoC6/ADC.h ****             ((uint32)(ADC_NEG_SEL_VSSA_KELVIN \
 551:Generated_Source\PSoC6/ADC.h ****             << SAR_CTRL_NEG_SEL_Pos ))
 552:Generated_Source\PSoC6/ADC.h ****     #elif(ADC_CFG1_VNEG_INPUT_SEL == ADC_NEG_SEL_VREF)
 553:Generated_Source\PSoC6/ADC.h ****         #define ADC_CFG1_SE_NEG_INPUT_INIT     (ADC_NEG_SEL_VREF \
 554:Generated_Source\PSoC6/ADC.h ****                                                             << SAR_CTRL_NEG_SEL_Pos )
 555:Generated_Source\PSoC6/ADC.h ****     #elif (ADC_CFG1_SINGLE_PRESENT != 0u)
 556:Generated_Source\PSoC6/ADC.h ****         #define ADC_CFG1_SE_NEG_INPUT_INIT         ADC_CFG1_NEG_OTHER
 557:Generated_Source\PSoC6/ADC.h ****     #else
 558:Generated_Source\PSoC6/ADC.h ****         #define ADC_CFG1_SE_NEG_INPUT_INIT         0u
 559:Generated_Source\PSoC6/ADC.h ****     #endif /* ADC_CFG1_VNEG_INPUT_SEL == ADC_NEG_SEL_VSSA_KELVIN */
 560:Generated_Source\PSoC6/ADC.h **** 
 561:Generated_Source\PSoC6/ADC.h ****     #define ADC_CFG1_NEG_OTHER                 (uint16)((uint16)ADC_SARMUX__VNEG1 << SAR_CTRL_NEG_S
 562:Generated_Source\PSoC6/ADC.h ****     #define ADC_CFG1_SWITCH_CONF_INIT          0u
 563:Generated_Source\PSoC6/ADC.h **** 
 564:Generated_Source\PSoC6/ADC.h ****     /* If the SAR is configured for multiple channels, always set SAR_HW_CTRL_NEGVREF to 1 */
 565:Generated_Source\PSoC6/ADC.h ****     #define ADC_CFG1_HW_CTRL_NEGVREF_INIT      SAR_CTRL_SAR_HW_CTRL_NEGVREF_Msk
 566:Generated_Source\PSoC6/ADC.h **** 
 567:Generated_Source\PSoC6/ADC.h ****     #define ADC_CFG1_POWER_INIT  (ADC_PWR_CTRL_VREF_NORMAL_PWR)
 568:Generated_Source\PSoC6/ADC.h **** 
 569:Generated_Source\PSoC6/ADC.h ****     /* SAMPLE_CTRL initial values */
 570:Generated_Source\PSoC6/ADC.h ****     #define ADC_CFG1_SE_RESULT_FORMAT_INIT \
 571:Generated_Source\PSoC6/ADC.h ****             (ADC_CFG1_SINGLE_ENDED_FORMAT \
 572:Generated_Source\PSoC6/ADC.h ****             << SAR_SAMPLE_CTRL_SINGLE_ENDED_SIGNED_Pos)
 573:Generated_Source\PSoC6/ADC.h **** 
 574:Generated_Source\PSoC6/ADC.h ****     #define ADC_CFG1_DIFF_RESULT_FORMAT_INIT \
 575:Generated_Source\PSoC6/ADC.h ****             (ADC_CFG1_DIFFERENTIAL_FORMAT \
 576:Generated_Source\PSoC6/ADC.h ****             << SAR_SAMPLE_CTRL_DIFFERENTIAL_SIGNED_Pos)
 577:Generated_Source\PSoC6/ADC.h **** 
 578:Generated_Source\PSoC6/ADC.h ****     #define ADC_CFG1_AVG_SAMPLES_NUM_INIT \
 579:Generated_Source\PSoC6/ADC.h ****             (ADC_CFG1_SAMPLES_AVERAGED \
 580:Generated_Source\PSoC6/ADC.h ****             << SAR_SAMPLE_CTRL_AVG_CNT_Pos)
 581:Generated_Source\PSoC6/ADC.h **** 
 582:Generated_Source\PSoC6/ADC.h ****     /* Combination of Average Mode and Average Shift */
 583:Generated_Source\PSoC6/ADC.h ****     #define ADC_CFG1_AVG_MODE_INIT \
 584:Generated_Source\PSoC6/ADC.h ****             (ADC_CFG1_AVGERAGING_MODE \
 585:Generated_Source\PSoC6/ADC.h ****             << SAR_SAMPLE_CTRL_AVG_SHIFT_Pos)
 586:Generated_Source\PSoC6/ADC.h **** 
 587:Generated_Source\PSoC6/ADC.h ****     #define ADC_CFG1_TRIGGER_OUT_INIT      (0u)
 588:Generated_Source\PSoC6/ADC.h ****     #define ADC_CFG1_UAB_SCAN_MODE_INIT    (0u)
 589:Generated_Source\PSoC6/ADC.h **** 
 590:Generated_Source\PSoC6/ADC.h ****     #define ADC_CFG1_VREF_POWER_INIT  \
 591:Generated_Source\PSoC6/ADC.h ****             (ADC_CFG1_VREF_PWR \
 592:Generated_Source\PSoC6/ADC.h ****             << SAR_CTRL_PWR_CTRL_VREF_Pos)
 593:Generated_Source\PSoC6/ADC.h **** 
 594:Generated_Source\PSoC6/ADC.h ****     #define ADC_CFG1_COMP_PWR_INIT  \
 595:Generated_Source\PSoC6/ADC.h ****             (ADC_CFG1_COMP_PWR \
ARM GAS  C:\Users\xhuli\AppData\Local\Temp\ccrNCJrA.s 			page 20


 596:Generated_Source\PSoC6/ADC.h ****             << SAR_CTRL_COMP_PWR_Pos)
 597:Generated_Source\PSoC6/ADC.h **** 
 598:Generated_Source\PSoC6/ADC.h ****     #define ADC_CFG1_COMP_DLY_INIT  \
 599:Generated_Source\PSoC6/ADC.h ****             (ADC_CFG1_COMP_DLY \
 600:Generated_Source\PSoC6/ADC.h ****             << SAR_CTRL_COMP_DLY_Pos)
 601:Generated_Source\PSoC6/ADC.h **** 
 602:Generated_Source\PSoC6/ADC.h ****     #define ADC_CFG1_CTRL_INIT  \
 603:Generated_Source\PSoC6/ADC.h ****             (ADC_CFG1_VREF_POWER_INIT \
 604:Generated_Source\PSoC6/ADC.h ****             | ADC_CFG1_VREF_SEL_MASK \
 605:Generated_Source\PSoC6/ADC.h ****             | ADC_CFG1_SE_NEG_INPUT_INIT \
 606:Generated_Source\PSoC6/ADC.h ****             | ADC_CFG1_HW_CTRL_NEGVREF_INIT \
 607:Generated_Source\PSoC6/ADC.h ****             | ADC_CFG1_COMP_DLY_INIT \
 608:Generated_Source\PSoC6/ADC.h ****             | SAR_CTRL_REFBUF_EN_Msk \
 609:Generated_Source\PSoC6/ADC.h ****             | ADC_CFG1_COMP_PWR_INIT \
 610:Generated_Source\PSoC6/ADC.h ****             | SAR_CTRL_DSI_SYNC_CONFIG_Msk  \
 611:Generated_Source\PSoC6/ADC.h ****             | ADC_CFG1_SWITCH_CONF_INIT )
 612:Generated_Source\PSoC6/ADC.h **** 
 613:Generated_Source\PSoC6/ADC.h ****     #define ADC_CFG1_SAMPLE_CTRL_INIT \
 614:Generated_Source\PSoC6/ADC.h ****             (ADC_CFG1_SE_RESULT_FORMAT_INIT \
 615:Generated_Source\PSoC6/ADC.h ****             | ADC_CFG1_DIFF_RESULT_FORMAT_INIT \
 616:Generated_Source\PSoC6/ADC.h ****             | ADC_CFG1_AVG_SAMPLES_NUM_INIT \
 617:Generated_Source\PSoC6/ADC.h ****             | ADC_CFG1_AVG_MODE_INIT \
 618:Generated_Source\PSoC6/ADC.h ****             | ADC_CFG1_DSI_TRIGGER_LEVEL_INIT \
 619:Generated_Source\PSoC6/ADC.h ****             | ADC_CFG1_DSI_TRIGGER_EN_INIT \
 620:Generated_Source\PSoC6/ADC.h ****             | ADC_CFG1_UAB_SCAN_MODE_INIT \
 621:Generated_Source\PSoC6/ADC.h ****             | SAR_SAMPLE_CTRL_VALID_IGNORE_Msk \
 622:Generated_Source\PSoC6/ADC.h ****             | ADC_CFG1_TRIGGER_OUT_INIT \
 623:Generated_Source\PSoC6/ADC.h ****             | SAR_SAMPLE_CTRL_EOS_DSI_OUT_EN_Msk \
 624:Generated_Source\PSoC6/ADC.h ****     )
 625:Generated_Source\PSoC6/ADC.h **** 
 626:Generated_Source\PSoC6/ADC.h ****     #define ADC_CFG1_RANGE_THRES_INIT \
 627:Generated_Source\PSoC6/ADC.h ****             (ADC_CFG1_LOW_LIMIT \
 628:Generated_Source\PSoC6/ADC.h ****             | (uint32)((uint32)ADC_CFG1_HIGH_LIMIT \
 629:Generated_Source\PSoC6/ADC.h ****             << SAR_RANGE_THRES_RANGE_HIGH_Pos))
 630:Generated_Source\PSoC6/ADC.h **** 
 631:Generated_Source\PSoC6/ADC.h ****     #define ADC_CFG1_RANGE_COND_INIT   (cy_en_sar_range_detect_condition_t)ADC_CFG1_RANGE_COND
 632:Generated_Source\PSoC6/ADC.h **** 
 633:Generated_Source\PSoC6/ADC.h ****     /* Misc Config
 634:Generated_Source\PSoC6/ADC.h ****         [0] - Freerunning: Set if the sample mode is freerunning
 635:Generated_Source\PSoC6/ADC.h ****     */
 636:Generated_Source\PSoC6/ADC.h ****     #define ADC_CFG1_MISC_CONFIG_INIT \
 637:Generated_Source\PSoC6/ADC.h ****             (ADC_CFG1_FREERUNNING)
 638:Generated_Source\PSoC6/ADC.h **** #endif /* ADC_TOTAL_CONFIGS > 1 */
 639:Generated_Source\PSoC6/ADC.h **** 
 640:Generated_Source\PSoC6/ADC.h **** /* ************************************************************************** */
 641:Generated_Source\PSoC6/ADC.h **** /* End configuration 1 calculated defines                                     */
 642:Generated_Source\PSoC6/ADC.h **** /* ************************************************************************** */
 643:Generated_Source\PSoC6/ADC.h **** 
 644:Generated_Source\PSoC6/ADC.h **** /* ************************************************************************** */
 645:Generated_Source\PSoC6/ADC.h **** /* Begin configuration 2 calculated defines                                   */
 646:Generated_Source\PSoC6/ADC.h **** /* ************************************************************************** */
 647:Generated_Source\PSoC6/ADC.h **** #if(ADC_TOTAL_CONFIGS > 2)
 648:Generated_Source\PSoC6/ADC.h ****     #define ADC_CFG2_SAMPLE_TIME01_INIT \
 649:Generated_Source\PSoC6/ADC.h ****             ((ADC_CFG2_APERTURE_TIME0 \
 650:Generated_Source\PSoC6/ADC.h ****             << SAR_SAMPLE_TIME01_SAMPLE_TIME0_Pos) \
 651:Generated_Source\PSoC6/ADC.h ****             | (ADC_CFG2_APERTURE_TIME1 \
 652:Generated_Source\PSoC6/ADC.h ****             << SAR_SAMPLE_TIME01_SAMPLE_TIME1_Pos))
ARM GAS  C:\Users\xhuli\AppData\Local\Temp\ccrNCJrA.s 			page 21


 653:Generated_Source\PSoC6/ADC.h **** 
 654:Generated_Source\PSoC6/ADC.h ****     #define ADC_CFG2_SAMPLE_TIME23_INIT \
 655:Generated_Source\PSoC6/ADC.h ****             ((ADC_CFG2_APERTURE_TIME2 \
 656:Generated_Source\PSoC6/ADC.h ****             << SAR_SAMPLE_TIME23_SAMPLE_TIME2_Pos) \
 657:Generated_Source\PSoC6/ADC.h ****             | (ADC_CFG2_APERTURE_TIME3 \
 658:Generated_Source\PSoC6/ADC.h ****             << SAR_SAMPLE_TIME23_SAMPLE_TIME3_Pos))
 659:Generated_Source\PSoC6/ADC.h **** 
 660:Generated_Source\PSoC6/ADC.h ****     /* Enable soc pin if used */
 661:Generated_Source\PSoC6/ADC.h ****     #define ADC_CFG2_DSI_TRIGGER_EN_INIT \
 662:Generated_Source\PSoC6/ADC.h ****             (ADC_CFG2_USE_SOC \
 663:Generated_Source\PSoC6/ADC.h ****             << SAR_SAMPLE_CTRL_DSI_TRIGGER_EN_Pos)
 664:Generated_Source\PSoC6/ADC.h **** 
 665:Generated_Source\PSoC6/ADC.h ****     /* Set soc operation to edge or level based on sample mode */
 666:Generated_Source\PSoC6/ADC.h ****     #if(ADC_CFG2_FREERUNNING == ADC_FREERUNNING)
 667:Generated_Source\PSoC6/ADC.h ****         #define ADC_CFG2_DSI_TRIGGER_LEVEL_INIT    (SAR_SAMPLE_CTRL_DSI_TRIGGER_LEVEL_Msk)
 668:Generated_Source\PSoC6/ADC.h ****     #else /* Edge trigger */
 669:Generated_Source\PSoC6/ADC.h ****         #define ADC_CFG2_DSI_TRIGGER_LEVEL_INIT    (0u)
 670:Generated_Source\PSoC6/ADC.h ****     #endif /* End ADC_CFG2_FREERUNNING == ADC_FREERUNNING */
 671:Generated_Source\PSoC6/ADC.h **** 
 672:Generated_Source\PSoC6/ADC.h ****     /* Set SE_NEG_INPUT */
 673:Generated_Source\PSoC6/ADC.h ****     #if(ADC_CFG2_VNEG_INPUT_SEL == ADC_NEG_SEL_VSSA_KELVIN)
 674:Generated_Source\PSoC6/ADC.h ****         #define ADC_CFG2_SE_NEG_INPUT_INIT \
 675:Generated_Source\PSoC6/ADC.h ****             ((uint32)(ADC_NEG_SEL_VSSA_KELVIN \
 676:Generated_Source\PSoC6/ADC.h ****             << SAR_CTRL_NEG_SEL_Pos ))
 677:Generated_Source\PSoC6/ADC.h ****     #elif(ADC_CFG2_VNEG_INPUT_SEL == ADC_NEG_SEL_VREF)
 678:Generated_Source\PSoC6/ADC.h ****         #define ADC_CFG2_SE_NEG_INPUT_INIT     (ADC_NEG_SEL_VREF \
 679:Generated_Source\PSoC6/ADC.h ****                                                                 << SAR_CTRL_NEG_SEL_Pos )
 680:Generated_Source\PSoC6/ADC.h ****     #elif (ADC_CFG2_SINGLE_PRESENT != 0u)
 681:Generated_Source\PSoC6/ADC.h ****         #define ADC_CFG2_SE_NEG_INPUT_INIT         ADC_CFG2_NEG_OTHER
 682:Generated_Source\PSoC6/ADC.h ****     #else
 683:Generated_Source\PSoC6/ADC.h ****         #define ADC_CFG2_SE_NEG_INPUT_INIT         0u
 684:Generated_Source\PSoC6/ADC.h ****     #endif /* ADC_CFG2_VNEG_INPUT_SEL == ADC_NEG_SEL_VSSA_KELVIN */
 685:Generated_Source\PSoC6/ADC.h **** 
 686:Generated_Source\PSoC6/ADC.h ****    #define ADC_CFG2_NEG_OTHER                 (uint16)((uint16)ADC_SARMUX__VNEG2 << SAR_CTRL_NEG_SE
 687:Generated_Source\PSoC6/ADC.h **** 
 688:Generated_Source\PSoC6/ADC.h ****     #define ADC_CFG2_SWITCH_CONF_INIT          0u
 689:Generated_Source\PSoC6/ADC.h **** 
 690:Generated_Source\PSoC6/ADC.h ****     /* If the SAR is configured for multiple channels, always set SAR_HW_CTRL_NEGVREF to 1 */
 691:Generated_Source\PSoC6/ADC.h ****     #define ADC_CFG2_HW_CTRL_NEGVREF_INIT      SAR_CTRL_SAR_HW_CTRL_NEGVREF_Msk
 692:Generated_Source\PSoC6/ADC.h **** 
 693:Generated_Source\PSoC6/ADC.h ****     #define ADC_CFG2_POWER_INIT  (ADC_PWR_CTRL_VREF_NORMAL_PWR)
 694:Generated_Source\PSoC6/ADC.h **** 
 695:Generated_Source\PSoC6/ADC.h ****     /* SAMPLE_CTRL initial values */
 696:Generated_Source\PSoC6/ADC.h ****     #define ADC_CFG2_SE_RESULT_FORMAT_INIT \
 697:Generated_Source\PSoC6/ADC.h ****             (ADC_CFG2_SINGLE_ENDED_FORMAT \
 698:Generated_Source\PSoC6/ADC.h ****             << SAR_SAMPLE_CTRL_SINGLE_ENDED_SIGNED_Pos)
 699:Generated_Source\PSoC6/ADC.h **** 
 700:Generated_Source\PSoC6/ADC.h ****     #define ADC_CFG2_DIFF_RESULT_FORMAT_INIT \
 701:Generated_Source\PSoC6/ADC.h ****             (ADC_CFG2_DIFFERENTIAL_FORMAT \
 702:Generated_Source\PSoC6/ADC.h ****             << SAR_SAMPLE_CTRL_DIFFERENTIAL_SIGNED_Pos)
 703:Generated_Source\PSoC6/ADC.h **** 
 704:Generated_Source\PSoC6/ADC.h ****     #define ADC_CFG2_AVG_SAMPLES_NUM_INIT \
 705:Generated_Source\PSoC6/ADC.h ****             (ADC_CFG2_SAMPLES_AVERAGED \
 706:Generated_Source\PSoC6/ADC.h ****             << SAR_SAMPLE_CTRL_AVG_CNT_Pos)
 707:Generated_Source\PSoC6/ADC.h **** 
 708:Generated_Source\PSoC6/ADC.h ****     /* Combination of Average Mode and Average Shift */
 709:Generated_Source\PSoC6/ADC.h ****     #define ADC_CFG2_AVG_MODE_INIT \
ARM GAS  C:\Users\xhuli\AppData\Local\Temp\ccrNCJrA.s 			page 22


 710:Generated_Source\PSoC6/ADC.h ****             (ADC_CFG2_AVGERAGING_MODE \
 711:Generated_Source\PSoC6/ADC.h ****             << SAR_SAMPLE_CTRL_AVG_SHIFT_Pos)
 712:Generated_Source\PSoC6/ADC.h **** 
 713:Generated_Source\PSoC6/ADC.h ****     #define ADC_CFG2_TRIGGER_OUT_INIT      (0u)
 714:Generated_Source\PSoC6/ADC.h ****     #define ADC_CFG2_UAB_SCAN_MODE_INIT    (0u)
 715:Generated_Source\PSoC6/ADC.h **** 
 716:Generated_Source\PSoC6/ADC.h **** 
 717:Generated_Source\PSoC6/ADC.h ****     #define ADC_CFG2_VREF_POWER_INIT  \
 718:Generated_Source\PSoC6/ADC.h ****             (ADC_CFG2_VREF_PWR \
 719:Generated_Source\PSoC6/ADC.h ****             << SAR_CTRL_PWR_CTRL_VREF_Pos)
 720:Generated_Source\PSoC6/ADC.h **** 
 721:Generated_Source\PSoC6/ADC.h ****     #define ADC_CFG2_COMP_PWR_INIT  \
 722:Generated_Source\PSoC6/ADC.h ****             (ADC_CFG2_COMP_PWR \
 723:Generated_Source\PSoC6/ADC.h ****             << SAR_CTRL_COMP_PWR_Pos)
 724:Generated_Source\PSoC6/ADC.h **** 
 725:Generated_Source\PSoC6/ADC.h ****     #define ADC_CFG2_COMP_DLY_INIT  \
 726:Generated_Source\PSoC6/ADC.h ****             (ADC_CFG2_COMP_DLY \
 727:Generated_Source\PSoC6/ADC.h ****             << SAR_CTRL_COMP_DLY_Pos)
 728:Generated_Source\PSoC6/ADC.h **** 
 729:Generated_Source\PSoC6/ADC.h ****     #define ADC_CFG2_CTRL_INIT  \
 730:Generated_Source\PSoC6/ADC.h ****             (ADC_CFG2_VREF_POWER_INIT \
 731:Generated_Source\PSoC6/ADC.h ****             | ADC_CFG2_VREF_SEL_MASK \
 732:Generated_Source\PSoC6/ADC.h ****             | ADC_CFG2_SE_NEG_INPUT_INIT \
 733:Generated_Source\PSoC6/ADC.h ****             | ADC_CFG2_HW_CTRL_NEGVREF_INIT \
 734:Generated_Source\PSoC6/ADC.h ****             | ADC_CFG2_COMP_DLY_INIT \
 735:Generated_Source\PSoC6/ADC.h ****             | SAR_CTRL_REFBUF_EN_Msk \
 736:Generated_Source\PSoC6/ADC.h ****             | ADC_CFG2_COMP_PWR_INIT \
 737:Generated_Source\PSoC6/ADC.h ****             | SAR_CTRL_DSI_SYNC_CONFIG_Msk  \
 738:Generated_Source\PSoC6/ADC.h ****             | ADC_CFG2_SWITCH_CONF_INIT )
 739:Generated_Source\PSoC6/ADC.h **** 
 740:Generated_Source\PSoC6/ADC.h **** 
 741:Generated_Source\PSoC6/ADC.h ****     #define ADC_CFG2_SAMPLE_CTRL_INIT \
 742:Generated_Source\PSoC6/ADC.h ****             (ADC_CFG2_SE_RESULT_FORMAT_INIT \
 743:Generated_Source\PSoC6/ADC.h ****             | ADC_CFG2_DIFF_RESULT_FORMAT_INIT \
 744:Generated_Source\PSoC6/ADC.h ****             | ADC_CFG2_AVG_SAMPLES_NUM_INIT \
 745:Generated_Source\PSoC6/ADC.h ****             | ADC_CFG2_AVG_MODE_INIT \
 746:Generated_Source\PSoC6/ADC.h ****             | ADC_CFG2_DSI_TRIGGER_LEVEL_INIT \
 747:Generated_Source\PSoC6/ADC.h ****             | ADC_CFG2_DSI_TRIGGER_EN_INIT \
 748:Generated_Source\PSoC6/ADC.h ****             | ADC_CFG2_UAB_SCAN_MODE_INIT \
 749:Generated_Source\PSoC6/ADC.h ****             | SAR_SAMPLE_CTRL_VALID_IGNORE_Msk \
 750:Generated_Source\PSoC6/ADC.h ****             | ADC_CFG2_TRIGGER_OUT_INIT \
 751:Generated_Source\PSoC6/ADC.h ****             | SAR_SAMPLE_CTRL_EOS_DSI_OUT_EN_Msk \
 752:Generated_Source\PSoC6/ADC.h ****     )
 753:Generated_Source\PSoC6/ADC.h **** 
 754:Generated_Source\PSoC6/ADC.h ****     #define ADC_CFG2_RANGE_THRES_INIT \
 755:Generated_Source\PSoC6/ADC.h ****             (ADC_CFG2_LOW_LIMIT \
 756:Generated_Source\PSoC6/ADC.h ****             | (uint32)((uint32)ADC_CFG2_HIGH_LIMIT \
 757:Generated_Source\PSoC6/ADC.h ****             << SAR_RANGE_THRES_RANGE_HIGH_Pos))
 758:Generated_Source\PSoC6/ADC.h **** 
 759:Generated_Source\PSoC6/ADC.h ****     #define ADC_CFG2_RANGE_COND_INIT   (cy_en_sar_range_detect_condition_t)ADC_CFG2_RANGE_COND
 760:Generated_Source\PSoC6/ADC.h **** 
 761:Generated_Source\PSoC6/ADC.h ****     /* Misc Config
 762:Generated_Source\PSoC6/ADC.h ****         [0] - Freerunning: Set if the sample mode is freerunning
 763:Generated_Source\PSoC6/ADC.h ****     */
 764:Generated_Source\PSoC6/ADC.h ****     #define ADC_CFG2_MISC_CONFIG_INIT \
 765:Generated_Source\PSoC6/ADC.h ****             (ADC_CFG2_FREERUNNING)
 766:Generated_Source\PSoC6/ADC.h **** #endif /* ADC_TOTAL_CONFIGS > 2 */
ARM GAS  C:\Users\xhuli\AppData\Local\Temp\ccrNCJrA.s 			page 23


 767:Generated_Source\PSoC6/ADC.h **** 
 768:Generated_Source\PSoC6/ADC.h **** /* ************************************************************************** */
 769:Generated_Source\PSoC6/ADC.h **** /* End configuration 2 calculated defines                                     */
 770:Generated_Source\PSoC6/ADC.h **** /* ************************************************************************** */
 771:Generated_Source\PSoC6/ADC.h **** 
 772:Generated_Source\PSoC6/ADC.h **** /* ************************************************************************** */
 773:Generated_Source\PSoC6/ADC.h **** /* Begin configuration 3 calculated defines                                   */
 774:Generated_Source\PSoC6/ADC.h **** /* ************************************************************************** */
 775:Generated_Source\PSoC6/ADC.h **** #if(ADC_TOTAL_CONFIGS > 3)
 776:Generated_Source\PSoC6/ADC.h ****     #define ADC_CFG3_SAMPLE_TIME01_INIT \
 777:Generated_Source\PSoC6/ADC.h ****             ((ADC_CFG3_APERTURE_TIME0 \
 778:Generated_Source\PSoC6/ADC.h ****             << SAR_SAMPLE_TIME01_SAMPLE_TIME0_Pos) \
 779:Generated_Source\PSoC6/ADC.h ****             | (ADC_CFG3_APERTURE_TIME1 \
 780:Generated_Source\PSoC6/ADC.h ****             << SAR_SAMPLE_TIME01_SAMPLE_TIME1_Pos))
 781:Generated_Source\PSoC6/ADC.h **** 
 782:Generated_Source\PSoC6/ADC.h ****     #define ADC_CFG3_SAMPLE_TIME23_INIT \
 783:Generated_Source\PSoC6/ADC.h ****             ((ADC_CFG3_APERTURE_TIME2 \
 784:Generated_Source\PSoC6/ADC.h ****             << SAR_SAMPLE_TIME23_SAMPLE_TIME2_Pos) \
 785:Generated_Source\PSoC6/ADC.h ****             | (ADC_CFG3_APERTURE_TIME3 \
 786:Generated_Source\PSoC6/ADC.h ****             << SAR_SAMPLE_TIME23_SAMPLE_TIME3_Pos))
 787:Generated_Source\PSoC6/ADC.h **** 
 788:Generated_Source\PSoC6/ADC.h ****     /* Enable soc pin if used */
 789:Generated_Source\PSoC6/ADC.h ****     #define ADC_CFG3_DSI_TRIGGER_EN_INIT \
 790:Generated_Source\PSoC6/ADC.h ****             (ADC_CFG3_USE_SOC \
 791:Generated_Source\PSoC6/ADC.h ****              << SAR_SAMPLE_CTRL_DSI_TRIGGER_EN_Pos)
 792:Generated_Source\PSoC6/ADC.h **** 
 793:Generated_Source\PSoC6/ADC.h ****     /* Set soc operation to edge or level based on sample mode */
 794:Generated_Source\PSoC6/ADC.h ****     #if(ADC_CFG3_FREERUNNING == ADC_FREERUNNING)
 795:Generated_Source\PSoC6/ADC.h ****         #define ADC_CFG3_DSI_TRIGGER_LEVEL_INIT    (SAR_SAMPLE_CTRL_DSI_TRIGGER_LEVEL_Msk)
 796:Generated_Source\PSoC6/ADC.h ****     #else /* Edge trigger */
 797:Generated_Source\PSoC6/ADC.h ****         #define ADC_CFG3_DSI_TRIGGER_LEVEL_INIT    (0u)
 798:Generated_Source\PSoC6/ADC.h ****     #endif /* End ADC_CFG3_FREERUNNING == ADC_FREERUNNING */
 799:Generated_Source\PSoC6/ADC.h **** 
 800:Generated_Source\PSoC6/ADC.h ****     /* Set SE_NEG_INPUT  */
 801:Generated_Source\PSoC6/ADC.h ****     #if(ADC_CFG3_VNEG_INPUT_SEL == ADC_NEG_SEL_VSSA_KELVIN)
 802:Generated_Source\PSoC6/ADC.h ****         #define ADC_CFG3_SE_NEG_INPUT_INIT \
 803:Generated_Source\PSoC6/ADC.h ****             ((uint32)(ADC_NEG_SEL_VSSA_KELVIN \
 804:Generated_Source\PSoC6/ADC.h ****             << SAR_CTRL_NEG_SEL_Pos ))
 805:Generated_Source\PSoC6/ADC.h ****     #elif(ADC_CFG3_VNEG_INPUT_SEL == ADC_NEG_SEL_VREF)
 806:Generated_Source\PSoC6/ADC.h ****         #define ADC_CFG3_SE_NEG_INPUT_INIT     (ADC_NEG_SEL_VREF \
 807:Generated_Source\PSoC6/ADC.h ****                                                                 << SAR_CTRL_NEG_SEL_Pos )
 808:Generated_Source\PSoC6/ADC.h ****     #elif (ADC_CFG3_SINGLE_PRESENT != 0u)
 809:Generated_Source\PSoC6/ADC.h ****         #define ADC_CFG3_SE_NEG_INPUT_INIT         ADC_CFG3_NEG_OTHER
 810:Generated_Source\PSoC6/ADC.h ****     #else
 811:Generated_Source\PSoC6/ADC.h ****         #define ADC_CFG3_SE_NEG_INPUT_INIT         0u
 812:Generated_Source\PSoC6/ADC.h ****     #endif /* ADC_CFG3_VNEG_INPUT_SEL == ADC_NEG_SEL_VSSA_KELVIN */
 813:Generated_Source\PSoC6/ADC.h **** 
 814:Generated_Source\PSoC6/ADC.h ****     #define ADC_CFG3_NEG_OTHER                 (uint16)((uint16)ADC_SARMUX__VNEG3 << SAR_CTRL_NEG_S
 815:Generated_Source\PSoC6/ADC.h **** 
 816:Generated_Source\PSoC6/ADC.h ****     #define ADC_CFG3_SWITCH_CONF_INIT          0u
 817:Generated_Source\PSoC6/ADC.h **** 
 818:Generated_Source\PSoC6/ADC.h ****     /* If the SAR is configured for multiple channels, always set SAR_HW_CTRL_NEGVREF to 1 */
 819:Generated_Source\PSoC6/ADC.h ****     #define ADC_CFG3_HW_CTRL_NEGVREF_INIT      SAR_CTRL_SAR_HW_CTRL_NEGVREF_Msk
 820:Generated_Source\PSoC6/ADC.h **** 
 821:Generated_Source\PSoC6/ADC.h ****     #define ADC_CFG3_POWER_INIT  (ADC_PWR_CTRL_VREF_NORMAL_PWR)
 822:Generated_Source\PSoC6/ADC.h **** 
 823:Generated_Source\PSoC6/ADC.h ****     /* SAMPLE_CTRL initial values */
ARM GAS  C:\Users\xhuli\AppData\Local\Temp\ccrNCJrA.s 			page 24


 824:Generated_Source\PSoC6/ADC.h ****     #define ADC_CFG3_SE_RESULT_FORMAT_INIT \
 825:Generated_Source\PSoC6/ADC.h ****             (ADC_CFG3_SINGLE_ENDED_FORMAT \
 826:Generated_Source\PSoC6/ADC.h ****             << SAR_SAMPLE_CTRL_SINGLE_ENDED_SIGNED_Pos)
 827:Generated_Source\PSoC6/ADC.h **** 
 828:Generated_Source\PSoC6/ADC.h ****     #define ADC_CFG3_DIFF_RESULT_FORMAT_INIT \
 829:Generated_Source\PSoC6/ADC.h ****             (ADC_CFG3_DIFFERENTIAL_FORMAT \
 830:Generated_Source\PSoC6/ADC.h ****             << SAR_SAMPLE_CTRL_DIFFERENTIAL_SIGNED_Pos)
 831:Generated_Source\PSoC6/ADC.h **** 
 832:Generated_Source\PSoC6/ADC.h ****     #define ADC_CFG3_AVG_SAMPLES_NUM_INIT \
 833:Generated_Source\PSoC6/ADC.h ****             (ADC_CFG3_SAMPLES_AVERAGED \
 834:Generated_Source\PSoC6/ADC.h ****             << SAR_SAMPLE_CTRL_AVG_CNT_Pos)
 835:Generated_Source\PSoC6/ADC.h **** 
 836:Generated_Source\PSoC6/ADC.h ****     /* Combination of Average Mode and Average Shift */
 837:Generated_Source\PSoC6/ADC.h ****     #define ADC_CFG3_AVG_MODE_INIT \
 838:Generated_Source\PSoC6/ADC.h ****             (ADC_CFG3_AVGERAGING_MODE \
 839:Generated_Source\PSoC6/ADC.h ****             << SAR_SAMPLE_CTRL_AVG_SHIFT_Pos)
 840:Generated_Source\PSoC6/ADC.h **** 
 841:Generated_Source\PSoC6/ADC.h ****     #define ADC_CFG3_TRIGGER_OUT_INIT      (0u)
 842:Generated_Source\PSoC6/ADC.h ****     #define ADC_CFG3_UAB_SCAN_MODE_INIT    (0u)
 843:Generated_Source\PSoC6/ADC.h **** 
 844:Generated_Source\PSoC6/ADC.h ****     #define ADC_CFG3_VREF_POWER_INIT  \
 845:Generated_Source\PSoC6/ADC.h ****             (ADC_CFG3_VREF_PWR \
 846:Generated_Source\PSoC6/ADC.h ****             << SAR_CTRL_PWR_CTRL_VREF_Pos)
 847:Generated_Source\PSoC6/ADC.h **** 
 848:Generated_Source\PSoC6/ADC.h ****     #define ADC_CFG3_COMP_PWR_INIT  \
 849:Generated_Source\PSoC6/ADC.h ****             (ADC_CFG3_COMP_PWR \
 850:Generated_Source\PSoC6/ADC.h ****             << SAR_CTRL_COMP_PWR_Pos)
 851:Generated_Source\PSoC6/ADC.h **** 
 852:Generated_Source\PSoC6/ADC.h ****     #define ADC_CFG3_COMP_DLY_INIT  \
 853:Generated_Source\PSoC6/ADC.h ****             (ADC_CFG3_COMP_DLY \
 854:Generated_Source\PSoC6/ADC.h ****             << SAR_CTRL_COMP_DLY_Pos)
 855:Generated_Source\PSoC6/ADC.h **** 
 856:Generated_Source\PSoC6/ADC.h ****     #define ADC_CFG3_CTRL_INIT  \
 857:Generated_Source\PSoC6/ADC.h ****             (ADC_CFG3_VREF_POWER_INIT \
 858:Generated_Source\PSoC6/ADC.h ****             | ADC_CFG3_VREF_SEL_MASK \
 859:Generated_Source\PSoC6/ADC.h ****             | ADC_CFG3_SE_NEG_INPUT_INIT \
 860:Generated_Source\PSoC6/ADC.h ****             | ADC_CFG3_HW_CTRL_NEGVREF_INIT \
 861:Generated_Source\PSoC6/ADC.h ****             | ADC_CFG3_COMP_DLY_INIT \
 862:Generated_Source\PSoC6/ADC.h ****             | SAR_CTRL_REFBUF_EN_Msk \
 863:Generated_Source\PSoC6/ADC.h ****             | ADC_CFG3_COMP_PWR_INIT \
 864:Generated_Source\PSoC6/ADC.h ****             | SAR_CTRL_DSI_SYNC_CONFIG_Msk  \
 865:Generated_Source\PSoC6/ADC.h ****             | ADC_CFG3_SWITCH_CONF_INIT )
 866:Generated_Source\PSoC6/ADC.h **** 
 867:Generated_Source\PSoC6/ADC.h **** 
 868:Generated_Source\PSoC6/ADC.h ****     #define ADC_CFG3_SAMPLE_CTRL_INIT \
 869:Generated_Source\PSoC6/ADC.h ****             (ADC_CFG3_SE_RESULT_FORMAT_INIT \
 870:Generated_Source\PSoC6/ADC.h ****             | ADC_CFG3_DIFF_RESULT_FORMAT_INIT \
 871:Generated_Source\PSoC6/ADC.h ****             | ADC_CFG3_AVG_SAMPLES_NUM_INIT \
 872:Generated_Source\PSoC6/ADC.h ****             | ADC_CFG3_AVG_MODE_INIT \
 873:Generated_Source\PSoC6/ADC.h ****             | ADC_CFG3_DSI_TRIGGER_LEVEL_INIT \
 874:Generated_Source\PSoC6/ADC.h ****             | ADC_CFG3_DSI_TRIGGER_EN_INIT \
 875:Generated_Source\PSoC6/ADC.h ****             | ADC_CFG3_UAB_SCAN_MODE_INIT \
 876:Generated_Source\PSoC6/ADC.h ****             | SAR_SAMPLE_CTRL_VALID_IGNORE_Msk \
 877:Generated_Source\PSoC6/ADC.h ****             | ADC_CFG3_TRIGGER_OUT_INIT \
 878:Generated_Source\PSoC6/ADC.h ****             | SAR_SAMPLE_CTRL_EOS_DSI_OUT_EN_Msk \
 879:Generated_Source\PSoC6/ADC.h ****     )
 880:Generated_Source\PSoC6/ADC.h **** 
ARM GAS  C:\Users\xhuli\AppData\Local\Temp\ccrNCJrA.s 			page 25


 881:Generated_Source\PSoC6/ADC.h ****     #define ADC_CFG3_RANGE_THRES_INIT \
 882:Generated_Source\PSoC6/ADC.h ****             (ADC_CFG3_LOW_LIMIT \
 883:Generated_Source\PSoC6/ADC.h ****             | (uint32)((uint32)ADC_CFG3_HIGH_LIMIT \
 884:Generated_Source\PSoC6/ADC.h ****             << SAR_RANGE_THRES_RANGE_HIGH_Pos))
 885:Generated_Source\PSoC6/ADC.h **** 
 886:Generated_Source\PSoC6/ADC.h ****     #define ADC_CFG3_RANGE_COND_INIT   (cy_en_sar_range_detect_condition_t)ADC_CFG3_RANGE_COND
 887:Generated_Source\PSoC6/ADC.h **** 
 888:Generated_Source\PSoC6/ADC.h ****     /* Misc Config
 889:Generated_Source\PSoC6/ADC.h ****         [0] - Freerunning: Set if the sample mode is freerunning
 890:Generated_Source\PSoC6/ADC.h ****     */
 891:Generated_Source\PSoC6/ADC.h ****     #define ADC_CFG3_MISC_CONFIG_INIT \
 892:Generated_Source\PSoC6/ADC.h ****             (ADC_CFG3_FREERUNNING )
 893:Generated_Source\PSoC6/ADC.h **** 
 894:Generated_Source\PSoC6/ADC.h **** #endif /* ADC_TOTAL_CONFIGS > 3 */
 895:Generated_Source\PSoC6/ADC.h **** 
 896:Generated_Source\PSoC6/ADC.h **** /* ************************************************************************** */
 897:Generated_Source\PSoC6/ADC.h **** /* End configuration 3 calculated defines                                     */
 898:Generated_Source\PSoC6/ADC.h **** /* ************************************************************************** */
 899:Generated_Source\PSoC6/ADC.h **** 
 900:Generated_Source\PSoC6/ADC.h **** /******************************************************************************
 901:Generated_Source\PSoC6/ADC.h **** * Function Name: ADC_Enable
 902:Generated_Source\PSoC6/ADC.h **** ****************************************************************************//*
 903:Generated_Source\PSoC6/ADC.h **** *
 904:Generated_Source\PSoC6/ADC.h **** * \brief Enables the component.
 905:Generated_Source\PSoC6/ADC.h **** *
 906:Generated_Source\PSoC6/ADC.h **** * \param None
 907:Generated_Source\PSoC6/ADC.h **** *
 908:Generated_Source\PSoC6/ADC.h **** * \return None
 909:Generated_Source\PSoC6/ADC.h **** *
 910:Generated_Source\PSoC6/ADC.h **** * \sideeffect
 911:Generated_Source\PSoC6/ADC.h **** *  None
 912:Generated_Source\PSoC6/ADC.h **** *
 913:Generated_Source\PSoC6/ADC.h **** *******************************************************************************/
 914:Generated_Source\PSoC6/ADC.h **** __STATIC_INLINE void ADC_Enable(void)
 915:Generated_Source\PSoC6/ADC.h **** {
 916:Generated_Source\PSoC6/ADC.h ****     Cy_SAR_Enable(ADC_SAR__HW);
 917:Generated_Source\PSoC6/ADC.h **** }
 918:Generated_Source\PSoC6/ADC.h **** 
 919:Generated_Source\PSoC6/ADC.h **** /*******************************************************************************
 920:Generated_Source\PSoC6/ADC.h **** * Function Name: ADC_Stop
 921:Generated_Source\PSoC6/ADC.h **** ****************************************************************************//**
 922:Generated_Source\PSoC6/ADC.h **** *
 923:Generated_Source\PSoC6/ADC.h **** * \brief This function stops ADC conversions and puts the ADC into its lowest
 924:Generated_Source\PSoC6/ADC.h **** * power mode.
 925:Generated_Source\PSoC6/ADC.h **** *
 926:Generated_Source\PSoC6/ADC.h **** * \param None
 927:Generated_Source\PSoC6/ADC.h **** *
 928:Generated_Source\PSoC6/ADC.h **** * \return None
 929:Generated_Source\PSoC6/ADC.h **** *
 930:Generated_Source\PSoC6/ADC.h **** * \sideeffect
 931:Generated_Source\PSoC6/ADC.h **** * Do not use the ADC_Stop() API to halt conversions. Instead use the
 932:Generated_Source\PSoC6/ADC.h **** * ADC_StopConvert() API. If you use the ADC_Stop() API
 933:Generated_Source\PSoC6/ADC.h **** * to halt conversions then later use the ADC_Start() and
 934:Generated_Source\PSoC6/ADC.h **** * ADC_StartConvert() APIs to resume conversions, the first channel
 935:Generated_Source\PSoC6/ADC.h **** * of the scan may be corrupt. The ADC_StopConvert() API will enable
 936:Generated_Source\PSoC6/ADC.h **** * the ADC to complete the current scan of channels. After the
 937:Generated_Source\PSoC6/ADC.h **** * channel scan is complete, the ADC will stop all conversions, which
ARM GAS  C:\Users\xhuli\AppData\Local\Temp\ccrNCJrA.s 			page 26


 938:Generated_Source\PSoC6/ADC.h **** * can be detected by the use of an ISR or the ADC_IsEndConversion()
 939:Generated_Source\PSoC6/ADC.h **** * function.
 940:Generated_Source\PSoC6/ADC.h **** *
 941:Generated_Source\PSoC6/ADC.h **** *******************************************************************************/
 942:Generated_Source\PSoC6/ADC.h **** __STATIC_INLINE void ADC_Stop(void)
 943:Generated_Source\PSoC6/ADC.h **** {
 944:Generated_Source\PSoC6/ADC.h ****     Cy_SAR_Disable(ADC_SAR__HW);
 945:Generated_Source\PSoC6/ADC.h **** }
 946:Generated_Source\PSoC6/ADC.h **** 
 947:Generated_Source\PSoC6/ADC.h **** /*******************************************************************************
 948:Generated_Source\PSoC6/ADC.h **** * Function Name: ADC_StopConvert
 949:Generated_Source\PSoC6/ADC.h **** ****************************************************************************//**
 950:Generated_Source\PSoC6/ADC.h **** *
 951:Generated_Source\PSoC6/ADC.h **** * \brief Forces the ADC to stop conversions. If a conversion is
 952:Generated_Source\PSoC6/ADC.h **** * currently executing, that conversion will complete, but no further conversions
 953:Generated_Source\PSoC6/ADC.h **** * will occur.
 954:Generated_Source\PSoC6/ADC.h **** *
 955:Generated_Source\PSoC6/ADC.h **** * \param None
 956:Generated_Source\PSoC6/ADC.h **** *
 957:Generated_Source\PSoC6/ADC.h **** * \return None
 958:Generated_Source\PSoC6/ADC.h **** *
 959:Generated_Source\PSoC6/ADC.h **** * \sideeffect None
 960:Generated_Source\PSoC6/ADC.h **** *
 961:Generated_Source\PSoC6/ADC.h **** *******************************************************************************/
 962:Generated_Source\PSoC6/ADC.h **** __STATIC_INLINE void ADC_StopConvert(void)
 963:Generated_Source\PSoC6/ADC.h **** {
 964:Generated_Source\PSoC6/ADC.h ****     Cy_SAR_StopConvert(ADC_SAR__HW);
 965:Generated_Source\PSoC6/ADC.h **** }
 966:Generated_Source\PSoC6/ADC.h **** 
 967:Generated_Source\PSoC6/ADC.h **** /*******************************************************************************
 968:Generated_Source\PSoC6/ADC.h **** * Function Name: ADC_GetResult16
 969:Generated_Source\PSoC6/ADC.h **** ****************************************************************************//**
 970:Generated_Source\PSoC6/ADC.h **** *
 971:Generated_Source\PSoC6/ADC.h **** * \brief Gets the data available in the channel result data register
 972:Generated_Source\PSoC6/ADC.h **** *
 973:Generated_Source\PSoC6/ADC.h **** * \param chan The ADC channel to read the result from. The first
 974:Generated_Source\PSoC6/ADC.h **** * channel is 0.
 975:Generated_Source\PSoC6/ADC.h **** *
 976:Generated_Source\PSoC6/ADC.h **** * \return Returns converted data as a signed 16-bit integer.
 977:Generated_Source\PSoC6/ADC.h **** *
 978:Generated_Source\PSoC6/ADC.h **** * \sideeffect None
 979:Generated_Source\PSoC6/ADC.h **** *
 980:Generated_Source\PSoC6/ADC.h **** *******************************************************************************/
 981:Generated_Source\PSoC6/ADC.h **** __STATIC_INLINE int16_t ADC_GetResult16(uint32_t chan)
 982:Generated_Source\PSoC6/ADC.h **** {
 983:Generated_Source\PSoC6/ADC.h ****     /* Halt CPU in debug mode if channel is out of valid range */
 984:Generated_Source\PSoC6/ADC.h ****     CY_ASSERT(chan < ADC_allConfigs[ADC_currentConfig].numChannels);
 112              		.loc 2 984 0 discriminator 3
 113 0016 134B     		ldr	r3, .L11+8
 114 0018 1B68     		ldr	r3, [r3]
 115 001a 03EB8303 		add	r3, r3, r3, lsl #2
 116 001e 9A00     		lsls	r2, r3, #2
 117 0020 114B     		ldr	r3, .L11+12
 118 0022 1A44     		add	r2, r2, r3
 119 0024 5368     		ldr	r3, [r2, #4]
 120 0026 23B9     		cbnz	r3, .L8
 121              		.loc 2 984 0 is_stmt 0
ARM GAS  C:\Users\xhuli\AppData\Local\Temp\ccrNCJrA.s 			page 27


 122 0028 4FF47671 		mov	r1, #984
 123 002c 0F48     		ldr	r0, .L11+16
 124 002e FFF7FEFF 		bl	Cy_SysLib_AssertFailed
 125              	.LVL4:
 126              	.L8:
 985:Generated_Source\PSoC6/ADC.h **** 
 986:Generated_Source\PSoC6/ADC.h ****     return Cy_SAR_GetResult16(ADC_SAR__HW, chan);
 127              		.loc 2 986 0 is_stmt 1
 128 0032 0021     		movs	r1, #0
 129 0034 0E48     		ldr	r0, .L11+20
 130 0036 FFF7FEFF 		bl	Cy_SAR_GetResult16
 131              	.LVL5:
 132              	.LBE30:
 133              	.LBE29:
  43:BLE_Task.c    ****         vTaskDelay(10);
 134              		.loc 1 43 0
 135 003a 094B     		ldr	r3, .L11+4
 136 003c 03EB8403 		add	r3, r3, r4, lsl #2
 137 0040 07EE900A 		vmov	s15, r0	@ int
 138 0044 F8EEE77A 		vcvt.f32.s32	s15, s15
 139 0048 C3ED007A 		vstr.32	s15, [r3]
  44:BLE_Task.c    ****     }
 140              		.loc 1 44 0
 141 004c 0A20     		movs	r0, #10
 142 004e FFF7FEFF 		bl	vTaskDelay
 143              	.LVL6:
  41:BLE_Task.c    ****         sample[i] = 0;
 144              		.loc 1 41 0
 145 0052 0134     		adds	r4, r4, #1
 146              	.LVL7:
 147              	.L7:
  41:BLE_Task.c    ****         sample[i] = 0;
 148              		.loc 1 41 0 is_stmt 0 discriminator 1
 149 0054 C82C     		cmp	r4, #200
 150 0056 D9DD     		ble	.L9
 151              	.LBE28:
  46:BLE_Task.c    **** 
 152              		.loc 1 46 0 is_stmt 1
 153 0058 10BD     		pop	{r4, pc}
 154              	.LVL8:
 155              	.L12:
 156 005a 00BF     		.align	2
 157              	.L11:
 158 005c 00000000 		.word	.LC0
 159 0060 00000000 		.word	.LANCHOR0
 160 0064 00000000 		.word	ADC_currentConfig
 161 0068 00000000 		.word	ADC_allConfigs
 162 006c 20000000 		.word	.LC1
 163 0070 00001D41 		.word	1092419584
 164              		.cfi_endproc
 165              	.LFE586:
 166              		.size	fillSampleData, .-fillSampleData
 167              		.section	.text.mean,"ax",%progbits
 168              		.align	2
 169              		.global	mean
 170              		.thumb
 171              		.thumb_func
ARM GAS  C:\Users\xhuli\AppData\Local\Temp\ccrNCJrA.s 			page 28


 172              		.type	mean, %function
 173              	mean:
 174              	.LFB587:
  51:BLE_Task.c    ****     float sum = 0.0, mean = 0.0;
 175              		.loc 1 51 0
 176              		.cfi_startproc
 177              		@ args = 0, pretend = 0, frame = 0
 178              		@ frame_needed = 0, uses_anonymous_args = 0
 179              		@ link register save eliminated.
 180              	.LVL9:
  54:BLE_Task.c    ****         sum += data[i];
 181              		.loc 1 54 0
 182 0000 0023     		movs	r3, #0
  52:BLE_Task.c    ****     int i;
 183              		.loc 1 52 0
 184 0002 DFED0A7A 		vldr.32	s15, .L16
  54:BLE_Task.c    ****         sum += data[i];
 185              		.loc 1 54 0
 186 0006 06E0     		b	.L14
 187              	.LVL10:
 188              	.L15:
  55:BLE_Task.c    ****     }
 189              		.loc 1 55 0 discriminator 3
 190 0008 00EB8302 		add	r2, r0, r3, lsl #2
 191 000c 92ED007A 		vldr.32	s14, [r2]
 192 0010 77EE877A 		vadd.f32	s15, s15, s14
 193              	.LVL11:
  54:BLE_Task.c    ****         sum += data[i];
 194              		.loc 1 54 0 discriminator 3
 195 0014 0133     		adds	r3, r3, #1
 196              	.LVL12:
 197              	.L14:
  54:BLE_Task.c    ****         sum += data[i];
 198              		.loc 1 54 0 is_stmt 0 discriminator 1
 199 0016 8B42     		cmp	r3, r1
 200 0018 F6DB     		blt	.L15
  57:BLE_Task.c    ****     return mean;
 201              		.loc 1 57 0 is_stmt 1
 202 001a 07EE101A 		vmov	s14, r1	@ int
 203 001e B8EEC77A 		vcvt.f32.s32	s14, s14
 204              	.LVL13:
  59:BLE_Task.c    **** 
 205              		.loc 1 59 0
 206 0022 C7EE876A 		vdiv.f32	s13, s15, s14
 207              	.LVL14:
 208 0026 16EE900A 		vmov	r0, s13
 209              	.LVL15:
 210 002a 7047     		bx	lr
 211              	.L17:
 212              		.align	2
 213              	.L16:
 214 002c 00000000 		.word	0
 215              		.cfi_endproc
 216              	.LFE587:
 217              		.size	mean, .-mean
 218              		.global	__aeabi_f2d
 219              		.global	__aeabi_dadd
ARM GAS  C:\Users\xhuli\AppData\Local\Temp\ccrNCJrA.s 			page 29


 220              		.global	__aeabi_d2f
 221              		.section	.text.stddev,"ax",%progbits
 222              		.align	2
 223              		.global	stddev
 224              		.thumb
 225              		.thumb_func
 226              		.type	stddev, %function
 227              	stddev:
 228              	.LFB588:
  64:BLE_Task.c    ****     float the_mean = mean(data, len);
 229              		.loc 1 64 0
 230              		.cfi_startproc
 231              		@ args = 0, pretend = 0, frame = 0
 232              		@ frame_needed = 0, uses_anonymous_args = 0
 233              	.LVL16:
 234 0000 2DE9F843 		push	{r3, r4, r5, r6, r7, r8, r9, lr}
 235              		.cfi_def_cfa_offset 32
 236              		.cfi_offset 3, -32
 237              		.cfi_offset 4, -28
 238              		.cfi_offset 5, -24
 239              		.cfi_offset 6, -20
 240              		.cfi_offset 7, -16
 241              		.cfi_offset 8, -12
 242              		.cfi_offset 9, -8
 243              		.cfi_offset 14, -4
 244 0004 2DED028B 		vpush.64	{d8}
 245              		.cfi_def_cfa_offset 40
 246              		.cfi_offset 80, -40
 247              		.cfi_offset 81, -36
 248 0008 8146     		mov	r9, r0
 249 000a 8846     		mov	r8, r1
  65:BLE_Task.c    ****     float standardDeviation = 0.0;
 250              		.loc 1 65 0
 251 000c FFF7FEFF 		bl	mean
 252              	.LVL17:
 253 0010 08EE100A 		vmov	s16, r0
 254              	.LVL18:
  68:BLE_Task.c    ****         standardDeviation += pow(data[i] - the_mean, 2);
 255              		.loc 1 68 0
 256 0014 0024     		movs	r4, #0
  66:BLE_Task.c    ****     int i;
 257              		.loc 1 66 0
 258 0016 0025     		movs	r5, #0
  68:BLE_Task.c    ****         standardDeviation += pow(data[i] - the_mean, 2);
 259              		.loc 1 68 0
 260 0018 1BE0     		b	.L19
 261              	.LVL19:
 262              	.L20:
  69:BLE_Task.c    ****     }
 263              		.loc 1 69 0 discriminator 3
 264 001a 09EB8403 		add	r3, r9, r4, lsl #2
 265 001e D3ED007A 		vldr.32	s15, [r3]
 266 0022 77EEC87A 		vsub.f32	s15, s15, s16
 267 0026 17EE900A 		vmov	r0, s15
 268 002a FFF7FEFF 		bl	__aeabi_f2d
 269              	.LVL20:
 270 002e 0022     		movs	r2, #0
ARM GAS  C:\Users\xhuli\AppData\Local\Temp\ccrNCJrA.s 			page 30


 271 0030 4FF08043 		mov	r3, #1073741824
 272 0034 FFF7FEFF 		bl	pow
 273              	.LVL21:
 274 0038 0646     		mov	r6, r0
 275 003a 0F46     		mov	r7, r1
 276 003c 2846     		mov	r0, r5	@ float
 277 003e FFF7FEFF 		bl	__aeabi_f2d
 278              	.LVL22:
 279 0042 3246     		mov	r2, r6
 280 0044 3B46     		mov	r3, r7
 281 0046 FFF7FEFF 		bl	__aeabi_dadd
 282              	.LVL23:
 283 004a FFF7FEFF 		bl	__aeabi_d2f
 284              	.LVL24:
 285 004e 0546     		mov	r5, r0	@ float
 286              	.LVL25:
  68:BLE_Task.c    ****         standardDeviation += pow(data[i] - the_mean, 2);
 287              		.loc 1 68 0 discriminator 3
 288 0050 0134     		adds	r4, r4, #1
 289              	.LVL26:
 290              	.L19:
  68:BLE_Task.c    ****         standardDeviation += pow(data[i] - the_mean, 2);
 291              		.loc 1 68 0 is_stmt 0 discriminator 1
 292 0052 4445     		cmp	r4, r8
 293 0054 E1DB     		blt	.L20
  71:BLE_Task.c    **** }
 294              		.loc 1 71 0 is_stmt 1
 295 0056 07EE908A 		vmov	s15, r8	@ int
 296 005a F8EEE77A 		vcvt.f32.s32	s15, s15
 297 005e 07EE105A 		vmov	s14, r5
 298 0062 87EE278A 		vdiv.f32	s16, s14, s15
 299              	.LVL27:
 300 0066 18EE100A 		vmov	r0, s16
 301 006a FFF7FEFF 		bl	__aeabi_f2d
 302              	.LVL28:
 303 006e FFF7FEFF 		bl	sqrt
 304              	.LVL29:
 305 0072 FFF7FEFF 		bl	__aeabi_d2f
 306              	.LVL30:
  72:BLE_Task.c    **** 
 307              		.loc 1 72 0
 308 0076 BDEC028B 		vldm	sp!, {d8}
 309              		.cfi_restore 80
 310              		.cfi_restore 81
 311              		.cfi_def_cfa_offset 32
 312 007a BDE8F883 		pop	{r3, r4, r5, r6, r7, r8, r9, pc}
 313              		.cfi_endproc
 314              	.LFE588:
 315              		.size	stddev, .-stddev
 316              		.global	__aeabi_i2d
 317              		.global	__aeabi_dmul
 318 007e 00BF     		.section	.text.detectPeaks,"ax",%progbits
 319              		.align	2
 320              		.global	detectPeaks
 321              		.thumb
 322              		.thumb_func
 323              		.type	detectPeaks, %function
ARM GAS  C:\Users\xhuli\AppData\Local\Temp\ccrNCJrA.s 			page 31


 324              	detectPeaks:
 325              	.LFB589:
  77:BLE_Task.c    ****     fillSampleData();
 326              		.loc 1 77 0
 327              		.cfi_startproc
 328              		@ args = 0, pretend = 0, frame = 2400
 329              		@ frame_needed = 0, uses_anonymous_args = 0
 330 0000 2DE9F043 		push	{r4, r5, r6, r7, r8, r9, lr}
 331              		.cfi_def_cfa_offset 28
 332              		.cfi_offset 4, -28
 333              		.cfi_offset 5, -24
 334              		.cfi_offset 6, -20
 335              		.cfi_offset 7, -16
 336              		.cfi_offset 8, -12
 337              		.cfi_offset 9, -8
 338              		.cfi_offset 14, -4
 339 0004 2DED048B 		vpush.64	{d8, d9}
 340              		.cfi_def_cfa_offset 44
 341              		.cfi_offset 80, -44
 342              		.cfi_offset 81, -40
 343              		.cfi_offset 82, -36
 344              		.cfi_offset 83, -32
 345 0008 ADF6641D 		subw	sp, sp, #2404
 346              		.cfi_def_cfa_offset 2448
  78:BLE_Task.c    ****     printf(">>Calculating Heart Rate\r\n");
 347              		.loc 1 78 0
 348 000c FFF7FEFF 		bl	fillSampleData
 349              	.LVL31:
  79:BLE_Task.c    ****     float threshold = 6;
 350              		.loc 1 79 0
 351 0010 8B48     		ldr	r0, .L45+24
 352 0012 FFF7FEFF 		bl	puts
 353              	.LVL32:
  93:BLE_Task.c    ****     stdFilter[lag-1] = stddev(sample, lag);
 354              		.loc 1 93 0
 355 0016 8B4C     		ldr	r4, .L45+28
 356 0018 0321     		movs	r1, #3
 357 001a 2046     		mov	r0, r4
 358 001c FFF7FEFF 		bl	mean
 359              	.LVL33:
 360 0020 0DF5C863 		add	r3, sp, #1600
 361 0024 9860     		str	r0, [r3, #8]	@ float
  94:BLE_Task.c    ****     float filteredY[SAMPLE_LENGTH];
 362              		.loc 1 94 0
 363 0026 0321     		movs	r1, #3
 364 0028 2046     		mov	r0, r4
 365 002a FFF7FEFF 		bl	stddev
 366              	.LVL34:
 367 002e CA90     		str	r0, [sp, #808]	@ float
  96:BLE_Task.c    ****     for(int i = lag; i<=SAMPLE_LENGTH; i++)
 368              		.loc 1 96 0
 369 0030 4FF44872 		mov	r2, #800
 370 0034 2146     		mov	r1, r4
 371 0036 6846     		mov	r0, sp
 372 0038 FFF7FEFF 		bl	memcpy
 373              	.LVL35:
 374              	.LBB31:
ARM GAS  C:\Users\xhuli\AppData\Local\Temp\ccrNCJrA.s 			page 32


  97:BLE_Task.c    ****     {
 375              		.loc 1 97 0
 376 003c 0324     		movs	r4, #3
 377              	.LBE31:
  86:BLE_Task.c    **** 
 378              		.loc 1 86 0
 379 003e 9FED829A 		vldr.32	s18, .L45+32
  85:BLE_Task.c    ****     float value_possible_valley = 0;
 380              		.loc 1 85 0
 381 0042 F0EE499A 		vmov.f32	s19, s18
  83:BLE_Task.c    **** 
 382              		.loc 1 83 0
 383 0046 0027     		movs	r7, #0
  82:BLE_Task.c    ****     bool possible_valley = false;
 384              		.loc 1 82 0
 385 0048 B846     		mov	r8, r7
  80:BLE_Task.c    ****     int lag = 3;
 386              		.loc 1 80 0
 387 004a F1EE088A 		vmov.f32	s17, #6.0e+0
 388              	.LBB32:
  97:BLE_Task.c    ****     {
 389              		.loc 1 97 0
 390 004e CDE0     		b	.L23
 391              	.LVL36:
 392              	.L38:
  99:BLE_Task.c    ****         stdFilter[i] = stddev(filteredY + i-lag+1, lag);
 393              		.loc 1 99 0
 394 0050 A61E     		subs	r6, r4, #2
 395 0052 0DEB8606 		add	r6, sp, r6, lsl #2
 396 0056 0321     		movs	r1, #3
 397 0058 3046     		mov	r0, r6
 398 005a FFF7FEFF 		bl	mean
 399              	.LVL37:
 400 005e A500     		lsls	r5, r4, #2
 401 0060 0DF5C863 		add	r3, sp, #1600
 402 0064 2B44     		add	r3, r3, r5
 403 0066 1860     		str	r0, [r3]	@ float
 100:BLE_Task.c    **** 	    if(sample[i] > sample[i-1]){
 404              		.loc 1 100 0
 405 0068 0321     		movs	r1, #3
 406 006a 3046     		mov	r0, r6
 407 006c FFF7FEFF 		bl	stddev
 408              	.LVL38:
 409 0070 C8AB     		add	r3, sp, #800
 410 0072 2B44     		add	r3, r3, r5
 411 0074 1860     		str	r0, [r3]	@ float
 101:BLE_Task.c    **** 	       num_steps++;
 412              		.loc 1 101 0
 413 0076 734B     		ldr	r3, .L45+28
 414 0078 1D44     		add	r5, r5, r3
 415 007a 95ED008A 		vldr.32	s16, [r5]
 416 007e 651E     		subs	r5, r4, #1
 417 0080 03EB8503 		add	r3, r3, r5, lsl #2
 418 0084 D3ED007A 		vldr.32	s15, [r3]
 419 0088 B4EEE78A 		vcmpe.f32	s16, s15
 420 008c F1EE10FA 		vmrs	APSR_nzcv, FPSCR
 421 0090 40F3AB80 		ble	.L24
ARM GAS  C:\Users\xhuli\AppData\Local\Temp\ccrNCJrA.s 			page 33


 102:BLE_Task.c    **** 		        //Looking for the valley
 422              		.loc 1 102 0
 423 0094 6B4B     		ldr	r3, .L45+28
 424 0096 D3F82003 		ldr	r0, [r3, #800]
 425 009a 0130     		adds	r0, r0, #1
 426 009c C3F82003 		str	r0, [r3, #800]
 104:BLE_Task.c    **** 		 	    //Potential valley has been found
 427              		.loc 1 104 0
 428 00a0 4FB9     		cbnz	r7, .L26
 429              	.LVL39:
 108:BLE_Task.c    **** 		        }
 430              		.loc 1 108 0
 431 00a2 1A46     		mov	r2, r3
 432 00a4 D3F82433 		ldr	r3, [r3, #804]
 433 00a8 0133     		adds	r3, r3, #1
 434 00aa C2F82433 		str	r3, [r2, #804]
 107:BLE_Task.c    ****                 possible_val++;
 435              		.loc 1 107 0
 436 00ae B0EE679A 		vmov.f32	s18, s15
 106:BLE_Task.c    **** 		 	    value_possible_valley = sample[i-1];
 437              		.loc 1 106 0
 438 00b2 0127     		movs	r7, #1
 439 00b4 95E0     		b	.L27
 440              	.LVL40:
 441              	.L26:
 112:BLE_Task.c    **** 			    //Potential peak has been found
 442              		.loc 1 112 0
 443 00b6 07EE100A 		vmov	s14, r0	@ int
 444 00ba B8EEC77A 		vcvt.f32.s32	s14, s14
 445 00be F4EEC78A 		vcmpe.f32	s17, s14
 446 00c2 F1EE10FA 		vmrs	APSR_nzcv, FPSCR
 447 00c6 1FD8     		bhi	.L28
 112:BLE_Task.c    **** 			    //Potential peak has been found
 448              		.loc 1 112 0 is_stmt 0 discriminator 1
 449 00c8 AB00     		lsls	r3, r5, #2
 450 00ca 0DF5C862 		add	r2, sp, #1600
 451 00ce 1A44     		add	r2, r2, r3
 452 00d0 92ED007A 		vldr.32	s14, [r2]
 453 00d4 38EE477A 		vsub.f32	s14, s16, s14
 454 00d8 B0EEC77A 		vabs.f32	s14, s14
 455 00dc C8AA     		add	r2, sp, #800
 456 00de 1344     		add	r3, r3, r2
 457 00e0 D3ED006A 		vldr.32	s13, [r3]
 458 00e4 68EEA66A 		vmul.f32	s13, s17, s13
 459 00e8 B4EEE67A 		vcmpe.f32	s14, s13
 460 00ec F1EE10FA 		vmrs	APSR_nzcv, FPSCR
 461 00f0 0ADD     		ble	.L28
 462              	.LVL41:
 116:BLE_Task.c    **** 		    } 
 463              		.loc 1 116 0 is_stmt 1
 464 00f2 544A     		ldr	r2, .L45+28
 465 00f4 D2F82833 		ldr	r3, [r2, #808]
 466 00f8 0133     		adds	r3, r3, #1
 467 00fa C2F82833 		str	r3, [r2, #808]
 115:BLE_Task.c    ****                 possible_beat++;
 468              		.loc 1 115 0
 469 00fe F0EE679A 		vmov.f32	s19, s15
ARM GAS  C:\Users\xhuli\AppData\Local\Temp\ccrNCJrA.s 			page 34


 114:BLE_Task.c    **** 			    value_possible_peak = sample[i-1];
 470              		.loc 1 114 0
 471 0102 4FF00108 		mov	r8, #1
 116:BLE_Task.c    **** 		    } 
 472              		.loc 1 116 0
 473 0106 6CE0     		b	.L27
 474              	.LVL42:
 475              	.L28:
 121:BLE_Task.c    **** 				    if(sample[i] <= value_possible_valley){
 476              		.loc 1 121 0
 477 0108 67B1     		cbz	r7, .L31
 122:BLE_Task.c    **** 				    value_possible_valley = sample[i];
 478              		.loc 1 122 0
 479 010a B4EEC89A 		vcmpe.f32	s18, s16
 480 010e F1EE10FA 		vmrs	APSR_nzcv, FPSCR
 481 0112 07DB     		blt	.L31
 482              	.LVL43:
 124:BLE_Task.c    **** 				    }
 483              		.loc 1 124 0
 484 0114 4B4A     		ldr	r2, .L45+28
 485 0116 D2F82433 		ldr	r3, [r2, #804]
 486 011a 0133     		adds	r3, r3, #1
 487 011c C2F82433 		str	r3, [r2, #804]
 123:BLE_Task.c    ****                     possible_val++;
 488              		.loc 1 123 0
 489 0120 B0EE489A 		vmov.f32	s18, s16
 490              	.LVL44:
 491              	.L31:
 128:BLE_Task.c    **** 				    //Updating peak information
 492              		.loc 1 128 0
 493 0124 B8F1000F 		cmp	r8, #0
 494 0128 1CD0     		beq	.L33
 130:BLE_Task.c    **** 			        value_peak = sample[i-1];
 495              		.loc 1 130 0
 496 012a F4EEE79A 		vcmpe.f32	s19, s15
 497 012e F1EE10FA 		vmrs	APSR_nzcv, FPSCR
 498 0132 0AD4     		bmi	.L34
 130:BLE_Task.c    **** 			        value_peak = sample[i-1];
 499              		.loc 1 130 0 is_stmt 0 discriminator 1
 500 0134 0DF5C863 		add	r3, sp, #1600
 501 0138 03EB8503 		add	r3, r3, r5, lsl #2
 502 013c D3ED007A 		vldr.32	s15, [r3]
 503 0140 B4EEE78A 		vcmpe.f32	s16, s15
 504 0144 F1EE10FA 		vmrs	APSR_nzcv, FPSCR
 505 0148 06DD     		ble	.L43
 506              	.L34:
 507              	.LVL45:
 132:BLE_Task.c    **** 			    } 
 508              		.loc 1 132 0 is_stmt 1
 509 014a 3E4A     		ldr	r2, .L45+28
 510 014c D2F82C33 		ldr	r3, [r2, #812]
 511 0150 0133     		adds	r3, r3, #1
 512 0152 C2F82C33 		str	r3, [r2, #812]
 513 0156 05E0     		b	.L33
 514              	.LVL46:
 515              	.L43:
 136:BLE_Task.c    **** 			        value_peak = value_possible_peak;
ARM GAS  C:\Users\xhuli\AppData\Local\Temp\ccrNCJrA.s 			page 35


 516              		.loc 1 136 0
 517 0158 3A4A     		ldr	r2, .L45+28
 518 015a D2F82C33 		ldr	r3, [r2, #812]
 519 015e 0133     		adds	r3, r3, #1
 520 0160 C2F82C33 		str	r3, [r2, #812]
 521              	.LVL47:
 522              	.L33:
 141:BLE_Task.c    **** 				    //Updating valley information
 523              		.loc 1 141 0
 524 0164 37B1     		cbz	r7, .L37
 525              	.LVL48:
 145:BLE_Task.c    **** 		        }
 526              		.loc 1 145 0
 527 0166 374A     		ldr	r2, .L45+28
 528 0168 D2F83033 		ldr	r3, [r2, #816]
 529 016c 0133     		adds	r3, r3, #1
 530 016e C2F83033 		str	r3, [r2, #816]
 144:BLE_Task.c    ****                     valley++;
 531              		.loc 1 144 0
 532 0172 0027     		movs	r7, #0
 533              	.LVL49:
 534              	.L37:
 148:BLE_Task.c    **** 		        possible_peak = false;
 535              		.loc 1 148 0
 536 0174 FFF7FEFF 		bl	__aeabi_i2d
 537              	.LVL50:
 538 0178 2BA3     		adr	r3, .L45
 539 017a D3E90023 		ldrd	r2, [r3]
 540 017e FFF7FEFF 		bl	__aeabi_dmul
 541              	.LVL51:
 542 0182 FFF7FEFF 		bl	__aeabi_d2f
 543              	.LVL52:
 544 0186 08EE900A 		vmov	s17, r0
 545              	.LVL53:
 150:BLE_Task.c    ****                 avgFilter[i] = mean(filteredY + i-lag+1, lag);
 546              		.loc 1 150 0
 547 018a 18EE100A 		vmov	r0, s16
 548              	.LVL54:
 549 018e FFF7FEFF 		bl	__aeabi_f2d
 550              	.LVL55:
 551 0192 27A3     		adr	r3, .L45+8
 552 0194 D3E90023 		ldrd	r2, [r3]
 553 0198 FFF7FEFF 		bl	__aeabi_dmul
 554              	.LVL56:
 555 019c 8046     		mov	r8, r0
 556 019e 8946     		mov	r9, r1
 557 01a0 0DEB8505 		add	r5, sp, r5, lsl #2
 558 01a4 2868     		ldr	r0, [r5]	@ float
 559 01a6 FFF7FEFF 		bl	__aeabi_f2d
 560              	.LVL57:
 561 01aa 23A3     		adr	r3, .L45+16
 562 01ac D3E90023 		ldrd	r2, [r3]
 563 01b0 FFF7FEFF 		bl	__aeabi_dmul
 564              	.LVL58:
 565 01b4 0246     		mov	r2, r0
 566 01b6 0B46     		mov	r3, r1
 567 01b8 4046     		mov	r0, r8
ARM GAS  C:\Users\xhuli\AppData\Local\Temp\ccrNCJrA.s 			page 36


 568 01ba 4946     		mov	r1, r9
 569 01bc FFF7FEFF 		bl	__aeabi_dadd
 570              	.LVL59:
 571 01c0 A500     		lsls	r5, r4, #2
 572 01c2 0DEB0508 		add	r8, sp, r5
 573 01c6 FFF7FEFF 		bl	__aeabi_d2f
 574              	.LVL60:
 575 01ca C8F80000 		str	r0, [r8]	@ float
 151:BLE_Task.c    **** 		    }
 576              		.loc 1 151 0
 577 01ce 0321     		movs	r1, #3
 578 01d0 3046     		mov	r0, r6
 579 01d2 FFF7FEFF 		bl	mean
 580              	.LVL61:
 581 01d6 0DF5C863 		add	r3, sp, #1600
 582 01da 1D44     		add	r5, r5, r3
 583 01dc 2860     		str	r0, [r5]	@ float
 149:BLE_Task.c    ****                 filteredY[i] = 0.1 * sample[i] + (1 - 0.1) * filteredY[i-1];
 584              		.loc 1 149 0
 585 01de 4FF00008 		mov	r8, #0
 586              	.LVL62:
 587              	.L27:
 155:BLE_Task.c    ****         }
 588              		.loc 1 155 0
 589 01e2 0022     		movs	r2, #0
 590 01e4 174B     		ldr	r3, .L45+28
 591 01e6 C3F82023 		str	r2, [r3, #800]
 592              	.L24:
  97:BLE_Task.c    ****     {
 593              		.loc 1 97 0 discriminator 2
 594 01ea 0134     		adds	r4, r4, #1
 595              	.LVL63:
 596              	.L23:
  97:BLE_Task.c    ****     {
 597              		.loc 1 97 0 is_stmt 0 discriminator 1
 598 01ec C82C     		cmp	r4, #200
 599 01ee 7FF72FAF 		ble	.L38
 600              	.LBE32:
 159:BLE_Task.c    **** printf("Possible Peaks:         %d \r\n", possible_beat);
 601              		.loc 1 159 0 is_stmt 1
 602 01f2 144C     		ldr	r4, .L45+28
 603              	.LVL64:
 604 01f4 D4F82C13 		ldr	r1, [r4, #812]
 605 01f8 1448     		ldr	r0, .L45+36
 606 01fa FFF7FEFF 		bl	printf
 607              	.LVL65:
 160:BLE_Task.c    **** printf("Estimated Heart Rate:   %d \r\n", 7*beat);
 608              		.loc 1 160 0
 609 01fe D4F82813 		ldr	r1, [r4, #808]
 610 0202 1348     		ldr	r0, .L45+40
 611 0204 FFF7FEFF 		bl	printf
 612              	.LVL66:
 161:BLE_Task.c    **** }
 613              		.loc 1 161 0
 614 0208 D4F82C13 		ldr	r1, [r4, #812]
 615 020c C1EBC101 		rsb	r1, r1, r1, lsl #3
 616 0210 1048     		ldr	r0, .L45+44
ARM GAS  C:\Users\xhuli\AppData\Local\Temp\ccrNCJrA.s 			page 37


 617 0212 FFF7FEFF 		bl	printf
 618              	.LVL67:
 162:BLE_Task.c    **** 
 619              		.loc 1 162 0
 620 0216 0DF6641D 		addw	sp, sp, #2404
 621              		.cfi_def_cfa_offset 44
 622              		@ sp needed
 623 021a BDEC048B 		vldm	sp!, {d8-d9}
 624              		.cfi_restore 82
 625              		.cfi_restore 83
 626              		.cfi_restore 80
 627              		.cfi_restore 81
 628              		.cfi_def_cfa_offset 28
 629              	.LVL68:
 630 021e BDE8F083 		pop	{r4, r5, r6, r7, r8, r9, pc}
 631              	.LVL69:
 632              	.L46:
 633 0222 00BFAFF3 		.align	3
 633      0080
 634              	.L45:
 635 0228 33333333 		.word	858993459
 636 022c 3333E33F 		.word	1071854387
 637 0230 9A999999 		.word	-1717986918
 638 0234 9999B93F 		.word	1069128089
 639 0238 CDCCCCCC 		.word	-858993459
 640 023c CCCCEC3F 		.word	1072483532
 641 0240 40000000 		.word	.LC2
 642 0244 00000000 		.word	.LANCHOR0
 643 0248 00000000 		.word	0
 644 024c 5C000000 		.word	.LC3
 645 0250 7C000000 		.word	.LC4
 646 0254 9C000000 		.word	.LC5
 647              		.cfi_endproc
 648              	.LFE589:
 649              		.size	detectPeaks, .-detectPeaks
 650              		.section	.text.Init_Components,"ax",%progbits
 651              		.align	2
 652              		.global	Init_Components
 653              		.thumb
 654              		.thumb_func
 655              		.type	Init_Components, %function
 656              	Init_Components:
 657              	.LFB590:
 167:BLE_Task.c    ****     ADC_Start();
 658              		.loc 1 167 0
 659              		.cfi_startproc
 660              		@ args = 0, pretend = 0, frame = 0
 661              		@ frame_needed = 0, uses_anonymous_args = 0
 662 0000 08B5     		push	{r3, lr}
 663              		.cfi_def_cfa_offset 8
 664              		.cfi_offset 3, -8
 665              		.cfi_offset 14, -4
 168:BLE_Task.c    ****     UART_Start();
 666              		.loc 1 168 0
 667 0002 FFF7FEFF 		bl	ADC_Start
 668              	.LVL70:
 169:BLE_Task.c    ****     ADC_StartConvert();
ARM GAS  C:\Users\xhuli\AppData\Local\Temp\ccrNCJrA.s 			page 38


 669              		.loc 1 169 0
 670 0006 FFF7FEFF 		bl	UART_Start
 671              	.LVL71:
 170:BLE_Task.c    ****     I2C_Start();
 672              		.loc 1 170 0
 673 000a FFF7FEFF 		bl	ADC_StartConvert
 674              	.LVL72:
 171:BLE_Task.c    ****     printf(">>Components Initialized!\r\n");
 675              		.loc 1 171 0
 676 000e FFF7FEFF 		bl	I2C_Start
 677              	.LVL73:
 172:BLE_Task.c    **** }
 678              		.loc 1 172 0
 679 0012 0248     		ldr	r0, .L49
 680 0014 FFF7FEFF 		bl	puts
 681              	.LVL74:
 682 0018 08BD     		pop	{r3, pc}
 683              	.L50:
 684 001a 00BF     		.align	2
 685              	.L49:
 686 001c BC000000 		.word	.LC6
 687              		.cfi_endproc
 688              	.LFE590:
 689              		.size	Init_Components, .-Init_Components
 690              		.section	.text.getTemperature,"ax",%progbits
 691              		.align	2
 692              		.global	getTemperature
 693              		.thumb
 694              		.thumb_func
 695              		.type	getTemperature, %function
 696              	getTemperature:
 697              	.LFB591:
 178:BLE_Task.c    ****     float raw = 0;
 698              		.loc 1 178 0
 699              		.cfi_startproc
 700              		@ args = 0, pretend = 0, frame = 0
 701              		@ frame_needed = 0, uses_anonymous_args = 0
 702 0000 70B5     		push	{r4, r5, r6, lr}
 703              		.cfi_def_cfa_offset 16
 704              		.cfi_offset 4, -16
 705              		.cfi_offset 5, -12
 706              		.cfi_offset 6, -8
 707              		.cfi_offset 14, -4
 708 0002 2DED028B 		vpush.64	{d8}
 709              		.cfi_def_cfa_offset 24
 710              		.cfi_offset 80, -24
 711              		.cfi_offset 81, -20
 712 0006 82B0     		sub	sp, sp, #8
 713              		.cfi_def_cfa_offset 32
 714              	.LVL75:
 182:BLE_Task.c    ****     Cy_SCB_I2C_MasterWriteByte(I2C_HW, MAX30205_TEMPERATURE, 0, &I2C_context);
 715              		.loc 1 182 0
 716 0008 294E     		ldr	r6, .L55
 717 000a 3178     		ldrb	r1, [r6]	@ zero_extendqisi2
 718 000c 294C     		ldr	r4, .L55+4
 719 000e 2A4D     		ldr	r5, .L55+8
 720 0010 0095     		str	r5, [sp]
ARM GAS  C:\Users\xhuli\AppData\Local\Temp\ccrNCJrA.s 			page 39


 721 0012 0023     		movs	r3, #0
 722 0014 1A46     		mov	r2, r3
 723 0016 2046     		mov	r0, r4
 724 0018 FFF7FEFF 		bl	Cy_SCB_I2C_MasterSendStart
 725              	.LVL76:
 183:BLE_Task.c    ****     Cy_SCB_I2C_MasterSendReStart(I2C_HW, sensorAddress, CY_SCB_I2C_READ_XFER, 0, &I2C_context);
 726              		.loc 1 183 0
 727 001c 2B46     		mov	r3, r5
 728 001e 0022     		movs	r2, #0
 729 0020 1146     		mov	r1, r2
 730 0022 2046     		mov	r0, r4
 731 0024 FFF7FEFF 		bl	Cy_SCB_I2C_MasterWriteByte
 732              	.LVL77:
 184:BLE_Task.c    ****     
 733              		.loc 1 184 0
 734 0028 3178     		ldrb	r1, [r6]	@ zero_extendqisi2
 735 002a 0095     		str	r5, [sp]
 736 002c 0023     		movs	r3, #0
 737 002e 0122     		movs	r2, #1
 738 0030 2046     		mov	r0, r4
 739 0032 FFF7FEFF 		bl	Cy_SCB_I2C_MasterSendReStart
 740              	.LVL78:
 741              	.LBB33:
 186:BLE_Task.c    ****         Cy_SCB_I2C_MasterReadByte(I2C_HW, CY_SCB_I2C_ACK, &I2C_Data[i], 0, &I2C_context);
 742              		.loc 1 186 0
 743 0036 0024     		movs	r4, #0
 744 0038 21E0     		b	.L52
 745              	.LVL79:
 746              	.L53:
 187:BLE_Task.c    ****         raw = I2C_Data[0]; 
 747              		.loc 1 187 0 discriminator 3
 748 003a 204D     		ldr	r5, .L55+12
 749 003c 05F54D72 		add	r2, r5, #820
 750 0040 1D4B     		ldr	r3, .L55+8
 751 0042 0093     		str	r3, [sp]
 752 0044 0023     		movs	r3, #0
 753 0046 2244     		add	r2, r2, r4
 754 0048 1946     		mov	r1, r3
 755 004a 1A48     		ldr	r0, .L55+4
 756 004c FFF7FEFF 		bl	Cy_SCB_I2C_MasterReadByte
 757              	.LVL80:
 188:BLE_Task.c    ****         raw2 = I2C_Data[1] * 0.00390625;
 758              		.loc 1 188 0 discriminator 3
 759 0050 95F83433 		ldrb	r3, [r5, #820]	@ zero_extendqisi2
 760 0054 08EE103A 		vmov	s16, r3	@ int
 761 0058 B8EE488A 		vcvt.f32.u32	s16, s16
 762              	.LVL81:
 189:BLE_Task.c    ****         temperature = raw + raw2;
 763              		.loc 1 189 0 discriminator 3
 764 005c 95F83503 		ldrb	r0, [r5, #821]	@ zero_extendqisi2
 765 0060 FFF7FEFF 		bl	__aeabi_i2d
 766              	.LVL82:
 767 0064 0022     		movs	r2, #0
 768 0066 164B     		ldr	r3, .L55+16
 769 0068 FFF7FEFF 		bl	__aeabi_dmul
 770              	.LVL83:
 771 006c FFF7FEFF 		bl	__aeabi_d2f
ARM GAS  C:\Users\xhuli\AppData\Local\Temp\ccrNCJrA.s 			page 40


 772              	.LVL84:
 190:BLE_Task.c    ****     }
 773              		.loc 1 190 0 discriminator 3
 774 0070 07EE900A 		vmov	s15, r0
 775 0074 38EE278A 		vadd.f32	s16, s16, s15
 776              	.LVL85:
 777 0078 85EDCE8A 		vstr.32	s16, [r5, #824]
 186:BLE_Task.c    ****         Cy_SCB_I2C_MasterReadByte(I2C_HW, CY_SCB_I2C_ACK, &I2C_Data[i], 0, &I2C_context);
 778              		.loc 1 186 0 discriminator 3
 779 007c 0134     		adds	r4, r4, #1
 780              	.LVL86:
 781              	.L52:
 186:BLE_Task.c    ****         Cy_SCB_I2C_MasterReadByte(I2C_HW, CY_SCB_I2C_ACK, &I2C_Data[i], 0, &I2C_context);
 782              		.loc 1 186 0 is_stmt 0 discriminator 1
 783 007e 012C     		cmp	r4, #1
 784 0080 DBD9     		bls	.L53
 785              	.LBE33:
 193:BLE_Task.c    ****     Cy_SCB_I2C_MasterSendStop(I2C_HW, 0, &I2C_context);
 786              		.loc 1 193 0 is_stmt 1
 787 0082 0E4C     		ldr	r4, .L55+12
 788              	.LVL87:
 789 0084 0B4D     		ldr	r5, .L55+4
 790 0086 0C4E     		ldr	r6, .L55+8
 791 0088 0096     		str	r6, [sp]
 792 008a 0023     		movs	r3, #0
 793 008c 04F23732 		addw	r2, r4, #823
 794 0090 0121     		movs	r1, #1
 795 0092 2846     		mov	r0, r5
 796 0094 FFF7FEFF 		bl	Cy_SCB_I2C_MasterReadByte
 797              	.LVL88:
 194:BLE_Task.c    ****     
 798              		.loc 1 194 0
 799 0098 3246     		mov	r2, r6
 800 009a 0021     		movs	r1, #0
 801 009c 2846     		mov	r0, r5
 802 009e FFF7FEFF 		bl	Cy_SCB_I2C_MasterSendStop
 803              	.LVL89:
 197:BLE_Task.c    **** 
 804              		.loc 1 197 0
 805 00a2 D4F83803 		ldr	r0, [r4, #824]	@ float
 806 00a6 02B0     		add	sp, sp, #8
 807              		.cfi_def_cfa_offset 24
 808              		@ sp needed
 809 00a8 BDEC028B 		vldm	sp!, {d8}
 810              		.cfi_restore 80
 811              		.cfi_restore 81
 812              		.cfi_def_cfa_offset 16
 813 00ac 70BD     		pop	{r4, r5, r6, pc}
 814              	.L56:
 815 00ae 00BF     		.align	2
 816              	.L55:
 817 00b0 00000000 		.word	.LANCHOR1
 818 00b4 00006740 		.word	1080492032
 819 00b8 00000000 		.word	I2C_context
 820 00bc 00000000 		.word	.LANCHOR0
 821 00c0 0000703F 		.word	1064304640
 822              		.cfi_endproc
ARM GAS  C:\Users\xhuli\AppData\Local\Temp\ccrNCJrA.s 			page 41


 823              	.LFE591:
 824              		.size	getTemperature, .-getTemperature
 825              		.section	.text.sendTempData,"ax",%progbits
 826              		.align	2
 827              		.global	sendTempData
 828              		.thumb
 829              		.thumb_func
 830              		.type	sendTempData, %function
 831              	sendTempData:
 832              	.LFB592:
 203:BLE_Task.c    ****     cy_stc_ble_gatt_handle_value_pair_t serviceHandle;
 833              		.loc 1 203 0
 834              		.cfi_startproc
 835              		@ args = 0, pretend = 0, frame = 24
 836              		@ frame_needed = 0, uses_anonymous_args = 0
 837 0000 00B5     		push	{lr}
 838              		.cfi_def_cfa_offset 4
 839              		.cfi_offset 14, -4
 840 0002 87B0     		sub	sp, sp, #28
 841              		.cfi_def_cfa_offset 32
 205:BLE_Task.c    ****     
 842              		.loc 1 205 0
 843 0004 1A23     		movs	r3, #26
 844 0006 ADF81430 		strh	r3, [sp, #20]	@ movhi
 209:BLE_Task.c    ****     
 845              		.loc 1 209 0
 846 000a FFF7FEFF 		bl	getTemperature
 847              	.LVL90:
 848 000e FFF7FEFF 		bl	__aeabi_f2d
 849              	.LVL91:
 850 0012 0246     		mov	r2, r0
 851 0014 0B46     		mov	r3, r1
 852 0016 0E49     		ldr	r1, .L61
 853 0018 01A8     		add	r0, sp, #4
 854 001a FFF7FEFF 		bl	sprintf
 855              	.LVL92:
 856              	.LBB34:
 211:BLE_Task.c    ****     {
 857              		.loc 1 211 0
 858 001e 0023     		movs	r3, #0
 859 0020 08E0     		b	.L58
 860              	.LVL93:
 861              	.L59:
 213:BLE_Task.c    ****     }
 862              		.loc 1 213 0 discriminator 3
 863 0022 06AA     		add	r2, sp, #24
 864 0024 1A44     		add	r2, r2, r3
 865 0026 12F8141C 		ldrb	r1, [r2, #-20]	@ zero_extendqisi2
 866 002a 0A4A     		ldr	r2, .L61+4
 867 002c 1A44     		add	r2, r2, r3
 868 002e 82F83C13 		strb	r1, [r2, #828]
 211:BLE_Task.c    ****     {
 869              		.loc 1 211 0 discriminator 3
 870 0032 0133     		adds	r3, r3, #1
 871              	.LVL94:
 872              	.L58:
 211:BLE_Task.c    ****     {
ARM GAS  C:\Users\xhuli\AppData\Local\Temp\ccrNCJrA.s 			page 42


 873              		.loc 1 211 0 is_stmt 0 discriminator 1
 874 0034 042B     		cmp	r3, #4
 875 0036 F4D9     		bls	.L59
 876              	.LBE34:
 216:BLE_Task.c    ****     serviceHandle.value.val = (uint8_t*) &I2C_bytes;
 877              		.loc 1 216 0 is_stmt 1
 878 0038 0523     		movs	r3, #5
 879              	.LVL95:
 880 003a ADF81030 		strh	r3, [sp, #16]	@ movhi
 217:BLE_Task.c    ****     
 881              		.loc 1 217 0
 882 003e 06A8     		add	r0, sp, #24
 883 0040 054B     		ldr	r3, .L61+8
 884 0042 40F80C3D 		str	r3, [r0, #-12]!
 219:BLE_Task.c    **** }
 885              		.loc 1 219 0
 886 0046 FFF7FEFF 		bl	Cy_BLE_GATTS_WriteAttributeValueLocal
 887              	.LVL96:
 220:BLE_Task.c    **** 
 888              		.loc 1 220 0
 889 004a 07B0     		add	sp, sp, #28
 890              		.cfi_def_cfa_offset 4
 891              		@ sp needed
 892 004c 5DF804FB 		ldr	pc, [sp], #4
 893              	.L62:
 894              		.align	2
 895              	.L61:
 896 0050 D8000000 		.word	.LC7
 897 0054 00000000 		.word	.LANCHOR0
 898 0058 3C030000 		.word	.LANCHOR0+828
 899              		.cfi_endproc
 900              	.LFE592:
 901              		.size	sendTempData, .-sendTempData
 902              		.section	.text.writeRefValue,"ax",%progbits
 903              		.align	2
 904              		.global	writeRefValue
 905              		.thumb
 906              		.thumb_func
 907              		.type	writeRefValue, %function
 908              	writeRefValue:
 909              	.LFB593:
 225:BLE_Task.c    ****     //Value pair for the BLE service
 910              		.loc 1 225 0
 911              		.cfi_startproc
 912              		@ args = 0, pretend = 0, frame = 24
 913              		@ frame_needed = 0, uses_anonymous_args = 0
 914 0000 00B5     		push	{lr}
 915              		.cfi_def_cfa_offset 4
 916              		.cfi_offset 14, -4
 917 0002 87B0     		sub	sp, sp, #28
 918              		.cfi_def_cfa_offset 32
 230:BLE_Task.c    ****     //ADC Value
 919              		.loc 1 230 0
 920 0004 1623     		movs	r3, #22
 921 0006 ADF81430 		strh	r3, [sp, #20]	@ movhi
 922              	.LVL97:
 923              	.LBB38:
ARM GAS  C:\Users\xhuli\AppData\Local\Temp\ccrNCJrA.s 			page 43


 924              	.LBB39:
 984:Generated_Source\PSoC6/ADC.h **** 
 925              		.loc 2 984 0
 926 000a 184B     		ldr	r3, .L68
 927 000c 1B68     		ldr	r3, [r3]
 928 000e 03EB8303 		add	r3, r3, r3, lsl #2
 929 0012 9A00     		lsls	r2, r3, #2
 930 0014 164B     		ldr	r3, .L68+4
 931 0016 1A44     		add	r2, r2, r3
 932 0018 5368     		ldr	r3, [r2, #4]
 933 001a 23B9     		cbnz	r3, .L64
 934 001c 4FF47671 		mov	r1, #984
 935 0020 1448     		ldr	r0, .L68+8
 936 0022 FFF7FEFF 		bl	Cy_SysLib_AssertFailed
 937              	.LVL98:
 938              	.L64:
 939              		.loc 2 986 0
 940 0026 0021     		movs	r1, #0
 941 0028 1348     		ldr	r0, .L68+12
 942 002a FFF7FEFF 		bl	Cy_SAR_GetResult16
 943              	.LVL99:
 944              	.LBE39:
 945              	.LBE38:
 236:BLE_Task.c    ****     //Passing each ASCII character to 8-bit unsigned integer 
 946              		.loc 1 236 0
 947 002e 82B2     		uxth	r2, r0
 948 0030 1249     		ldr	r1, .L68+16
 949 0032 01A8     		add	r0, sp, #4
 950 0034 FFF7FEFF 		bl	sprintf
 951              	.LVL100:
 952              	.LBB40:
 238:BLE_Task.c    ****     {
 953              		.loc 1 238 0
 954 0038 0023     		movs	r3, #0
 955 003a 08E0     		b	.L65
 956              	.LVL101:
 957              	.L66:
 240:BLE_Task.c    ****     }
 958              		.loc 1 240 0 discriminator 3
 959 003c 06AA     		add	r2, sp, #24
 960 003e 1A44     		add	r2, r2, r3
 961 0040 12F8141C 		ldrb	r1, [r2, #-20]	@ zero_extendqisi2
 962 0044 0E4A     		ldr	r2, .L68+20
 963 0046 1A44     		add	r2, r2, r3
 964 0048 82F84413 		strb	r1, [r2, #836]
 238:BLE_Task.c    ****     {
 965              		.loc 1 238 0 discriminator 3
 966 004c 0133     		adds	r3, r3, #1
 967              	.LVL102:
 968              	.L65:
 238:BLE_Task.c    ****     {
 969              		.loc 1 238 0 is_stmt 0 discriminator 1
 970 004e 032B     		cmp	r3, #3
 971 0050 F4DD     		ble	.L66
 972              	.LBE40:
 243:BLE_Task.c    ****     serviceHandle.value.val = (uint8_t*) &ADC_bytes;
 973              		.loc 1 243 0 is_stmt 1
ARM GAS  C:\Users\xhuli\AppData\Local\Temp\ccrNCJrA.s 			page 44


 974 0052 0423     		movs	r3, #4
 975              	.LVL103:
 976 0054 ADF81030 		strh	r3, [sp, #16]	@ movhi
 244:BLE_Task.c    ****     //Updating local GATT database
 977              		.loc 1 244 0
 978 0058 06A8     		add	r0, sp, #24
 979 005a 0A4B     		ldr	r3, .L68+24
 980 005c 40F80C3D 		str	r3, [r0, #-12]!
 246:BLE_Task.c    **** }
 981              		.loc 1 246 0
 982 0060 FFF7FEFF 		bl	Cy_BLE_GATTS_WriteAttributeValueLocal
 983              	.LVL104:
 247:BLE_Task.c    **** 
 984              		.loc 1 247 0
 985 0064 07B0     		add	sp, sp, #28
 986              		.cfi_def_cfa_offset 4
 987              		@ sp needed
 988 0066 5DF804FB 		ldr	pc, [sp], #4
 989              	.L69:
 990 006a 00BF     		.align	2
 991              	.L68:
 992 006c 00000000 		.word	ADC_currentConfig
 993 0070 00000000 		.word	ADC_allConfigs
 994 0074 20000000 		.word	.LC1
 995 0078 00001D41 		.word	1092419584
 996 007c DC000000 		.word	.LC8
 997 0080 00000000 		.word	.LANCHOR0
 998 0084 44030000 		.word	.LANCHOR0+836
 999              		.cfi_endproc
 1000              	.LFE593:
 1001              		.size	writeRefValue, .-writeRefValue
 1002              		.section	.text.shiftOut,"ax",%progbits
 1003              		.align	2
 1004              		.global	shiftOut
 1005              		.thumb
 1006              		.thumb_func
 1007              		.type	shiftOut, %function
 1008              	shiftOut:
 1009              	.LFB594:
 253:BLE_Task.c    ****         uint8_t i;
 1010              		.loc 1 253 0
 1011              		.cfi_startproc
 1012              		@ args = 0, pretend = 0, frame = 0
 1013              		@ frame_needed = 0, uses_anonymous_args = 0
 1014              	.LVL105:
 1015 0000 70B5     		push	{r4, r5, r6, lr}
 1016              		.cfi_def_cfa_offset 16
 1017              		.cfi_offset 4, -16
 1018              		.cfi_offset 5, -12
 1019              		.cfi_offset 6, -8
 1020              		.cfi_offset 14, -4
 1021 0002 0646     		mov	r6, r0
 1022 0004 0D46     		mov	r5, r1
 1023              	.LVL106:
 1024              	.LBB41:
 1025              	.LBB42:
 1026              		.file 3 "Generated_Source\\PSoC6\\pdl\\drivers/peripheral/gpio/cy_gpio.h"
ARM GAS  C:\Users\xhuli\AppData\Local\Temp\ccrNCJrA.s 			page 45


   1:Generated_Source\PSoC6\pdl\drivers/peripheral/gpio/cy_gpio.h **** /***************************************************************************//**
   2:Generated_Source\PSoC6\pdl\drivers/peripheral/gpio/cy_gpio.h **** * \file cy_gpio.h
   3:Generated_Source\PSoC6\pdl\drivers/peripheral/gpio/cy_gpio.h **** * \version 1.20
   4:Generated_Source\PSoC6\pdl\drivers/peripheral/gpio/cy_gpio.h **** *
   5:Generated_Source\PSoC6\pdl\drivers/peripheral/gpio/cy_gpio.h **** * Provides an API declaration of the GPIO driver
   6:Generated_Source\PSoC6\pdl\drivers/peripheral/gpio/cy_gpio.h **** *
   7:Generated_Source\PSoC6\pdl\drivers/peripheral/gpio/cy_gpio.h **** ********************************************************************************
   8:Generated_Source\PSoC6\pdl\drivers/peripheral/gpio/cy_gpio.h **** * \copyright
   9:Generated_Source\PSoC6\pdl\drivers/peripheral/gpio/cy_gpio.h **** * Copyright 2016-2018, Cypress Semiconductor Corporation. All rights reserved.
  10:Generated_Source\PSoC6\pdl\drivers/peripheral/gpio/cy_gpio.h **** * You may use this file only in accordance with the license, terms, conditions,
  11:Generated_Source\PSoC6\pdl\drivers/peripheral/gpio/cy_gpio.h **** * disclaimers, and limitations in the end user license agreement accompanying
  12:Generated_Source\PSoC6\pdl\drivers/peripheral/gpio/cy_gpio.h **** * the software package with which this file was provided.
  13:Generated_Source\PSoC6\pdl\drivers/peripheral/gpio/cy_gpio.h **** *******************************************************************************/
  14:Generated_Source\PSoC6\pdl\drivers/peripheral/gpio/cy_gpio.h **** 
  15:Generated_Source\PSoC6\pdl\drivers/peripheral/gpio/cy_gpio.h **** /**
  16:Generated_Source\PSoC6\pdl\drivers/peripheral/gpio/cy_gpio.h **** * \addtogroup group_gpio
  17:Generated_Source\PSoC6\pdl\drivers/peripheral/gpio/cy_gpio.h **** * \{
  18:Generated_Source\PSoC6\pdl\drivers/peripheral/gpio/cy_gpio.h **** * The GPIO driver provides an API to configure and access device Input/Output pins.
  19:Generated_Source\PSoC6\pdl\drivers/peripheral/gpio/cy_gpio.h **** *
  20:Generated_Source\PSoC6\pdl\drivers/peripheral/gpio/cy_gpio.h **** * The functions and other declarations used in this driver are in cy_gpio.h. 
  21:Generated_Source\PSoC6\pdl\drivers/peripheral/gpio/cy_gpio.h **** * You can include cy_pdl.h (ModusToolbox only) to get access to all functions 
  22:Generated_Source\PSoC6\pdl\drivers/peripheral/gpio/cy_gpio.h **** * and declarations in the PDL.
  23:Generated_Source\PSoC6\pdl\drivers/peripheral/gpio/cy_gpio.h **** *
  24:Generated_Source\PSoC6\pdl\drivers/peripheral/gpio/cy_gpio.h **** * IO pins include all general purpose types such as GPIO, SIO, HSIO, AUXIO, and
  25:Generated_Source\PSoC6\pdl\drivers/peripheral/gpio/cy_gpio.h **** * their variants.
  26:Generated_Source\PSoC6\pdl\drivers/peripheral/gpio/cy_gpio.h **** *
  27:Generated_Source\PSoC6\pdl\drivers/peripheral/gpio/cy_gpio.h **** * Initialization can be performed either at the port level or by configuring the
  28:Generated_Source\PSoC6\pdl\drivers/peripheral/gpio/cy_gpio.h **** * individual pins. For efficient use of code space, port
  29:Generated_Source\PSoC6\pdl\drivers/peripheral/gpio/cy_gpio.h **** * configuration should be used in the field. Refer to the product device header files 
  30:Generated_Source\PSoC6\pdl\drivers/peripheral/gpio/cy_gpio.h **** * for the list of supported ports and pins.
  31:Generated_Source\PSoC6\pdl\drivers/peripheral/gpio/cy_gpio.h **** * 
  32:Generated_Source\PSoC6\pdl\drivers/peripheral/gpio/cy_gpio.h **** * - Single pin configuration is performed by using \ref Cy_GPIO_Pin_FastInit 
  33:Generated_Source\PSoC6\pdl\drivers/peripheral/gpio/cy_gpio.h **** *   (provide specific values) or \ref Cy_GPIO_Pin_Init (provide a filled
  34:Generated_Source\PSoC6\pdl\drivers/peripheral/gpio/cy_gpio.h **** *   cy_stc_gpio_pin_config_t structure).
  35:Generated_Source\PSoC6\pdl\drivers/peripheral/gpio/cy_gpio.h **** * - An entire port can be configured using \ref Cy_GPIO_Port_Init. Provide a filled 
  36:Generated_Source\PSoC6\pdl\drivers/peripheral/gpio/cy_gpio.h **** *   cy_stc_gpio_prt_config_t structure. The values in the structure are 
  37:Generated_Source\PSoC6\pdl\drivers/peripheral/gpio/cy_gpio.h **** *   bitfields representing the desired value for each pin in the port.
  38:Generated_Source\PSoC6\pdl\drivers/peripheral/gpio/cy_gpio.h **** * - Pin configuration and management is based on the port address and pin number.
  39:Generated_Source\PSoC6\pdl\drivers/peripheral/gpio/cy_gpio.h **** *   \ref Cy_GPIO_PortToAddr function can optionally be used to calculate the port
  40:Generated_Source\PSoC6\pdl\drivers/peripheral/gpio/cy_gpio.h **** *   address from the port number at run-time.
  41:Generated_Source\PSoC6\pdl\drivers/peripheral/gpio/cy_gpio.h **** *
  42:Generated_Source\PSoC6\pdl\drivers/peripheral/gpio/cy_gpio.h **** * Once the pin/port initialization is complete, each pin can be accessed by 
  43:Generated_Source\PSoC6\pdl\drivers/peripheral/gpio/cy_gpio.h **** * specifying the port (GPIO_PRT_Type) and the pin (0-7) in the provided API 
  44:Generated_Source\PSoC6\pdl\drivers/peripheral/gpio/cy_gpio.h **** * functions.
  45:Generated_Source\PSoC6\pdl\drivers/peripheral/gpio/cy_gpio.h **** *
  46:Generated_Source\PSoC6\pdl\drivers/peripheral/gpio/cy_gpio.h **** * \section group_gpio_configuration Configuration Considerations
  47:Generated_Source\PSoC6\pdl\drivers/peripheral/gpio/cy_gpio.h **** *
  48:Generated_Source\PSoC6\pdl\drivers/peripheral/gpio/cy_gpio.h **** * 1. Pin multiplexing is controlled through the High-Speed IO Matrix (HSIOM) selection.
  49:Generated_Source\PSoC6\pdl\drivers/peripheral/gpio/cy_gpio.h **** *    This allows the pin to connect to signal sources/sinks throughout the device,
  50:Generated_Source\PSoC6\pdl\drivers/peripheral/gpio/cy_gpio.h **** *    as defined by the pin HSIOM selection options (en_hsiom_sel_t).
  51:Generated_Source\PSoC6\pdl\drivers/peripheral/gpio/cy_gpio.h **** * 2. All pins are initialized to High-Z drive mode with HSIOM connected to CPU (SW
  52:Generated_Source\PSoC6\pdl\drivers/peripheral/gpio/cy_gpio.h **** *    control digital pin only) at Power-On-Reset(POR).
  53:Generated_Source\PSoC6\pdl\drivers/peripheral/gpio/cy_gpio.h **** * 3. Some API functions perform read-modify-write operations on shared port
  54:Generated_Source\PSoC6\pdl\drivers/peripheral/gpio/cy_gpio.h **** *    registers. These functions are not thread safe and care must be taken when
  55:Generated_Source\PSoC6\pdl\drivers/peripheral/gpio/cy_gpio.h **** *    called by the application.
  56:Generated_Source\PSoC6\pdl\drivers/peripheral/gpio/cy_gpio.h **** * 4. Digital input buffer provides a high-impedance buffer for the external 
  57:Generated_Source\PSoC6\pdl\drivers/peripheral/gpio/cy_gpio.h **** *    digital input. The input buffer is connected to the HSIOM for routing to 
ARM GAS  C:\Users\xhuli\AppData\Local\Temp\ccrNCJrA.s 			page 46


  58:Generated_Source\PSoC6\pdl\drivers/peripheral/gpio/cy_gpio.h **** *    the CPU port registers and selected peripheral. Enabling the input 
  59:Generated_Source\PSoC6\pdl\drivers/peripheral/gpio/cy_gpio.h **** *    buffer provides possibility to read the pin state via the CPU.
  60:Generated_Source\PSoC6\pdl\drivers/peripheral/gpio/cy_gpio.h **** *    If pin is connected to an analog signal, the input buffer should be 
  61:Generated_Source\PSoC6\pdl\drivers/peripheral/gpio/cy_gpio.h **** *    disabled to avoid crowbar currents. For more information refer to device 
  62:Generated_Source\PSoC6\pdl\drivers/peripheral/gpio/cy_gpio.h **** *    TRM and the device datasheet.
  63:Generated_Source\PSoC6\pdl\drivers/peripheral/gpio/cy_gpio.h **** *
  64:Generated_Source\PSoC6\pdl\drivers/peripheral/gpio/cy_gpio.h **** * Multiple pins on a port can be updated using direct port register writes with an
  65:Generated_Source\PSoC6\pdl\drivers/peripheral/gpio/cy_gpio.h **** * appropriate port mask. An example is shown below, highlighting the different ways of 
  66:Generated_Source\PSoC6\pdl\drivers/peripheral/gpio/cy_gpio.h **** * configuring Port 1 pins using:
  67:Generated_Source\PSoC6\pdl\drivers/peripheral/gpio/cy_gpio.h **** * 
  68:Generated_Source\PSoC6\pdl\drivers/peripheral/gpio/cy_gpio.h **** * - Port output data register
  69:Generated_Source\PSoC6\pdl\drivers/peripheral/gpio/cy_gpio.h **** * - Port output data set register
  70:Generated_Source\PSoC6\pdl\drivers/peripheral/gpio/cy_gpio.h **** * - Port output data clear register
  71:Generated_Source\PSoC6\pdl\drivers/peripheral/gpio/cy_gpio.h **** *
  72:Generated_Source\PSoC6\pdl\drivers/peripheral/gpio/cy_gpio.h **** * \snippet gpio/gpio_v1_10_sut_01.cydsn/main_cm4.c Cy_GPIO_Snippet
  73:Generated_Source\PSoC6\pdl\drivers/peripheral/gpio/cy_gpio.h **** *
  74:Generated_Source\PSoC6\pdl\drivers/peripheral/gpio/cy_gpio.h **** * \section group_gpio_more_information More Information
  75:Generated_Source\PSoC6\pdl\drivers/peripheral/gpio/cy_gpio.h **** *
  76:Generated_Source\PSoC6\pdl\drivers/peripheral/gpio/cy_gpio.h **** * Refer to the technical reference manual (TRM) and the device datasheet.
  77:Generated_Source\PSoC6\pdl\drivers/peripheral/gpio/cy_gpio.h **** *
  78:Generated_Source\PSoC6\pdl\drivers/peripheral/gpio/cy_gpio.h **** * \section group_gpio_MISRA MISRA-C Compliance
  79:Generated_Source\PSoC6\pdl\drivers/peripheral/gpio/cy_gpio.h **** * The GPIO driver has the following specific deviations:
  80:Generated_Source\PSoC6\pdl\drivers/peripheral/gpio/cy_gpio.h **** *
  81:Generated_Source\PSoC6\pdl\drivers/peripheral/gpio/cy_gpio.h **** * <table class="doxtable">
  82:Generated_Source\PSoC6\pdl\drivers/peripheral/gpio/cy_gpio.h **** *   <tr>
  83:Generated_Source\PSoC6\pdl\drivers/peripheral/gpio/cy_gpio.h **** *     <th>MISRA Rule</th>
  84:Generated_Source\PSoC6\pdl\drivers/peripheral/gpio/cy_gpio.h **** *     <th>Rule Class (Required/Advisory)</th>
  85:Generated_Source\PSoC6\pdl\drivers/peripheral/gpio/cy_gpio.h **** *     <th>Rule Description</th>
  86:Generated_Source\PSoC6\pdl\drivers/peripheral/gpio/cy_gpio.h **** *     <th>Description of Deviation(s)</th>
  87:Generated_Source\PSoC6\pdl\drivers/peripheral/gpio/cy_gpio.h **** *   </tr>
  88:Generated_Source\PSoC6\pdl\drivers/peripheral/gpio/cy_gpio.h **** *   <tr>
  89:Generated_Source\PSoC6\pdl\drivers/peripheral/gpio/cy_gpio.h **** *     <td>11.4</td>
  90:Generated_Source\PSoC6\pdl\drivers/peripheral/gpio/cy_gpio.h **** *     <td>A</td>
  91:Generated_Source\PSoC6\pdl\drivers/peripheral/gpio/cy_gpio.h **** *     <td>A cast should not be performed between a pointer to object type and
  92:Generated_Source\PSoC6\pdl\drivers/peripheral/gpio/cy_gpio.h **** *         a different pointer to object type.</td>
  93:Generated_Source\PSoC6\pdl\drivers/peripheral/gpio/cy_gpio.h **** *     <td> This code is safe because the elements of both GPIO_PRT_V1_Type and GPIO_PRT_V2_Type 
  94:Generated_Source\PSoC6\pdl\drivers/peripheral/gpio/cy_gpio.h **** *          types have identical alignment.</td>
  95:Generated_Source\PSoC6\pdl\drivers/peripheral/gpio/cy_gpio.h **** *   </tr>
  96:Generated_Source\PSoC6\pdl\drivers/peripheral/gpio/cy_gpio.h **** *   <tr>
  97:Generated_Source\PSoC6\pdl\drivers/peripheral/gpio/cy_gpio.h **** *     <td>16.7</td>
  98:Generated_Source\PSoC6\pdl\drivers/peripheral/gpio/cy_gpio.h **** *     <td>A</td>
  99:Generated_Source\PSoC6\pdl\drivers/peripheral/gpio/cy_gpio.h **** *     <td>A pointer parameter in a function prototype should be declared as pointer 
 100:Generated_Source\PSoC6\pdl\drivers/peripheral/gpio/cy_gpio.h **** *         to const if the pointer is not used to modify the addressed object.</td>
 101:Generated_Source\PSoC6\pdl\drivers/peripheral/gpio/cy_gpio.h **** *     <td>The objects pointed to by the base addresses of the GPIO port are not always modified.
 102:Generated_Source\PSoC6\pdl\drivers/peripheral/gpio/cy_gpio.h **** *         While a const qualifier can be used in select scenarios, it brings little benefit
 103:Generated_Source\PSoC6\pdl\drivers/peripheral/gpio/cy_gpio.h **** *         in adding this to the affected functions. </td>
 104:Generated_Source\PSoC6\pdl\drivers/peripheral/gpio/cy_gpio.h **** *   </tr>
 105:Generated_Source\PSoC6\pdl\drivers/peripheral/gpio/cy_gpio.h **** * </table>
 106:Generated_Source\PSoC6\pdl\drivers/peripheral/gpio/cy_gpio.h **** *
 107:Generated_Source\PSoC6\pdl\drivers/peripheral/gpio/cy_gpio.h **** * \section group_gpio_changelog Changelog
 108:Generated_Source\PSoC6\pdl\drivers/peripheral/gpio/cy_gpio.h **** * <table class="doxtable">
 109:Generated_Source\PSoC6\pdl\drivers/peripheral/gpio/cy_gpio.h **** *   <tr><th>Version</th><th>Changes</th><th>Reason for Change</th></tr>
 110:Generated_Source\PSoC6\pdl\drivers/peripheral/gpio/cy_gpio.h **** *   <tr>
 111:Generated_Source\PSoC6\pdl\drivers/peripheral/gpio/cy_gpio.h **** *     <td rowspan="3">1.20</td>
 112:Generated_Source\PSoC6\pdl\drivers/peripheral/gpio/cy_gpio.h **** *     <td>Flattened the organization of the driver source code into the single source directory and
 113:Generated_Source\PSoC6\pdl\drivers/peripheral/gpio/cy_gpio.h **** *     <td>Driver library directory-structure simplification.</td>
 114:Generated_Source\PSoC6\pdl\drivers/peripheral/gpio/cy_gpio.h **** *   </tr>
ARM GAS  C:\Users\xhuli\AppData\Local\Temp\ccrNCJrA.s 			page 47


 115:Generated_Source\PSoC6\pdl\drivers/peripheral/gpio/cy_gpio.h **** *   <tr>
 116:Generated_Source\PSoC6\pdl\drivers/peripheral/gpio/cy_gpio.h **** *     <td>Added the functions for configuring the AMux bus splitter switch cells:
 117:Generated_Source\PSoC6\pdl\drivers/peripheral/gpio/cy_gpio.h **** *     - \ref Cy_GPIO_SetAmuxSplit
 118:Generated_Source\PSoC6\pdl\drivers/peripheral/gpio/cy_gpio.h **** *     - \ref Cy_GPIO_GetAmuxSplit
 119:Generated_Source\PSoC6\pdl\drivers/peripheral/gpio/cy_gpio.h **** *     </td>
 120:Generated_Source\PSoC6\pdl\drivers/peripheral/gpio/cy_gpio.h **** *     <td>Added a new functionality related to AMux bus.</td>
 121:Generated_Source\PSoC6\pdl\drivers/peripheral/gpio/cy_gpio.h **** *   </tr>
 122:Generated_Source\PSoC6\pdl\drivers/peripheral/gpio/cy_gpio.h **** *   <tr>
 123:Generated_Source\PSoC6\pdl\drivers/peripheral/gpio/cy_gpio.h **** *     <td>Added register access layer. Use register access macros instead
 124:Generated_Source\PSoC6\pdl\drivers/peripheral/gpio/cy_gpio.h **** *         of direct register access using dereferenced pointers.</td>
 125:Generated_Source\PSoC6\pdl\drivers/peripheral/gpio/cy_gpio.h **** *     <td>Makes register access device-independent, so that the PDL does 
 126:Generated_Source\PSoC6\pdl\drivers/peripheral/gpio/cy_gpio.h **** *         not need to be recompiled for each supported part number.</td>
 127:Generated_Source\PSoC6\pdl\drivers/peripheral/gpio/cy_gpio.h **** *   </tr>
 128:Generated_Source\PSoC6\pdl\drivers/peripheral/gpio/cy_gpio.h **** *   <tr>
 129:Generated_Source\PSoC6\pdl\drivers/peripheral/gpio/cy_gpio.h **** *     <td>1.10.1</td>
 130:Generated_Source\PSoC6\pdl\drivers/peripheral/gpio/cy_gpio.h **** *     <td>Updated description for the functions: \ref Cy_GPIO_GetInterruptStatus, 
 131:Generated_Source\PSoC6\pdl\drivers/peripheral/gpio/cy_gpio.h **** *         \ref Cy_GPIO_GetInterruptMask, \ref Cy_GPIO_GetInterruptStatusMasked.
 132:Generated_Source\PSoC6\pdl\drivers/peripheral/gpio/cy_gpio.h **** *
 133:Generated_Source\PSoC6\pdl\drivers/peripheral/gpio/cy_gpio.h **** *         Minor documentation edits.
 134:Generated_Source\PSoC6\pdl\drivers/peripheral/gpio/cy_gpio.h **** *     </td>
 135:Generated_Source\PSoC6\pdl\drivers/peripheral/gpio/cy_gpio.h **** *     <td>Documentation update and clarification</td>
 136:Generated_Source\PSoC6\pdl\drivers/peripheral/gpio/cy_gpio.h **** *   </tr>
 137:Generated_Source\PSoC6\pdl\drivers/peripheral/gpio/cy_gpio.h **** *   <tr>
 138:Generated_Source\PSoC6\pdl\drivers/peripheral/gpio/cy_gpio.h **** *     <td>1.10</td>
 139:Generated_Source\PSoC6\pdl\drivers/peripheral/gpio/cy_gpio.h **** *     <td>Added input parameter validation to the API functions</td>
 140:Generated_Source\PSoC6\pdl\drivers/peripheral/gpio/cy_gpio.h **** *     <td></td>
 141:Generated_Source\PSoC6\pdl\drivers/peripheral/gpio/cy_gpio.h **** *   </tr>
 142:Generated_Source\PSoC6\pdl\drivers/peripheral/gpio/cy_gpio.h **** *   <tr>
 143:Generated_Source\PSoC6\pdl\drivers/peripheral/gpio/cy_gpio.h **** *     <td>1.0</td>
 144:Generated_Source\PSoC6\pdl\drivers/peripheral/gpio/cy_gpio.h **** *     <td>Initial version</td>
 145:Generated_Source\PSoC6\pdl\drivers/peripheral/gpio/cy_gpio.h **** *     <td></td>
 146:Generated_Source\PSoC6\pdl\drivers/peripheral/gpio/cy_gpio.h **** *   </tr>
 147:Generated_Source\PSoC6\pdl\drivers/peripheral/gpio/cy_gpio.h **** * </table>
 148:Generated_Source\PSoC6\pdl\drivers/peripheral/gpio/cy_gpio.h **** *
 149:Generated_Source\PSoC6\pdl\drivers/peripheral/gpio/cy_gpio.h **** * \defgroup group_gpio_macros Macros
 150:Generated_Source\PSoC6\pdl\drivers/peripheral/gpio/cy_gpio.h **** * \defgroup group_gpio_functions Functions
 151:Generated_Source\PSoC6\pdl\drivers/peripheral/gpio/cy_gpio.h **** * \{
 152:Generated_Source\PSoC6\pdl\drivers/peripheral/gpio/cy_gpio.h **** *   \defgroup group_gpio_functions_init       Initialization Functions
 153:Generated_Source\PSoC6\pdl\drivers/peripheral/gpio/cy_gpio.h **** *   \defgroup group_gpio_functions_gpio       GPIO Functions
 154:Generated_Source\PSoC6\pdl\drivers/peripheral/gpio/cy_gpio.h **** *   \defgroup group_gpio_functions_sio        SIO Functions
 155:Generated_Source\PSoC6\pdl\drivers/peripheral/gpio/cy_gpio.h **** *   \defgroup group_gpio_functions_interrupt  Port Interrupt Functions
 156:Generated_Source\PSoC6\pdl\drivers/peripheral/gpio/cy_gpio.h **** * \}
 157:Generated_Source\PSoC6\pdl\drivers/peripheral/gpio/cy_gpio.h **** * \defgroup group_gpio_data_structures Data Structures
 158:Generated_Source\PSoC6\pdl\drivers/peripheral/gpio/cy_gpio.h **** * \defgroup group_gpio_enums Enumerated Types
 159:Generated_Source\PSoC6\pdl\drivers/peripheral/gpio/cy_gpio.h **** */
 160:Generated_Source\PSoC6\pdl\drivers/peripheral/gpio/cy_gpio.h **** 
 161:Generated_Source\PSoC6\pdl\drivers/peripheral/gpio/cy_gpio.h **** #if !defined(CY_GPIO_H)
 162:Generated_Source\PSoC6\pdl\drivers/peripheral/gpio/cy_gpio.h **** #define CY_GPIO_H
 163:Generated_Source\PSoC6\pdl\drivers/peripheral/gpio/cy_gpio.h **** 
 164:Generated_Source\PSoC6\pdl\drivers/peripheral/gpio/cy_gpio.h **** #include <stddef.h>
 165:Generated_Source\PSoC6\pdl\drivers/peripheral/gpio/cy_gpio.h **** #include "cy_device.h"
 166:Generated_Source\PSoC6\pdl\drivers/peripheral/gpio/cy_gpio.h **** #include "cy_device_headers.h"
 167:Generated_Source\PSoC6\pdl\drivers/peripheral/gpio/cy_gpio.h **** #include "cy_syslib.h"
 168:Generated_Source\PSoC6\pdl\drivers/peripheral/gpio/cy_gpio.h **** 
 169:Generated_Source\PSoC6\pdl\drivers/peripheral/gpio/cy_gpio.h **** #if defined(__cplusplus)
 170:Generated_Source\PSoC6\pdl\drivers/peripheral/gpio/cy_gpio.h **** extern "C" {
 171:Generated_Source\PSoC6\pdl\drivers/peripheral/gpio/cy_gpio.h **** #endif
ARM GAS  C:\Users\xhuli\AppData\Local\Temp\ccrNCJrA.s 			page 48


 172:Generated_Source\PSoC6\pdl\drivers/peripheral/gpio/cy_gpio.h **** 
 173:Generated_Source\PSoC6\pdl\drivers/peripheral/gpio/cy_gpio.h **** /** \addtogroup group_gpio_macros
 174:Generated_Source\PSoC6\pdl\drivers/peripheral/gpio/cy_gpio.h **** * \{
 175:Generated_Source\PSoC6\pdl\drivers/peripheral/gpio/cy_gpio.h **** */
 176:Generated_Source\PSoC6\pdl\drivers/peripheral/gpio/cy_gpio.h **** 
 177:Generated_Source\PSoC6\pdl\drivers/peripheral/gpio/cy_gpio.h **** /** Driver major version */
 178:Generated_Source\PSoC6\pdl\drivers/peripheral/gpio/cy_gpio.h **** #define CY_GPIO_DRV_VERSION_MAJOR       1
 179:Generated_Source\PSoC6\pdl\drivers/peripheral/gpio/cy_gpio.h **** 
 180:Generated_Source\PSoC6\pdl\drivers/peripheral/gpio/cy_gpio.h **** /** Driver minor version */
 181:Generated_Source\PSoC6\pdl\drivers/peripheral/gpio/cy_gpio.h **** #define CY_GPIO_DRV_VERSION_MINOR       20
 182:Generated_Source\PSoC6\pdl\drivers/peripheral/gpio/cy_gpio.h **** 
 183:Generated_Source\PSoC6\pdl\drivers/peripheral/gpio/cy_gpio.h **** /** GPIO driver ID */
 184:Generated_Source\PSoC6\pdl\drivers/peripheral/gpio/cy_gpio.h **** #define CY_GPIO_ID CY_PDL_DRV_ID(0x16U)
 185:Generated_Source\PSoC6\pdl\drivers/peripheral/gpio/cy_gpio.h **** 
 186:Generated_Source\PSoC6\pdl\drivers/peripheral/gpio/cy_gpio.h **** /** \} group_gpio_macros */
 187:Generated_Source\PSoC6\pdl\drivers/peripheral/gpio/cy_gpio.h **** 
 188:Generated_Source\PSoC6\pdl\drivers/peripheral/gpio/cy_gpio.h **** 
 189:Generated_Source\PSoC6\pdl\drivers/peripheral/gpio/cy_gpio.h **** /***************************************
 190:Generated_Source\PSoC6\pdl\drivers/peripheral/gpio/cy_gpio.h **** *       Enumerations
 191:Generated_Source\PSoC6\pdl\drivers/peripheral/gpio/cy_gpio.h **** ***************************************/
 192:Generated_Source\PSoC6\pdl\drivers/peripheral/gpio/cy_gpio.h **** /**
 193:Generated_Source\PSoC6\pdl\drivers/peripheral/gpio/cy_gpio.h **** * \addtogroup group_gpio_enums
 194:Generated_Source\PSoC6\pdl\drivers/peripheral/gpio/cy_gpio.h **** * \{
 195:Generated_Source\PSoC6\pdl\drivers/peripheral/gpio/cy_gpio.h **** */
 196:Generated_Source\PSoC6\pdl\drivers/peripheral/gpio/cy_gpio.h **** 
 197:Generated_Source\PSoC6\pdl\drivers/peripheral/gpio/cy_gpio.h **** /** GPIO Driver error codes */
 198:Generated_Source\PSoC6\pdl\drivers/peripheral/gpio/cy_gpio.h **** typedef enum 
 199:Generated_Source\PSoC6\pdl\drivers/peripheral/gpio/cy_gpio.h **** {
 200:Generated_Source\PSoC6\pdl\drivers/peripheral/gpio/cy_gpio.h ****     CY_GPIO_SUCCESS   = 0x00U,                                    /**< Returned successful */
 201:Generated_Source\PSoC6\pdl\drivers/peripheral/gpio/cy_gpio.h ****     CY_GPIO_BAD_PARAM = CY_GPIO_ID | CY_PDL_STATUS_ERROR | 0x01U, /**< Bad parameter was passed */
 202:Generated_Source\PSoC6\pdl\drivers/peripheral/gpio/cy_gpio.h **** } cy_en_gpio_status_t;
 203:Generated_Source\PSoC6\pdl\drivers/peripheral/gpio/cy_gpio.h **** 
 204:Generated_Source\PSoC6\pdl\drivers/peripheral/gpio/cy_gpio.h **** /** AMux switch open/close config */
 205:Generated_Source\PSoC6\pdl\drivers/peripheral/gpio/cy_gpio.h **** typedef enum
 206:Generated_Source\PSoC6\pdl\drivers/peripheral/gpio/cy_gpio.h **** {
 207:Generated_Source\PSoC6\pdl\drivers/peripheral/gpio/cy_gpio.h ****     CY_GPIO_AMUX_OPENALL,   /**< Open ground switch. Open right switch. Open left switch */
 208:Generated_Source\PSoC6\pdl\drivers/peripheral/gpio/cy_gpio.h ****     CY_GPIO_AMUX_L,         /**< Open ground switch. Open right switch. Close left switch */
 209:Generated_Source\PSoC6\pdl\drivers/peripheral/gpio/cy_gpio.h ****     CY_GPIO_AMUX_R,         /**< Open ground switch. Close right switch. Open left switch */
 210:Generated_Source\PSoC6\pdl\drivers/peripheral/gpio/cy_gpio.h ****     CY_GPIO_AMUX_LR,        /**< Open ground switch. Close right switch. Close left switch */
 211:Generated_Source\PSoC6\pdl\drivers/peripheral/gpio/cy_gpio.h ****     CY_GPIO_AMUX_G,         /**< Close ground switch. Open right switch. Open left switch */
 212:Generated_Source\PSoC6\pdl\drivers/peripheral/gpio/cy_gpio.h ****     CY_GPIO_AMUX_GL,        /**< Close ground switch. Open right switch. Close left switch */
 213:Generated_Source\PSoC6\pdl\drivers/peripheral/gpio/cy_gpio.h ****     CY_GPIO_AMUX_GR,        /**< Close ground switch. Close right switch. Open left switch */
 214:Generated_Source\PSoC6\pdl\drivers/peripheral/gpio/cy_gpio.h ****     CY_GPIO_AMUX_GLR,       /**< Close ground switch. Close right switch. Close left switch */
 215:Generated_Source\PSoC6\pdl\drivers/peripheral/gpio/cy_gpio.h **** }cy_en_gpio_amuxconnect_t;
 216:Generated_Source\PSoC6\pdl\drivers/peripheral/gpio/cy_gpio.h **** 
 217:Generated_Source\PSoC6\pdl\drivers/peripheral/gpio/cy_gpio.h **** /**
 218:Generated_Source\PSoC6\pdl\drivers/peripheral/gpio/cy_gpio.h **** * AMux Bus selection
 219:Generated_Source\PSoC6\pdl\drivers/peripheral/gpio/cy_gpio.h **** */
 220:Generated_Source\PSoC6\pdl\drivers/peripheral/gpio/cy_gpio.h **** typedef enum
 221:Generated_Source\PSoC6\pdl\drivers/peripheral/gpio/cy_gpio.h **** {
 222:Generated_Source\PSoC6\pdl\drivers/peripheral/gpio/cy_gpio.h ****     CY_GPIO_AMUXBUSA,       /**< AMuxBus A */
 223:Generated_Source\PSoC6\pdl\drivers/peripheral/gpio/cy_gpio.h ****     CY_GPIO_AMUXBUSB        /**< AMuxBus B */
 224:Generated_Source\PSoC6\pdl\drivers/peripheral/gpio/cy_gpio.h **** }cy_en_gpio_amuxselect_t;
 225:Generated_Source\PSoC6\pdl\drivers/peripheral/gpio/cy_gpio.h **** 
 226:Generated_Source\PSoC6\pdl\drivers/peripheral/gpio/cy_gpio.h **** /** \} group_gpio_enums */
 227:Generated_Source\PSoC6\pdl\drivers/peripheral/gpio/cy_gpio.h **** 
 228:Generated_Source\PSoC6\pdl\drivers/peripheral/gpio/cy_gpio.h **** 
ARM GAS  C:\Users\xhuli\AppData\Local\Temp\ccrNCJrA.s 			page 49


 229:Generated_Source\PSoC6\pdl\drivers/peripheral/gpio/cy_gpio.h **** /***************************************
 230:Generated_Source\PSoC6\pdl\drivers/peripheral/gpio/cy_gpio.h **** *       Configuration Structures
 231:Generated_Source\PSoC6\pdl\drivers/peripheral/gpio/cy_gpio.h **** ***************************************/
 232:Generated_Source\PSoC6\pdl\drivers/peripheral/gpio/cy_gpio.h **** 
 233:Generated_Source\PSoC6\pdl\drivers/peripheral/gpio/cy_gpio.h **** /**
 234:Generated_Source\PSoC6\pdl\drivers/peripheral/gpio/cy_gpio.h **** * \addtogroup group_gpio_data_structures
 235:Generated_Source\PSoC6\pdl\drivers/peripheral/gpio/cy_gpio.h **** * \{
 236:Generated_Source\PSoC6\pdl\drivers/peripheral/gpio/cy_gpio.h **** */
 237:Generated_Source\PSoC6\pdl\drivers/peripheral/gpio/cy_gpio.h **** 
 238:Generated_Source\PSoC6\pdl\drivers/peripheral/gpio/cy_gpio.h **** /** This structure is used to initialize a port of GPIO pins */
 239:Generated_Source\PSoC6\pdl\drivers/peripheral/gpio/cy_gpio.h **** typedef struct 
 240:Generated_Source\PSoC6\pdl\drivers/peripheral/gpio/cy_gpio.h **** {
 241:Generated_Source\PSoC6\pdl\drivers/peripheral/gpio/cy_gpio.h ****     uint32_t out;           /**< Initial output data for the IO pins in the port */
 242:Generated_Source\PSoC6\pdl\drivers/peripheral/gpio/cy_gpio.h ****     uint32_t intrMask;      /**< Interrupt enable mask for the port interrupt */
 243:Generated_Source\PSoC6\pdl\drivers/peripheral/gpio/cy_gpio.h ****     uint32_t intrCfg;       /**< Port pin interrupt edge detection configuration */
 244:Generated_Source\PSoC6\pdl\drivers/peripheral/gpio/cy_gpio.h ****     uint32_t cfg;           /**< Port pin drive modes and input buffer enable configuration */
 245:Generated_Source\PSoC6\pdl\drivers/peripheral/gpio/cy_gpio.h ****     uint32_t cfgIn;         /**< Port pin input buffer configuration */
 246:Generated_Source\PSoC6\pdl\drivers/peripheral/gpio/cy_gpio.h ****     uint32_t cfgOut;        /**< Port pin output buffer configuration */
 247:Generated_Source\PSoC6\pdl\drivers/peripheral/gpio/cy_gpio.h ****     uint32_t cfgSIO;        /**< Port SIO pins configuration */
 248:Generated_Source\PSoC6\pdl\drivers/peripheral/gpio/cy_gpio.h ****     uint32_t sel0Active;    /**< HSIOM selection for port pins 0,1,2,3 */
 249:Generated_Source\PSoC6\pdl\drivers/peripheral/gpio/cy_gpio.h ****     uint32_t sel1Active;    /**< HSIOM selection for port pins 4,5,6,7 */
 250:Generated_Source\PSoC6\pdl\drivers/peripheral/gpio/cy_gpio.h **** } cy_stc_gpio_prt_config_t;
 251:Generated_Source\PSoC6\pdl\drivers/peripheral/gpio/cy_gpio.h **** 
 252:Generated_Source\PSoC6\pdl\drivers/peripheral/gpio/cy_gpio.h **** /** This structure is used to initialize a single GPIO pin */
 253:Generated_Source\PSoC6\pdl\drivers/peripheral/gpio/cy_gpio.h **** typedef struct
 254:Generated_Source\PSoC6\pdl\drivers/peripheral/gpio/cy_gpio.h **** {
 255:Generated_Source\PSoC6\pdl\drivers/peripheral/gpio/cy_gpio.h ****     uint32_t outVal;         /**< Pin output state */
 256:Generated_Source\PSoC6\pdl\drivers/peripheral/gpio/cy_gpio.h ****     uint32_t driveMode;      /**< Drive mode */
 257:Generated_Source\PSoC6\pdl\drivers/peripheral/gpio/cy_gpio.h ****     en_hsiom_sel_t hsiom;    /**< HSIOM selection */
 258:Generated_Source\PSoC6\pdl\drivers/peripheral/gpio/cy_gpio.h ****     uint32_t intEdge;        /**< Interrupt Edge type */
 259:Generated_Source\PSoC6\pdl\drivers/peripheral/gpio/cy_gpio.h ****     uint32_t intMask;        /**< Interrupt enable mask */
 260:Generated_Source\PSoC6\pdl\drivers/peripheral/gpio/cy_gpio.h ****     uint32_t vtrip;          /**< Input buffer voltage trip type */
 261:Generated_Source\PSoC6\pdl\drivers/peripheral/gpio/cy_gpio.h ****     uint32_t slewRate;       /**< Output buffer slew rate */
 262:Generated_Source\PSoC6\pdl\drivers/peripheral/gpio/cy_gpio.h ****     uint32_t driveSel;       /**< Drive strength */
 263:Generated_Source\PSoC6\pdl\drivers/peripheral/gpio/cy_gpio.h ****     uint32_t vregEn;         /**< SIO pair output buffer mode */
 264:Generated_Source\PSoC6\pdl\drivers/peripheral/gpio/cy_gpio.h ****     uint32_t ibufMode;       /**< SIO pair input buffer mode */
 265:Generated_Source\PSoC6\pdl\drivers/peripheral/gpio/cy_gpio.h ****     uint32_t vtripSel;       /**< SIO pair input buffer trip point */
 266:Generated_Source\PSoC6\pdl\drivers/peripheral/gpio/cy_gpio.h ****     uint32_t vrefSel;        /**< SIO pair reference voltage for input buffer trip point */
 267:Generated_Source\PSoC6\pdl\drivers/peripheral/gpio/cy_gpio.h ****     uint32_t vohSel;         /**< SIO pair regulated voltage output level */
 268:Generated_Source\PSoC6\pdl\drivers/peripheral/gpio/cy_gpio.h **** } cy_stc_gpio_pin_config_t;
 269:Generated_Source\PSoC6\pdl\drivers/peripheral/gpio/cy_gpio.h **** 
 270:Generated_Source\PSoC6\pdl\drivers/peripheral/gpio/cy_gpio.h **** /** \} group_gpio_data_structures */
 271:Generated_Source\PSoC6\pdl\drivers/peripheral/gpio/cy_gpio.h **** 
 272:Generated_Source\PSoC6\pdl\drivers/peripheral/gpio/cy_gpio.h **** /***************************************
 273:Generated_Source\PSoC6\pdl\drivers/peripheral/gpio/cy_gpio.h **** *        Constants
 274:Generated_Source\PSoC6\pdl\drivers/peripheral/gpio/cy_gpio.h **** ***************************************/
 275:Generated_Source\PSoC6\pdl\drivers/peripheral/gpio/cy_gpio.h **** 
 276:Generated_Source\PSoC6\pdl\drivers/peripheral/gpio/cy_gpio.h **** /** \cond INTERNAL */
 277:Generated_Source\PSoC6\pdl\drivers/peripheral/gpio/cy_gpio.h **** 
 278:Generated_Source\PSoC6\pdl\drivers/peripheral/gpio/cy_gpio.h **** /* General Constants */
 279:Generated_Source\PSoC6\pdl\drivers/peripheral/gpio/cy_gpio.h **** #define CY_GPIO_PRT_HALF                       (4UL)      /**< Half-way point of a GPIO port */
 280:Generated_Source\PSoC6\pdl\drivers/peripheral/gpio/cy_gpio.h **** #define CY_GPIO_PRT_DEINIT                     (0UL)      /**< De-init value for port registers */
 281:Generated_Source\PSoC6\pdl\drivers/peripheral/gpio/cy_gpio.h **** 
 282:Generated_Source\PSoC6\pdl\drivers/peripheral/gpio/cy_gpio.h **** /* GPIO Masks */
 283:Generated_Source\PSoC6\pdl\drivers/peripheral/gpio/cy_gpio.h **** #define CY_GPIO_HSIOM_MASK                     (0x1FUL)   /**< HSIOM selection mask */
 284:Generated_Source\PSoC6\pdl\drivers/peripheral/gpio/cy_gpio.h **** #define CY_GPIO_OUT_MASK                       (0x01UL)   /**< Single pin mask for OUT register */
 285:Generated_Source\PSoC6\pdl\drivers/peripheral/gpio/cy_gpio.h **** #define CY_GPIO_IN_MASK                        (0x01UL)   /**< Single pin mask for IN register */
ARM GAS  C:\Users\xhuli\AppData\Local\Temp\ccrNCJrA.s 			page 50


 286:Generated_Source\PSoC6\pdl\drivers/peripheral/gpio/cy_gpio.h **** #define CY_GPIO_CFG_DM_MASK                    (0x0FUL)   /**< Single pin mask for drive mode in CF
 287:Generated_Source\PSoC6\pdl\drivers/peripheral/gpio/cy_gpio.h **** #define CY_GPIO_CFG_IN_VTRIP_SEL_MASK          (0x01UL)   /**< Single pin mask for VTRIP selection 
 288:Generated_Source\PSoC6\pdl\drivers/peripheral/gpio/cy_gpio.h **** #define CY_GPIO_CFG_OUT_SLOW_MASK              (0x01UL)   /**< Single pin mask for slew rate in CFG
 289:Generated_Source\PSoC6\pdl\drivers/peripheral/gpio/cy_gpio.h **** #define CY_GPIO_CFG_OUT_DRIVE_SEL_MASK         (0x03UL)   /**< Single pin mask for drive strength i
 290:Generated_Source\PSoC6\pdl\drivers/peripheral/gpio/cy_gpio.h **** #define CY_GPIO_INTR_STATUS_MASK               (0x01UL)   /**< Single pin mask for interrupt status
 291:Generated_Source\PSoC6\pdl\drivers/peripheral/gpio/cy_gpio.h **** #define CY_GPIO_INTR_EN_MASK                   (0x01UL)   /**< Single pin mask for interrupt status
 292:Generated_Source\PSoC6\pdl\drivers/peripheral/gpio/cy_gpio.h **** #define CY_GPIO_INTR_MASKED_MASK               (0x01UL)   /**< Single pin mask for masked interrupt
 293:Generated_Source\PSoC6\pdl\drivers/peripheral/gpio/cy_gpio.h **** #define CY_GPIO_INTR_SET_MASK                  (0x01UL)   /**< Single pin mask for setting the inte
 294:Generated_Source\PSoC6\pdl\drivers/peripheral/gpio/cy_gpio.h **** #define CY_GPIO_INTR_EDGE_MASK                 (0x03UL)   /**< Single pin mask for interrupt edge t
 295:Generated_Source\PSoC6\pdl\drivers/peripheral/gpio/cy_gpio.h **** #define CY_GPIO_INTR_FLT_EDGE_MASK             (0x07UL)   /**< Single pin mask for setting filtered
 296:Generated_Source\PSoC6\pdl\drivers/peripheral/gpio/cy_gpio.h **** 
 297:Generated_Source\PSoC6\pdl\drivers/peripheral/gpio/cy_gpio.h **** /* SIO Masks */
 298:Generated_Source\PSoC6\pdl\drivers/peripheral/gpio/cy_gpio.h **** #define CY_GPIO_VREG_EN_MASK                   (0x01UL)   /**< Single SIO pin mask for voltage regu
 299:Generated_Source\PSoC6\pdl\drivers/peripheral/gpio/cy_gpio.h **** #define CY_GPIO_IBUF_MASK                      (0x01UL)   /**< Single SIO pin mask for input buffer
 300:Generated_Source\PSoC6\pdl\drivers/peripheral/gpio/cy_gpio.h **** #define CY_GPIO_IBUF_SHIFT                     (0x01UL)   /**< Single SIO pin shift for input buffe
 301:Generated_Source\PSoC6\pdl\drivers/peripheral/gpio/cy_gpio.h **** #define CY_GPIO_VTRIP_SEL_MASK                 (0x01UL)   /**< Single SIO pin mask for the input bu
 302:Generated_Source\PSoC6\pdl\drivers/peripheral/gpio/cy_gpio.h **** #define CY_GPIO_VTRIP_SEL_SHIFT                (0x02UL)   /**< Single SIO pin shift for the input b
 303:Generated_Source\PSoC6\pdl\drivers/peripheral/gpio/cy_gpio.h **** #define CY_GPIO_VREF_SEL_MASK                  (0x03UL)   /**< Single SIO pin mask for voltage refe
 304:Generated_Source\PSoC6\pdl\drivers/peripheral/gpio/cy_gpio.h **** #define CY_GPIO_VREF_SEL_SHIFT                 (0x03UL)   /**< Single SIO pin shift for voltage ref
 305:Generated_Source\PSoC6\pdl\drivers/peripheral/gpio/cy_gpio.h **** #define CY_GPIO_VOH_SEL_MASK                   (0x07UL)   /**< Single SIO pin mask for VOH */
 306:Generated_Source\PSoC6\pdl\drivers/peripheral/gpio/cy_gpio.h **** #define CY_GPIO_VOH_SEL_SHIFT                  (0x05UL)   /**< Single SIO pin shift for VOH */
 307:Generated_Source\PSoC6\pdl\drivers/peripheral/gpio/cy_gpio.h **** 
 308:Generated_Source\PSoC6\pdl\drivers/peripheral/gpio/cy_gpio.h **** /* Special mask for SIO pin pair setting */
 309:Generated_Source\PSoC6\pdl\drivers/peripheral/gpio/cy_gpio.h **** #define CY_GPIO_SIO_ODD_PIN_MASK               (0x00FEUL) /**< SIO pin pair selection mask */
 310:Generated_Source\PSoC6\pdl\drivers/peripheral/gpio/cy_gpio.h **** #define CY_GPIO_SIO_PIN_MASK                   (0x00FFUL) /**< SIO pin pair mask */
 311:Generated_Source\PSoC6\pdl\drivers/peripheral/gpio/cy_gpio.h **** 
 312:Generated_Source\PSoC6\pdl\drivers/peripheral/gpio/cy_gpio.h **** /* Offsets */
 313:Generated_Source\PSoC6\pdl\drivers/peripheral/gpio/cy_gpio.h **** #define CY_GPIO_HSIOM_OFFSET                   (3UL)      /**< Offset for HSIOM */
 314:Generated_Source\PSoC6\pdl\drivers/peripheral/gpio/cy_gpio.h **** #define CY_GPIO_DRIVE_MODE_OFFSET              (2UL)      /**< Offset for Drive mode */
 315:Generated_Source\PSoC6\pdl\drivers/peripheral/gpio/cy_gpio.h **** #define CY_GPIO_INBUF_OFFSET                   (3UL)      /**< Offset for input buffer */
 316:Generated_Source\PSoC6\pdl\drivers/peripheral/gpio/cy_gpio.h **** #define CY_GPIO_CFG_OUT_DRIVE_OFFSET           (16UL)     /**< Offset for drive strength */
 317:Generated_Source\PSoC6\pdl\drivers/peripheral/gpio/cy_gpio.h **** #define CY_GPIO_INTR_CFG_OFFSET                (1UL)      /**< Offset for interrupt config */
 318:Generated_Source\PSoC6\pdl\drivers/peripheral/gpio/cy_gpio.h **** #define CY_GPIO_INTR_FILT_OFFSET               (18UL)     /**< Offset for filtered interrupt config
 319:Generated_Source\PSoC6\pdl\drivers/peripheral/gpio/cy_gpio.h **** #define CY_GPIO_CFG_SIO_OFFSET                 (2UL)      /**< Offset for SIO config */
 320:Generated_Source\PSoC6\pdl\drivers/peripheral/gpio/cy_gpio.h **** 
 321:Generated_Source\PSoC6\pdl\drivers/peripheral/gpio/cy_gpio.h **** /* Parameter validation constants */
 322:Generated_Source\PSoC6\pdl\drivers/peripheral/gpio/cy_gpio.h **** #define CY_GPIO_PINS_MAX                       (8UL)      /**< Number of pins in the port */
 323:Generated_Source\PSoC6\pdl\drivers/peripheral/gpio/cy_gpio.h **** #define CY_GPIO_PRT_PINS_MASK                  (0x0000000FFUL)
 324:Generated_Source\PSoC6\pdl\drivers/peripheral/gpio/cy_gpio.h **** #define CY_GPIO_PRT_INTR_CFG_EDGE_SEL_MASK     (GPIO_PRT_INTR_CFG_EDGE0_SEL_Msk | \
 325:Generated_Source\PSoC6\pdl\drivers/peripheral/gpio/cy_gpio.h ****                                                 GPIO_PRT_INTR_CFG_EDGE1_SEL_Msk | \
 326:Generated_Source\PSoC6\pdl\drivers/peripheral/gpio/cy_gpio.h ****                                                 GPIO_PRT_INTR_CFG_EDGE2_SEL_Msk | \
 327:Generated_Source\PSoC6\pdl\drivers/peripheral/gpio/cy_gpio.h ****                                                 GPIO_PRT_INTR_CFG_EDGE3_SEL_Msk | \
 328:Generated_Source\PSoC6\pdl\drivers/peripheral/gpio/cy_gpio.h ****                                                 GPIO_PRT_INTR_CFG_EDGE4_SEL_Msk | \
 329:Generated_Source\PSoC6\pdl\drivers/peripheral/gpio/cy_gpio.h ****                                                 GPIO_PRT_INTR_CFG_EDGE5_SEL_Msk | \
 330:Generated_Source\PSoC6\pdl\drivers/peripheral/gpio/cy_gpio.h ****                                                 GPIO_PRT_INTR_CFG_EDGE6_SEL_Msk | \
 331:Generated_Source\PSoC6\pdl\drivers/peripheral/gpio/cy_gpio.h ****                                                 GPIO_PRT_INTR_CFG_EDGE7_SEL_Msk)
 332:Generated_Source\PSoC6\pdl\drivers/peripheral/gpio/cy_gpio.h **** #define CY_GPIO_PRT_INTR_CFG_RANGE_MASK        (CY_GPIO_PRT_INTR_CFG_EDGE_SEL_MASK | \
 333:Generated_Source\PSoC6\pdl\drivers/peripheral/gpio/cy_gpio.h ****                                                 GPIO_PRT_INTR_CFG_FLT_EDGE_SEL_Msk | \
 334:Generated_Source\PSoC6\pdl\drivers/peripheral/gpio/cy_gpio.h ****                                                 GPIO_PRT_INTR_CFG_FLT_SEL_Msk)
 335:Generated_Source\PSoC6\pdl\drivers/peripheral/gpio/cy_gpio.h **** #define CY_GPIO_PRT_INT_MASK_MASK              (0x0000001FFUL)
 336:Generated_Source\PSoC6\pdl\drivers/peripheral/gpio/cy_gpio.h **** #define CY_GPIO_PRT_SEL_ACTIVE_MASK            (0x1FFFFFFFUL)
 337:Generated_Source\PSoC6\pdl\drivers/peripheral/gpio/cy_gpio.h **** 
 338:Generated_Source\PSoC6\pdl\drivers/peripheral/gpio/cy_gpio.h **** #define GPIO_MAX_SPLIT_CELL_SEGMENTS           (9U)
 339:Generated_Source\PSoC6\pdl\drivers/peripheral/gpio/cy_gpio.h **** 
 340:Generated_Source\PSoC6\pdl\drivers/peripheral/gpio/cy_gpio.h **** /* Parameter validation macros */
 341:Generated_Source\PSoC6\pdl\drivers/peripheral/gpio/cy_gpio.h **** #define CY_GPIO_IS_PIN_VALID(pinNum)           (CY_GPIO_PINS_MAX > (pinNum))
 342:Generated_Source\PSoC6\pdl\drivers/peripheral/gpio/cy_gpio.h **** #define CY_GPIO_IS_FILTER_PIN_VALID(pinNum)    (CY_GPIO_PINS_MAX >= (pinNum))
ARM GAS  C:\Users\xhuli\AppData\Local\Temp\ccrNCJrA.s 			page 51


 343:Generated_Source\PSoC6\pdl\drivers/peripheral/gpio/cy_gpio.h **** #define CY_GPIO_IS_VALUE_VALID(outVal)         (1UL >= (outVal))
 344:Generated_Source\PSoC6\pdl\drivers/peripheral/gpio/cy_gpio.h **** #define CY_GPIO_IS_DM_VALID(driveMode)         (0U == ((driveMode) & (uint32_t)~CY_GPIO_CFG_DM_MASK
 345:Generated_Source\PSoC6\pdl\drivers/peripheral/gpio/cy_gpio.h **** 
 346:Generated_Source\PSoC6\pdl\drivers/peripheral/gpio/cy_gpio.h **** #define CY_GPIO_IS_HSIOM_VALID(hsiom)          (0U == ((hsiom) & (uint32_t)~CY_GPIO_HSIOM_MASK))
 347:Generated_Source\PSoC6\pdl\drivers/peripheral/gpio/cy_gpio.h **** 
 348:Generated_Source\PSoC6\pdl\drivers/peripheral/gpio/cy_gpio.h **** #define CY_GPIO_IS_INT_EDGE_VALID(intEdge)     ((CY_GPIO_INTR_DISABLE  == (intEdge)) || \
 349:Generated_Source\PSoC6\pdl\drivers/peripheral/gpio/cy_gpio.h ****                                                 (CY_GPIO_INTR_RISING   == (intEdge)) || \
 350:Generated_Source\PSoC6\pdl\drivers/peripheral/gpio/cy_gpio.h ****                                                 (CY_GPIO_INTR_FALLING  == (intEdge)) || \
 351:Generated_Source\PSoC6\pdl\drivers/peripheral/gpio/cy_gpio.h ****                                                 (CY_GPIO_INTR_BOTH     == (intEdge)))
 352:Generated_Source\PSoC6\pdl\drivers/peripheral/gpio/cy_gpio.h **** 
 353:Generated_Source\PSoC6\pdl\drivers/peripheral/gpio/cy_gpio.h **** #define CY_GPIO_IS_DRIVE_SEL_VALID(driveSel)   ((CY_GPIO_DRIVE_FULL    == (driveSel)) || \
 354:Generated_Source\PSoC6\pdl\drivers/peripheral/gpio/cy_gpio.h ****                                                 (CY_GPIO_DRIVE_1_2     == (driveSel)) || \
 355:Generated_Source\PSoC6\pdl\drivers/peripheral/gpio/cy_gpio.h ****                                                 (CY_GPIO_DRIVE_1_4     == (driveSel)) || \
 356:Generated_Source\PSoC6\pdl\drivers/peripheral/gpio/cy_gpio.h ****                                                 (CY_GPIO_DRIVE_1_8     == (driveSel)))
 357:Generated_Source\PSoC6\pdl\drivers/peripheral/gpio/cy_gpio.h **** 
 358:Generated_Source\PSoC6\pdl\drivers/peripheral/gpio/cy_gpio.h **** #define CY_GPIO_IS_VREF_SEL_VALID(vrefSel)     ((CY_SIO_VREF_PINREF    == (vrefSel)) || \
 359:Generated_Source\PSoC6\pdl\drivers/peripheral/gpio/cy_gpio.h ****                                                 (CY_SIO_VREF_1_2V      == (vrefSel)) || \
 360:Generated_Source\PSoC6\pdl\drivers/peripheral/gpio/cy_gpio.h ****                                                 (CY_SIO_VREF_AMUX_A    == (vrefSel)) || \
 361:Generated_Source\PSoC6\pdl\drivers/peripheral/gpio/cy_gpio.h ****                                                 (CY_SIO_VREF_AMUX_B    == (vrefSel)))
 362:Generated_Source\PSoC6\pdl\drivers/peripheral/gpio/cy_gpio.h **** 
 363:Generated_Source\PSoC6\pdl\drivers/peripheral/gpio/cy_gpio.h **** #define CY_GPIO_IS_VOH_SEL_VALID(vrefSel)      ((CY_SIO_VOH_1_00       == (vrefSel)) || \
 364:Generated_Source\PSoC6\pdl\drivers/peripheral/gpio/cy_gpio.h ****                                                 (CY_SIO_VOH_1_25       == (vrefSel)) || \
 365:Generated_Source\PSoC6\pdl\drivers/peripheral/gpio/cy_gpio.h ****                                                 (CY_SIO_VOH_1_49       == (vrefSel)) || \
 366:Generated_Source\PSoC6\pdl\drivers/peripheral/gpio/cy_gpio.h ****                                                 (CY_SIO_VOH_1_67       == (vrefSel)) || \
 367:Generated_Source\PSoC6\pdl\drivers/peripheral/gpio/cy_gpio.h ****                                                 (CY_SIO_VOH_2_08       == (vrefSel)) || \
 368:Generated_Source\PSoC6\pdl\drivers/peripheral/gpio/cy_gpio.h ****                                                 (CY_SIO_VOH_2_50       == (vrefSel)) || \
 369:Generated_Source\PSoC6\pdl\drivers/peripheral/gpio/cy_gpio.h ****                                                 (CY_SIO_VOH_2_78       == (vrefSel)) || \
 370:Generated_Source\PSoC6\pdl\drivers/peripheral/gpio/cy_gpio.h ****                                                 (CY_SIO_VOH_4_16       == (vrefSel)))
 371:Generated_Source\PSoC6\pdl\drivers/peripheral/gpio/cy_gpio.h ****                    
 372:Generated_Source\PSoC6\pdl\drivers/peripheral/gpio/cy_gpio.h **** #define CY_GPIO_IS_PIN_BIT_VALID(pinBit)       (0U == ((pinBit) & (uint32_t)~CY_GPIO_PRT_PINS_MASK)
 373:Generated_Source\PSoC6\pdl\drivers/peripheral/gpio/cy_gpio.h **** #define CY_GPIO_IS_INTR_CFG_VALID(intrCfg)     (0U == ((intrCfg) & (uint32_t)~CY_GPIO_PRT_INTR_CFG_
 374:Generated_Source\PSoC6\pdl\drivers/peripheral/gpio/cy_gpio.h **** #define CY_GPIO_IS_INTR_MASK_VALID(intrMask)   (0U == ((intrMask) & (uint32_t)~CY_GPIO_PRT_INT_MASK
 375:Generated_Source\PSoC6\pdl\drivers/peripheral/gpio/cy_gpio.h **** #define CY_GPIO_IS_SEL_ACT_VALID(selActive)    (0U == ((selActive) & (uint32_t)~CY_GPIO_PRT_SEL_ACT
 376:Generated_Source\PSoC6\pdl\drivers/peripheral/gpio/cy_gpio.h **** 
 377:Generated_Source\PSoC6\pdl\drivers/peripheral/gpio/cy_gpio.h **** #define CY_GPIO_IS_AMUX_SPLIT_VALID(switchCtrl)       (((uint32_t) (switchCtrl)) < GPIO_MAX_SPLIT_C
 378:Generated_Source\PSoC6\pdl\drivers/peripheral/gpio/cy_gpio.h **** 
 379:Generated_Source\PSoC6\pdl\drivers/peripheral/gpio/cy_gpio.h **** #define CY_GPIO_IS_AMUX_CONNECT_VALID(amuxConnect)    ((CY_GPIO_AMUX_OPENALL == (amuxConnect)) || \
 380:Generated_Source\PSoC6\pdl\drivers/peripheral/gpio/cy_gpio.h ****                                                        (CY_GPIO_AMUX_L       == (amuxConnect)) || \
 381:Generated_Source\PSoC6\pdl\drivers/peripheral/gpio/cy_gpio.h ****                                                        (CY_GPIO_AMUX_R       == (amuxConnect)) || \
 382:Generated_Source\PSoC6\pdl\drivers/peripheral/gpio/cy_gpio.h ****                                                        (CY_GPIO_AMUX_LR      == (amuxConnect)) || \
 383:Generated_Source\PSoC6\pdl\drivers/peripheral/gpio/cy_gpio.h ****                                                        (CY_GPIO_AMUX_G       == (amuxConnect)) || \
 384:Generated_Source\PSoC6\pdl\drivers/peripheral/gpio/cy_gpio.h ****                                                        (CY_GPIO_AMUX_GL      == (amuxConnect)) || \
 385:Generated_Source\PSoC6\pdl\drivers/peripheral/gpio/cy_gpio.h ****                                                        (CY_GPIO_AMUX_GR      == (amuxConnect)) || \
 386:Generated_Source\PSoC6\pdl\drivers/peripheral/gpio/cy_gpio.h ****                                                        (CY_GPIO_AMUX_GLR     == (amuxConnect)))
 387:Generated_Source\PSoC6\pdl\drivers/peripheral/gpio/cy_gpio.h **** 
 388:Generated_Source\PSoC6\pdl\drivers/peripheral/gpio/cy_gpio.h **** #define CY_GPIO_IS_AMUX_SELECT_VALID(amuxBus)       ((CY_GPIO_AMUXBUSA       == (amuxBus)) || \
 389:Generated_Source\PSoC6\pdl\drivers/peripheral/gpio/cy_gpio.h ****                                                      (CY_GPIO_AMUXBUSB       == (amuxBus)))
 390:Generated_Source\PSoC6\pdl\drivers/peripheral/gpio/cy_gpio.h **** /** \endcond */
 391:Generated_Source\PSoC6\pdl\drivers/peripheral/gpio/cy_gpio.h **** 
 392:Generated_Source\PSoC6\pdl\drivers/peripheral/gpio/cy_gpio.h **** 
 393:Generated_Source\PSoC6\pdl\drivers/peripheral/gpio/cy_gpio.h **** /***************************************
 394:Generated_Source\PSoC6\pdl\drivers/peripheral/gpio/cy_gpio.h **** *        Function Constants
 395:Generated_Source\PSoC6\pdl\drivers/peripheral/gpio/cy_gpio.h **** ***************************************/
 396:Generated_Source\PSoC6\pdl\drivers/peripheral/gpio/cy_gpio.h **** 
 397:Generated_Source\PSoC6\pdl\drivers/peripheral/gpio/cy_gpio.h **** /**
 398:Generated_Source\PSoC6\pdl\drivers/peripheral/gpio/cy_gpio.h **** * \addtogroup group_gpio_macros
 399:Generated_Source\PSoC6\pdl\drivers/peripheral/gpio/cy_gpio.h **** * \{
ARM GAS  C:\Users\xhuli\AppData\Local\Temp\ccrNCJrA.s 			page 52


 400:Generated_Source\PSoC6\pdl\drivers/peripheral/gpio/cy_gpio.h **** */
 401:Generated_Source\PSoC6\pdl\drivers/peripheral/gpio/cy_gpio.h **** 
 402:Generated_Source\PSoC6\pdl\drivers/peripheral/gpio/cy_gpio.h **** /**
 403:Generated_Source\PSoC6\pdl\drivers/peripheral/gpio/cy_gpio.h **** * \defgroup group_gpio_driveModes Pin drive mode
 404:Generated_Source\PSoC6\pdl\drivers/peripheral/gpio/cy_gpio.h **** * \{
 405:Generated_Source\PSoC6\pdl\drivers/peripheral/gpio/cy_gpio.h **** * Constants to be used for setting the drive mode of the pin.
 406:Generated_Source\PSoC6\pdl\drivers/peripheral/gpio/cy_gpio.h **** */
 407:Generated_Source\PSoC6\pdl\drivers/peripheral/gpio/cy_gpio.h **** #define CY_GPIO_DM_ANALOG                      (0x00UL) /**< Analog High-Z. Input buffer off */
 408:Generated_Source\PSoC6\pdl\drivers/peripheral/gpio/cy_gpio.h **** #define CY_GPIO_DM_PULLUP_IN_OFF               (0x02UL) /**< Resistive Pull-Up. Input buffer off */
 409:Generated_Source\PSoC6\pdl\drivers/peripheral/gpio/cy_gpio.h **** #define CY_GPIO_DM_PULLDOWN_IN_OFF             (0x03UL) /**< Resistive Pull-Down. Input buffer off 
 410:Generated_Source\PSoC6\pdl\drivers/peripheral/gpio/cy_gpio.h **** #define CY_GPIO_DM_OD_DRIVESLOW_IN_OFF         (0x04UL) /**< Open Drain, Drives Low. Input buffer o
 411:Generated_Source\PSoC6\pdl\drivers/peripheral/gpio/cy_gpio.h **** #define CY_GPIO_DM_OD_DRIVESHIGH_IN_OFF        (0x05UL) /**< Open Drain, Drives High. Input buffer 
 412:Generated_Source\PSoC6\pdl\drivers/peripheral/gpio/cy_gpio.h **** #define CY_GPIO_DM_STRONG_IN_OFF               (0x06UL) /**< Strong Drive. Input buffer off */
 413:Generated_Source\PSoC6\pdl\drivers/peripheral/gpio/cy_gpio.h **** #define CY_GPIO_DM_PULLUP_DOWN_IN_OFF          (0x07UL) /**< Resistive Pull-Up/Down. Input buffer o
 414:Generated_Source\PSoC6\pdl\drivers/peripheral/gpio/cy_gpio.h **** #define CY_GPIO_DM_HIGHZ                       (0x08UL) /**< Digital High-Z. Input buffer on */
 415:Generated_Source\PSoC6\pdl\drivers/peripheral/gpio/cy_gpio.h **** #define CY_GPIO_DM_PULLUP                      (0x0AUL) /**< Resistive Pull-Up. Input buffer on */
 416:Generated_Source\PSoC6\pdl\drivers/peripheral/gpio/cy_gpio.h **** #define CY_GPIO_DM_PULLDOWN                    (0x0BUL) /**< Resistive Pull-Down. Input buffer on *
 417:Generated_Source\PSoC6\pdl\drivers/peripheral/gpio/cy_gpio.h **** #define CY_GPIO_DM_OD_DRIVESLOW                (0x0CUL) /**< Open Drain, Drives Low. Input buffer o
 418:Generated_Source\PSoC6\pdl\drivers/peripheral/gpio/cy_gpio.h **** #define CY_GPIO_DM_OD_DRIVESHIGH               (0x0DUL) /**< Open Drain, Drives High. Input buffer 
 419:Generated_Source\PSoC6\pdl\drivers/peripheral/gpio/cy_gpio.h **** #define CY_GPIO_DM_STRONG                      (0x0EUL) /**< Strong Drive. Input buffer on */
 420:Generated_Source\PSoC6\pdl\drivers/peripheral/gpio/cy_gpio.h **** #define CY_GPIO_DM_PULLUP_DOWN                 (0x0FUL) /**< Resistive Pull-Up/Down. Input buffer o
 421:Generated_Source\PSoC6\pdl\drivers/peripheral/gpio/cy_gpio.h **** /** \} */
 422:Generated_Source\PSoC6\pdl\drivers/peripheral/gpio/cy_gpio.h **** 
 423:Generated_Source\PSoC6\pdl\drivers/peripheral/gpio/cy_gpio.h **** /**
 424:Generated_Source\PSoC6\pdl\drivers/peripheral/gpio/cy_gpio.h **** * \defgroup group_gpio_vtrip Voltage trip mode
 425:Generated_Source\PSoC6\pdl\drivers/peripheral/gpio/cy_gpio.h **** * \{
 426:Generated_Source\PSoC6\pdl\drivers/peripheral/gpio/cy_gpio.h **** * Constants to be used for setting the voltage trip type on the pin.
 427:Generated_Source\PSoC6\pdl\drivers/peripheral/gpio/cy_gpio.h **** */
 428:Generated_Source\PSoC6\pdl\drivers/peripheral/gpio/cy_gpio.h **** #define CY_GPIO_VTRIP_CMOS                     (0x00UL) /**< Input buffer compatible with CMOS and 
 429:Generated_Source\PSoC6\pdl\drivers/peripheral/gpio/cy_gpio.h **** #define CY_GPIO_VTRIP_TTL                      (0x01UL) /**< Input buffer compatible with TTL and M
 430:Generated_Source\PSoC6\pdl\drivers/peripheral/gpio/cy_gpio.h **** /** \} */
 431:Generated_Source\PSoC6\pdl\drivers/peripheral/gpio/cy_gpio.h **** 
 432:Generated_Source\PSoC6\pdl\drivers/peripheral/gpio/cy_gpio.h **** /**
 433:Generated_Source\PSoC6\pdl\drivers/peripheral/gpio/cy_gpio.h **** * \defgroup group_gpio_slewRate Slew Rate Mode
 434:Generated_Source\PSoC6\pdl\drivers/peripheral/gpio/cy_gpio.h **** * \{
 435:Generated_Source\PSoC6\pdl\drivers/peripheral/gpio/cy_gpio.h **** * Constants to be used for setting the slew rate of the pin.
 436:Generated_Source\PSoC6\pdl\drivers/peripheral/gpio/cy_gpio.h **** */
 437:Generated_Source\PSoC6\pdl\drivers/peripheral/gpio/cy_gpio.h **** #define CY_GPIO_SLEW_FAST                      (0x00UL) /**< Fast slew rate */
 438:Generated_Source\PSoC6\pdl\drivers/peripheral/gpio/cy_gpio.h **** #define CY_GPIO_SLEW_SLOW                      (0x01UL) /**< Slow slew rate */
 439:Generated_Source\PSoC6\pdl\drivers/peripheral/gpio/cy_gpio.h **** /** \} */
 440:Generated_Source\PSoC6\pdl\drivers/peripheral/gpio/cy_gpio.h **** 
 441:Generated_Source\PSoC6\pdl\drivers/peripheral/gpio/cy_gpio.h **** /**
 442:Generated_Source\PSoC6\pdl\drivers/peripheral/gpio/cy_gpio.h **** * \defgroup group_gpio_driveStrength Pin drive strength
 443:Generated_Source\PSoC6\pdl\drivers/peripheral/gpio/cy_gpio.h **** * \{
 444:Generated_Source\PSoC6\pdl\drivers/peripheral/gpio/cy_gpio.h **** * Constants to be used for setting the drive strength of the pin.
 445:Generated_Source\PSoC6\pdl\drivers/peripheral/gpio/cy_gpio.h **** */
 446:Generated_Source\PSoC6\pdl\drivers/peripheral/gpio/cy_gpio.h **** #define CY_GPIO_DRIVE_FULL                     (0x00UL) /**< Full drive strength: Max drive current
 447:Generated_Source\PSoC6\pdl\drivers/peripheral/gpio/cy_gpio.h **** #define CY_GPIO_DRIVE_1_2                      (0x01UL) /**< 1/2 drive strength: 1/2 drive current 
 448:Generated_Source\PSoC6\pdl\drivers/peripheral/gpio/cy_gpio.h **** #define CY_GPIO_DRIVE_1_4                      (0x02UL) /**< 1/4 drive strength: 1/4 drive current 
 449:Generated_Source\PSoC6\pdl\drivers/peripheral/gpio/cy_gpio.h **** #define CY_GPIO_DRIVE_1_8                      (0x03UL) /**< 1/8 drive strength: 1/8 drive current 
 450:Generated_Source\PSoC6\pdl\drivers/peripheral/gpio/cy_gpio.h **** /** \} */
 451:Generated_Source\PSoC6\pdl\drivers/peripheral/gpio/cy_gpio.h **** 
 452:Generated_Source\PSoC6\pdl\drivers/peripheral/gpio/cy_gpio.h **** /**
 453:Generated_Source\PSoC6\pdl\drivers/peripheral/gpio/cy_gpio.h **** * \defgroup group_gpio_interruptTrigger Interrupt trigger type
 454:Generated_Source\PSoC6\pdl\drivers/peripheral/gpio/cy_gpio.h **** * \{
 455:Generated_Source\PSoC6\pdl\drivers/peripheral/gpio/cy_gpio.h **** * Constants to be used for setting the interrupt trigger type on the pin.
 456:Generated_Source\PSoC6\pdl\drivers/peripheral/gpio/cy_gpio.h **** */
ARM GAS  C:\Users\xhuli\AppData\Local\Temp\ccrNCJrA.s 			page 53


 457:Generated_Source\PSoC6\pdl\drivers/peripheral/gpio/cy_gpio.h **** #define CY_GPIO_INTR_DISABLE                   (0x00UL) /**< Disable the pin interrupt generation *
 458:Generated_Source\PSoC6\pdl\drivers/peripheral/gpio/cy_gpio.h **** #define CY_GPIO_INTR_RISING                    (0x01UL) /**< Rising-Edge interrupt */
 459:Generated_Source\PSoC6\pdl\drivers/peripheral/gpio/cy_gpio.h **** #define CY_GPIO_INTR_FALLING                   (0x02UL) /**< Falling-Edge interrupt */
 460:Generated_Source\PSoC6\pdl\drivers/peripheral/gpio/cy_gpio.h **** #define CY_GPIO_INTR_BOTH                      (0x03UL) /**< Both-Edge interrupt */
 461:Generated_Source\PSoC6\pdl\drivers/peripheral/gpio/cy_gpio.h **** /** \} */
 462:Generated_Source\PSoC6\pdl\drivers/peripheral/gpio/cy_gpio.h **** 
 463:Generated_Source\PSoC6\pdl\drivers/peripheral/gpio/cy_gpio.h **** /**
 464:Generated_Source\PSoC6\pdl\drivers/peripheral/gpio/cy_gpio.h **** * \defgroup group_gpio_sioVreg SIO output buffer mode
 465:Generated_Source\PSoC6\pdl\drivers/peripheral/gpio/cy_gpio.h **** * \{
 466:Generated_Source\PSoC6\pdl\drivers/peripheral/gpio/cy_gpio.h **** * Constants to be used for setting the SIO output buffer mode on the pin.
 467:Generated_Source\PSoC6\pdl\drivers/peripheral/gpio/cy_gpio.h **** */
 468:Generated_Source\PSoC6\pdl\drivers/peripheral/gpio/cy_gpio.h **** #define CY_SIO_VREG_UNREGULATED                (0x00UL) /**< Unregulated output buffer */
 469:Generated_Source\PSoC6\pdl\drivers/peripheral/gpio/cy_gpio.h **** #define CY_SIO_VREG_REGULATED                  (0x01UL) /**< Regulated output buffer */
 470:Generated_Source\PSoC6\pdl\drivers/peripheral/gpio/cy_gpio.h **** /** \} */
 471:Generated_Source\PSoC6\pdl\drivers/peripheral/gpio/cy_gpio.h **** 
 472:Generated_Source\PSoC6\pdl\drivers/peripheral/gpio/cy_gpio.h **** /**
 473:Generated_Source\PSoC6\pdl\drivers/peripheral/gpio/cy_gpio.h **** * \defgroup group_gpio_sioIbuf SIO input buffer mode
 474:Generated_Source\PSoC6\pdl\drivers/peripheral/gpio/cy_gpio.h **** * \{
 475:Generated_Source\PSoC6\pdl\drivers/peripheral/gpio/cy_gpio.h **** * Constants to be used for setting the SIO input buffer mode on the pin.
 476:Generated_Source\PSoC6\pdl\drivers/peripheral/gpio/cy_gpio.h **** */
 477:Generated_Source\PSoC6\pdl\drivers/peripheral/gpio/cy_gpio.h **** #define CY_SIO_IBUF_SINGLEENDED                (0x00UL) /**< Single ended input buffer */
 478:Generated_Source\PSoC6\pdl\drivers/peripheral/gpio/cy_gpio.h **** #define CY_SIO_IBUF_DIFFERENTIAL               (0x01UL) /**< Differential input buffer */
 479:Generated_Source\PSoC6\pdl\drivers/peripheral/gpio/cy_gpio.h **** /** \} */
 480:Generated_Source\PSoC6\pdl\drivers/peripheral/gpio/cy_gpio.h **** 
 481:Generated_Source\PSoC6\pdl\drivers/peripheral/gpio/cy_gpio.h **** /**
 482:Generated_Source\PSoC6\pdl\drivers/peripheral/gpio/cy_gpio.h **** * \defgroup group_gpio_sioVtrip SIO input buffer trip-point
 483:Generated_Source\PSoC6\pdl\drivers/peripheral/gpio/cy_gpio.h **** * \{
 484:Generated_Source\PSoC6\pdl\drivers/peripheral/gpio/cy_gpio.h **** * Constants to be used for setting the SIO input buffer trip-point of the pin.
 485:Generated_Source\PSoC6\pdl\drivers/peripheral/gpio/cy_gpio.h **** */
 486:Generated_Source\PSoC6\pdl\drivers/peripheral/gpio/cy_gpio.h **** #define CY_SIO_VTRIP_CMOS                      (0x00UL) /**< CMOS input buffer (single-ended) */
 487:Generated_Source\PSoC6\pdl\drivers/peripheral/gpio/cy_gpio.h **** #define CY_SIO_VTRIP_TTL                       (0x01UL) /**< TTL input buffer (single-ended) */
 488:Generated_Source\PSoC6\pdl\drivers/peripheral/gpio/cy_gpio.h **** #define CY_SIO_VTRIP_0_5VDDIO_0_5VOH           (0x00UL) /**< 0.5xVddio or 0.5xVoh (differential) */
 489:Generated_Source\PSoC6\pdl\drivers/peripheral/gpio/cy_gpio.h **** #define CY_SIO_VTRIP_0_4VDDIO_1_0VREF          (0x01UL) /**< 0.4xVddio or 0.4xVoh (differential) */
 490:Generated_Source\PSoC6\pdl\drivers/peripheral/gpio/cy_gpio.h **** /** \} */
 491:Generated_Source\PSoC6\pdl\drivers/peripheral/gpio/cy_gpio.h **** 
 492:Generated_Source\PSoC6\pdl\drivers/peripheral/gpio/cy_gpio.h **** /**
 493:Generated_Source\PSoC6\pdl\drivers/peripheral/gpio/cy_gpio.h **** * \defgroup group_gpio_sioVref SIO reference voltage for input buffer trip-point
 494:Generated_Source\PSoC6\pdl\drivers/peripheral/gpio/cy_gpio.h **** * \{
 495:Generated_Source\PSoC6\pdl\drivers/peripheral/gpio/cy_gpio.h **** * Constants to be used for setting the reference voltage of SIO input buffer trip-point.
 496:Generated_Source\PSoC6\pdl\drivers/peripheral/gpio/cy_gpio.h **** */
 497:Generated_Source\PSoC6\pdl\drivers/peripheral/gpio/cy_gpio.h **** #define CY_SIO_VREF_PINREF                     (0x00UL) /**< Vref from analog pin */
 498:Generated_Source\PSoC6\pdl\drivers/peripheral/gpio/cy_gpio.h **** #define CY_SIO_VREF_1_2V                       (0x01UL) /**< Vref from internal 1.2V reference */
 499:Generated_Source\PSoC6\pdl\drivers/peripheral/gpio/cy_gpio.h **** #define CY_SIO_VREF_AMUX_A                     (0x02UL) /**< Vref from AMUXBUS_A */
 500:Generated_Source\PSoC6\pdl\drivers/peripheral/gpio/cy_gpio.h **** #define CY_SIO_VREF_AMUX_B                     (0x03UL) /**< Vref from AMUXBUS_B */
 501:Generated_Source\PSoC6\pdl\drivers/peripheral/gpio/cy_gpio.h **** /** \} */
 502:Generated_Source\PSoC6\pdl\drivers/peripheral/gpio/cy_gpio.h **** 
 503:Generated_Source\PSoC6\pdl\drivers/peripheral/gpio/cy_gpio.h **** /**
 504:Generated_Source\PSoC6\pdl\drivers/peripheral/gpio/cy_gpio.h **** * \defgroup group_gpio_sioVoh Regulated output voltage level (Voh) and input buffer trip-point of a
 505:Generated_Source\PSoC6\pdl\drivers/peripheral/gpio/cy_gpio.h **** * \{
 506:Generated_Source\PSoC6\pdl\drivers/peripheral/gpio/cy_gpio.h **** * Constants to be used for setting the Voh and input buffer trip-point of an SIO pair
 507:Generated_Source\PSoC6\pdl\drivers/peripheral/gpio/cy_gpio.h **** */
 508:Generated_Source\PSoC6\pdl\drivers/peripheral/gpio/cy_gpio.h **** #define CY_SIO_VOH_1_00                        (0x00UL) /**< Voh = 1 x Reference */
 509:Generated_Source\PSoC6\pdl\drivers/peripheral/gpio/cy_gpio.h **** #define CY_SIO_VOH_1_25                        (0x01UL) /**< Voh = 1.25 x Reference */
 510:Generated_Source\PSoC6\pdl\drivers/peripheral/gpio/cy_gpio.h **** #define CY_SIO_VOH_1_49                        (0x02UL) /**< Voh = 1.49 x Reference */
 511:Generated_Source\PSoC6\pdl\drivers/peripheral/gpio/cy_gpio.h **** #define CY_SIO_VOH_1_67                        (0x03UL) /**< Voh = 1.67 x Reference */
 512:Generated_Source\PSoC6\pdl\drivers/peripheral/gpio/cy_gpio.h **** #define CY_SIO_VOH_2_08                        (0x04UL) /**< Voh = 2.08 x Reference */
 513:Generated_Source\PSoC6\pdl\drivers/peripheral/gpio/cy_gpio.h **** #define CY_SIO_VOH_2_50                        (0x05UL) /**< Voh = 2.50 x Reference */
ARM GAS  C:\Users\xhuli\AppData\Local\Temp\ccrNCJrA.s 			page 54


 514:Generated_Source\PSoC6\pdl\drivers/peripheral/gpio/cy_gpio.h **** #define CY_SIO_VOH_2_78                        (0x06UL) /**< Voh = 2.78 x Reference */
 515:Generated_Source\PSoC6\pdl\drivers/peripheral/gpio/cy_gpio.h **** #define CY_SIO_VOH_4_16                        (0x07UL) /**< Voh = 4.16 x Reference */
 516:Generated_Source\PSoC6\pdl\drivers/peripheral/gpio/cy_gpio.h **** /** \} */
 517:Generated_Source\PSoC6\pdl\drivers/peripheral/gpio/cy_gpio.h **** 
 518:Generated_Source\PSoC6\pdl\drivers/peripheral/gpio/cy_gpio.h **** /** \} group_gpio_macros */
 519:Generated_Source\PSoC6\pdl\drivers/peripheral/gpio/cy_gpio.h **** 
 520:Generated_Source\PSoC6\pdl\drivers/peripheral/gpio/cy_gpio.h **** /***************************************
 521:Generated_Source\PSoC6\pdl\drivers/peripheral/gpio/cy_gpio.h **** *        Function Prototypes
 522:Generated_Source\PSoC6\pdl\drivers/peripheral/gpio/cy_gpio.h **** ***************************************/
 523:Generated_Source\PSoC6\pdl\drivers/peripheral/gpio/cy_gpio.h **** 
 524:Generated_Source\PSoC6\pdl\drivers/peripheral/gpio/cy_gpio.h **** /**
 525:Generated_Source\PSoC6\pdl\drivers/peripheral/gpio/cy_gpio.h **** * \addtogroup group_gpio_functions
 526:Generated_Source\PSoC6\pdl\drivers/peripheral/gpio/cy_gpio.h **** * \{
 527:Generated_Source\PSoC6\pdl\drivers/peripheral/gpio/cy_gpio.h **** */
 528:Generated_Source\PSoC6\pdl\drivers/peripheral/gpio/cy_gpio.h **** 
 529:Generated_Source\PSoC6\pdl\drivers/peripheral/gpio/cy_gpio.h **** /**
 530:Generated_Source\PSoC6\pdl\drivers/peripheral/gpio/cy_gpio.h **** * \addtogroup group_gpio_functions_init
 531:Generated_Source\PSoC6\pdl\drivers/peripheral/gpio/cy_gpio.h **** * \{
 532:Generated_Source\PSoC6\pdl\drivers/peripheral/gpio/cy_gpio.h **** */
 533:Generated_Source\PSoC6\pdl\drivers/peripheral/gpio/cy_gpio.h **** 
 534:Generated_Source\PSoC6\pdl\drivers/peripheral/gpio/cy_gpio.h **** cy_en_gpio_status_t Cy_GPIO_Pin_Init(GPIO_PRT_Type* base, uint32_t pinNum, const cy_stc_gpio_pin_co
 535:Generated_Source\PSoC6\pdl\drivers/peripheral/gpio/cy_gpio.h **** cy_en_gpio_status_t Cy_GPIO_Port_Init(GPIO_PRT_Type* base, const cy_stc_gpio_prt_config_t *config);
 536:Generated_Source\PSoC6\pdl\drivers/peripheral/gpio/cy_gpio.h **** void Cy_GPIO_Pin_FastInit(GPIO_PRT_Type* base, uint32_t pinNum, uint32_t driveMode, uint32_t outVal
 537:Generated_Source\PSoC6\pdl\drivers/peripheral/gpio/cy_gpio.h **** void Cy_GPIO_Port_Deinit(GPIO_PRT_Type* base);
 538:Generated_Source\PSoC6\pdl\drivers/peripheral/gpio/cy_gpio.h **** __STATIC_INLINE void Cy_GPIO_SetHSIOM(GPIO_PRT_Type* base, uint32_t pinNum, en_hsiom_sel_t value);
 539:Generated_Source\PSoC6\pdl\drivers/peripheral/gpio/cy_gpio.h **** __STATIC_INLINE en_hsiom_sel_t Cy_GPIO_GetHSIOM(GPIO_PRT_Type* base, uint32_t pinNum);
 540:Generated_Source\PSoC6\pdl\drivers/peripheral/gpio/cy_gpio.h **** __STATIC_INLINE GPIO_PRT_Type* Cy_GPIO_PortToAddr(uint32_t portNum);
 541:Generated_Source\PSoC6\pdl\drivers/peripheral/gpio/cy_gpio.h **** 
 542:Generated_Source\PSoC6\pdl\drivers/peripheral/gpio/cy_gpio.h **** /** \} group_gpio_functions_init */
 543:Generated_Source\PSoC6\pdl\drivers/peripheral/gpio/cy_gpio.h **** 
 544:Generated_Source\PSoC6\pdl\drivers/peripheral/gpio/cy_gpio.h **** /**
 545:Generated_Source\PSoC6\pdl\drivers/peripheral/gpio/cy_gpio.h **** * \addtogroup group_gpio_functions_gpio
 546:Generated_Source\PSoC6\pdl\drivers/peripheral/gpio/cy_gpio.h **** * \{
 547:Generated_Source\PSoC6\pdl\drivers/peripheral/gpio/cy_gpio.h **** */
 548:Generated_Source\PSoC6\pdl\drivers/peripheral/gpio/cy_gpio.h **** 
 549:Generated_Source\PSoC6\pdl\drivers/peripheral/gpio/cy_gpio.h **** void Cy_GPIO_SetAmuxSplit(cy_en_amux_split_t switchCtrl, cy_en_gpio_amuxconnect_t amuxConnect, cy_e
 550:Generated_Source\PSoC6\pdl\drivers/peripheral/gpio/cy_gpio.h **** cy_en_gpio_amuxconnect_t Cy_GPIO_GetAmuxSplit(cy_en_amux_split_t switchCtrl, cy_en_gpio_amuxselect_
 551:Generated_Source\PSoC6\pdl\drivers/peripheral/gpio/cy_gpio.h **** 
 552:Generated_Source\PSoC6\pdl\drivers/peripheral/gpio/cy_gpio.h **** __STATIC_INLINE uint32_t Cy_GPIO_Read(GPIO_PRT_Type* base, uint32_t pinNum);
 553:Generated_Source\PSoC6\pdl\drivers/peripheral/gpio/cy_gpio.h **** __STATIC_INLINE void Cy_GPIO_Write(GPIO_PRT_Type* base, uint32_t pinNum, uint32_t value);
 554:Generated_Source\PSoC6\pdl\drivers/peripheral/gpio/cy_gpio.h **** __STATIC_INLINE uint32_t Cy_GPIO_ReadOut(GPIO_PRT_Type* base, uint32_t pinNum);
 555:Generated_Source\PSoC6\pdl\drivers/peripheral/gpio/cy_gpio.h **** __STATIC_INLINE void Cy_GPIO_Set(GPIO_PRT_Type* base, uint32_t pinNum);
 556:Generated_Source\PSoC6\pdl\drivers/peripheral/gpio/cy_gpio.h **** __STATIC_INLINE void Cy_GPIO_Clr(GPIO_PRT_Type* base, uint32_t pinNum);
 557:Generated_Source\PSoC6\pdl\drivers/peripheral/gpio/cy_gpio.h **** __STATIC_INLINE void Cy_GPIO_Inv(GPIO_PRT_Type* base, uint32_t pinNum);
 558:Generated_Source\PSoC6\pdl\drivers/peripheral/gpio/cy_gpio.h **** __STATIC_INLINE void Cy_GPIO_SetDrivemode(GPIO_PRT_Type* base, uint32_t pinNum, uint32_t value);
 559:Generated_Source\PSoC6\pdl\drivers/peripheral/gpio/cy_gpio.h **** __STATIC_INLINE uint32_t Cy_GPIO_GetDrivemode(GPIO_PRT_Type* base, uint32_t pinNum);
 560:Generated_Source\PSoC6\pdl\drivers/peripheral/gpio/cy_gpio.h **** __STATIC_INLINE void Cy_GPIO_SetVtrip(GPIO_PRT_Type* base, uint32_t pinNum, uint32_t value);
 561:Generated_Source\PSoC6\pdl\drivers/peripheral/gpio/cy_gpio.h **** __STATIC_INLINE uint32_t Cy_GPIO_GetVtrip(GPIO_PRT_Type* base, uint32_t pinNum);
 562:Generated_Source\PSoC6\pdl\drivers/peripheral/gpio/cy_gpio.h **** __STATIC_INLINE void Cy_GPIO_SetSlewRate(GPIO_PRT_Type* base, uint32_t pinNum, uint32_t value);
 563:Generated_Source\PSoC6\pdl\drivers/peripheral/gpio/cy_gpio.h **** __STATIC_INLINE uint32_t Cy_GPIO_GetSlewRate(GPIO_PRT_Type* base, uint32_t pinNum);
 564:Generated_Source\PSoC6\pdl\drivers/peripheral/gpio/cy_gpio.h **** __STATIC_INLINE void Cy_GPIO_SetDriveSel(GPIO_PRT_Type* base, uint32_t pinNum, uint32_t value);
 565:Generated_Source\PSoC6\pdl\drivers/peripheral/gpio/cy_gpio.h **** __STATIC_INLINE uint32_t Cy_GPIO_GetDriveSel(GPIO_PRT_Type* base, uint32_t pinNum);
 566:Generated_Source\PSoC6\pdl\drivers/peripheral/gpio/cy_gpio.h **** 
 567:Generated_Source\PSoC6\pdl\drivers/peripheral/gpio/cy_gpio.h **** /** \} group_gpio_functions_gpio */
 568:Generated_Source\PSoC6\pdl\drivers/peripheral/gpio/cy_gpio.h **** 
 569:Generated_Source\PSoC6\pdl\drivers/peripheral/gpio/cy_gpio.h **** /**
 570:Generated_Source\PSoC6\pdl\drivers/peripheral/gpio/cy_gpio.h **** * \addtogroup group_gpio_functions_sio
ARM GAS  C:\Users\xhuli\AppData\Local\Temp\ccrNCJrA.s 			page 55


 571:Generated_Source\PSoC6\pdl\drivers/peripheral/gpio/cy_gpio.h **** * \{
 572:Generated_Source\PSoC6\pdl\drivers/peripheral/gpio/cy_gpio.h **** */
 573:Generated_Source\PSoC6\pdl\drivers/peripheral/gpio/cy_gpio.h **** 
 574:Generated_Source\PSoC6\pdl\drivers/peripheral/gpio/cy_gpio.h **** __STATIC_INLINE void Cy_GPIO_SetVregEn(GPIO_PRT_Type* base, uint32_t pinNum, uint32_t value);
 575:Generated_Source\PSoC6\pdl\drivers/peripheral/gpio/cy_gpio.h **** __STATIC_INLINE uint32_t Cy_GPIO_GetVregEn(GPIO_PRT_Type* base, uint32_t pinNum);
 576:Generated_Source\PSoC6\pdl\drivers/peripheral/gpio/cy_gpio.h **** __STATIC_INLINE void Cy_GPIO_SetIbufMode(GPIO_PRT_Type* base, uint32_t pinNum, uint32_t value);
 577:Generated_Source\PSoC6\pdl\drivers/peripheral/gpio/cy_gpio.h **** __STATIC_INLINE uint32_t Cy_GPIO_GetIbufMode(GPIO_PRT_Type* base, uint32_t pinNum);
 578:Generated_Source\PSoC6\pdl\drivers/peripheral/gpio/cy_gpio.h **** __STATIC_INLINE void Cy_GPIO_SetVtripSel(GPIO_PRT_Type* base, uint32_t pinNum, uint32_t value);
 579:Generated_Source\PSoC6\pdl\drivers/peripheral/gpio/cy_gpio.h **** __STATIC_INLINE uint32_t Cy_GPIO_GetVtripSel(GPIO_PRT_Type* base, uint32_t pinNum);
 580:Generated_Source\PSoC6\pdl\drivers/peripheral/gpio/cy_gpio.h **** __STATIC_INLINE void Cy_GPIO_SetVrefSel(GPIO_PRT_Type* base, uint32_t pinNum, uint32_t value);
 581:Generated_Source\PSoC6\pdl\drivers/peripheral/gpio/cy_gpio.h **** __STATIC_INLINE uint32_t Cy_GPIO_GetVrefSel(GPIO_PRT_Type* base, uint32_t pinNum);
 582:Generated_Source\PSoC6\pdl\drivers/peripheral/gpio/cy_gpio.h **** __STATIC_INLINE void Cy_GPIO_SetVohSel(GPIO_PRT_Type* base, uint32_t pinNum, uint32_t value);
 583:Generated_Source\PSoC6\pdl\drivers/peripheral/gpio/cy_gpio.h **** __STATIC_INLINE uint32_t Cy_GPIO_GetVohSel(GPIO_PRT_Type* base, uint32_t pinNum);
 584:Generated_Source\PSoC6\pdl\drivers/peripheral/gpio/cy_gpio.h **** 
 585:Generated_Source\PSoC6\pdl\drivers/peripheral/gpio/cy_gpio.h **** /** \} group_gpio_functions_sio */
 586:Generated_Source\PSoC6\pdl\drivers/peripheral/gpio/cy_gpio.h **** 
 587:Generated_Source\PSoC6\pdl\drivers/peripheral/gpio/cy_gpio.h **** /**
 588:Generated_Source\PSoC6\pdl\drivers/peripheral/gpio/cy_gpio.h **** * \addtogroup group_gpio_functions_interrupt
 589:Generated_Source\PSoC6\pdl\drivers/peripheral/gpio/cy_gpio.h **** * \{
 590:Generated_Source\PSoC6\pdl\drivers/peripheral/gpio/cy_gpio.h **** */
 591:Generated_Source\PSoC6\pdl\drivers/peripheral/gpio/cy_gpio.h **** 
 592:Generated_Source\PSoC6\pdl\drivers/peripheral/gpio/cy_gpio.h **** __STATIC_INLINE uint32_t Cy_GPIO_GetInterruptStatus(GPIO_PRT_Type* base, uint32_t pinNum);
 593:Generated_Source\PSoC6\pdl\drivers/peripheral/gpio/cy_gpio.h **** __STATIC_INLINE void Cy_GPIO_ClearInterrupt(GPIO_PRT_Type* base, uint32_t pinNum);
 594:Generated_Source\PSoC6\pdl\drivers/peripheral/gpio/cy_gpio.h **** __STATIC_INLINE void Cy_GPIO_SetInterruptMask(GPIO_PRT_Type* base, uint32_t pinNum, uint32_t value)
 595:Generated_Source\PSoC6\pdl\drivers/peripheral/gpio/cy_gpio.h **** __STATIC_INLINE uint32_t Cy_GPIO_GetInterruptMask(GPIO_PRT_Type* base, uint32_t pinNum);
 596:Generated_Source\PSoC6\pdl\drivers/peripheral/gpio/cy_gpio.h **** __STATIC_INLINE uint32_t Cy_GPIO_GetInterruptStatusMasked(GPIO_PRT_Type* base, uint32_t pinNum);
 597:Generated_Source\PSoC6\pdl\drivers/peripheral/gpio/cy_gpio.h **** __STATIC_INLINE void Cy_GPIO_SetSwInterrupt(GPIO_PRT_Type* base, uint32_t pinNum);
 598:Generated_Source\PSoC6\pdl\drivers/peripheral/gpio/cy_gpio.h **** __STATIC_INLINE void Cy_GPIO_SetInterruptEdge(GPIO_PRT_Type* base, uint32_t pinNum, uint32_t value)
 599:Generated_Source\PSoC6\pdl\drivers/peripheral/gpio/cy_gpio.h **** __STATIC_INLINE uint32_t Cy_GPIO_GetInterruptEdge(GPIO_PRT_Type* base, uint32_t pinNum);
 600:Generated_Source\PSoC6\pdl\drivers/peripheral/gpio/cy_gpio.h **** __STATIC_INLINE void Cy_GPIO_SetFilter(GPIO_PRT_Type* base, uint32_t value);
 601:Generated_Source\PSoC6\pdl\drivers/peripheral/gpio/cy_gpio.h **** __STATIC_INLINE uint32_t Cy_GPIO_GetFilter(GPIO_PRT_Type* base);
 602:Generated_Source\PSoC6\pdl\drivers/peripheral/gpio/cy_gpio.h **** 
 603:Generated_Source\PSoC6\pdl\drivers/peripheral/gpio/cy_gpio.h **** __STATIC_INLINE uint32_t Cy_GPIO_GetInterruptCause0(void);
 604:Generated_Source\PSoC6\pdl\drivers/peripheral/gpio/cy_gpio.h **** __STATIC_INLINE uint32_t Cy_GPIO_GetInterruptCause1(void);
 605:Generated_Source\PSoC6\pdl\drivers/peripheral/gpio/cy_gpio.h **** __STATIC_INLINE uint32_t Cy_GPIO_GetInterruptCause2(void);
 606:Generated_Source\PSoC6\pdl\drivers/peripheral/gpio/cy_gpio.h **** __STATIC_INLINE uint32_t Cy_GPIO_GetInterruptCause3(void);
 607:Generated_Source\PSoC6\pdl\drivers/peripheral/gpio/cy_gpio.h **** 
 608:Generated_Source\PSoC6\pdl\drivers/peripheral/gpio/cy_gpio.h **** /** \} group_gpio_functions_interrupt */
 609:Generated_Source\PSoC6\pdl\drivers/peripheral/gpio/cy_gpio.h **** 
 610:Generated_Source\PSoC6\pdl\drivers/peripheral/gpio/cy_gpio.h **** 
 611:Generated_Source\PSoC6\pdl\drivers/peripheral/gpio/cy_gpio.h **** /**
 612:Generated_Source\PSoC6\pdl\drivers/peripheral/gpio/cy_gpio.h **** * \addtogroup group_gpio_functions_init
 613:Generated_Source\PSoC6\pdl\drivers/peripheral/gpio/cy_gpio.h **** * \{
 614:Generated_Source\PSoC6\pdl\drivers/peripheral/gpio/cy_gpio.h **** */
 615:Generated_Source\PSoC6\pdl\drivers/peripheral/gpio/cy_gpio.h **** 
 616:Generated_Source\PSoC6\pdl\drivers/peripheral/gpio/cy_gpio.h **** /*******************************************************************************
 617:Generated_Source\PSoC6\pdl\drivers/peripheral/gpio/cy_gpio.h **** * Function Name: Cy_GPIO_SetHSIOM
 618:Generated_Source\PSoC6\pdl\drivers/peripheral/gpio/cy_gpio.h **** ****************************************************************************//**
 619:Generated_Source\PSoC6\pdl\drivers/peripheral/gpio/cy_gpio.h **** *
 620:Generated_Source\PSoC6\pdl\drivers/peripheral/gpio/cy_gpio.h **** * Configures the HSIOM connection to the pin.
 621:Generated_Source\PSoC6\pdl\drivers/peripheral/gpio/cy_gpio.h **** *
 622:Generated_Source\PSoC6\pdl\drivers/peripheral/gpio/cy_gpio.h **** * Connects the specified High-Speed Input Output Multiplexer (HSIOM) selection
 623:Generated_Source\PSoC6\pdl\drivers/peripheral/gpio/cy_gpio.h **** * to the pin.
 624:Generated_Source\PSoC6\pdl\drivers/peripheral/gpio/cy_gpio.h **** *
 625:Generated_Source\PSoC6\pdl\drivers/peripheral/gpio/cy_gpio.h **** * \param base
 626:Generated_Source\PSoC6\pdl\drivers/peripheral/gpio/cy_gpio.h **** * Pointer to the pin's port register base address
 627:Generated_Source\PSoC6\pdl\drivers/peripheral/gpio/cy_gpio.h **** *
ARM GAS  C:\Users\xhuli\AppData\Local\Temp\ccrNCJrA.s 			page 56


 628:Generated_Source\PSoC6\pdl\drivers/peripheral/gpio/cy_gpio.h **** * \param pinNum
 629:Generated_Source\PSoC6\pdl\drivers/peripheral/gpio/cy_gpio.h **** * Position of the pin bit-field within the port register
 630:Generated_Source\PSoC6\pdl\drivers/peripheral/gpio/cy_gpio.h **** *
 631:Generated_Source\PSoC6\pdl\drivers/peripheral/gpio/cy_gpio.h **** * \param value
 632:Generated_Source\PSoC6\pdl\drivers/peripheral/gpio/cy_gpio.h **** * HSIOM input selection
 633:Generated_Source\PSoC6\pdl\drivers/peripheral/gpio/cy_gpio.h **** *
 634:Generated_Source\PSoC6\pdl\drivers/peripheral/gpio/cy_gpio.h **** * \note 
 635:Generated_Source\PSoC6\pdl\drivers/peripheral/gpio/cy_gpio.h **** * This function modifies a port register in a read-modify-write operation. It is
 636:Generated_Source\PSoC6\pdl\drivers/peripheral/gpio/cy_gpio.h **** * not thread safe as the resource is shared among multiple pins on a port.
 637:Generated_Source\PSoC6\pdl\drivers/peripheral/gpio/cy_gpio.h **** *
 638:Generated_Source\PSoC6\pdl\drivers/peripheral/gpio/cy_gpio.h **** * \funcusage
 639:Generated_Source\PSoC6\pdl\drivers/peripheral/gpio/cy_gpio.h **** * \snippet gpio/gpio_v1_10_sut_01.cydsn/main_cm4.c snippet_Cy_GPIO_SetHSIOM
 640:Generated_Source\PSoC6\pdl\drivers/peripheral/gpio/cy_gpio.h **** *
 641:Generated_Source\PSoC6\pdl\drivers/peripheral/gpio/cy_gpio.h **** *******************************************************************************/
 642:Generated_Source\PSoC6\pdl\drivers/peripheral/gpio/cy_gpio.h **** __STATIC_INLINE void Cy_GPIO_SetHSIOM(GPIO_PRT_Type* base, uint32_t pinNum, en_hsiom_sel_t value)
 643:Generated_Source\PSoC6\pdl\drivers/peripheral/gpio/cy_gpio.h **** {
 644:Generated_Source\PSoC6\pdl\drivers/peripheral/gpio/cy_gpio.h ****     uint32_t portNum;
 645:Generated_Source\PSoC6\pdl\drivers/peripheral/gpio/cy_gpio.h ****     uint32_t tempReg;
 646:Generated_Source\PSoC6\pdl\drivers/peripheral/gpio/cy_gpio.h ****     HSIOM_PRT_V1_Type* portAddrHSIOM;
 647:Generated_Source\PSoC6\pdl\drivers/peripheral/gpio/cy_gpio.h **** 
 648:Generated_Source\PSoC6\pdl\drivers/peripheral/gpio/cy_gpio.h ****     CY_ASSERT_L2(CY_GPIO_IS_PIN_VALID(pinNum));
 649:Generated_Source\PSoC6\pdl\drivers/peripheral/gpio/cy_gpio.h ****     CY_ASSERT_L2(CY_GPIO_IS_HSIOM_VALID(value));
 650:Generated_Source\PSoC6\pdl\drivers/peripheral/gpio/cy_gpio.h **** 
 651:Generated_Source\PSoC6\pdl\drivers/peripheral/gpio/cy_gpio.h ****     portNum = ((uint32_t)(base) - CY_GPIO_BASE) / GPIO_PRT_SECTION_SIZE;
 652:Generated_Source\PSoC6\pdl\drivers/peripheral/gpio/cy_gpio.h ****     portAddrHSIOM = (HSIOM_PRT_V1_Type*)(CY_HSIOM_BASE + (HSIOM_PRT_SECTION_SIZE * portNum));
 653:Generated_Source\PSoC6\pdl\drivers/peripheral/gpio/cy_gpio.h **** 
 654:Generated_Source\PSoC6\pdl\drivers/peripheral/gpio/cy_gpio.h ****     if(pinNum < CY_GPIO_PRT_HALF)
 655:Generated_Source\PSoC6\pdl\drivers/peripheral/gpio/cy_gpio.h ****     {
 656:Generated_Source\PSoC6\pdl\drivers/peripheral/gpio/cy_gpio.h ****         tempReg = HSIOM_PRT_PORT_SEL0(portAddrHSIOM) & ~(CY_GPIO_HSIOM_MASK << (pinNum << CY_GPIO_H
 657:Generated_Source\PSoC6\pdl\drivers/peripheral/gpio/cy_gpio.h ****         HSIOM_PRT_PORT_SEL0(portAddrHSIOM) = tempReg | ((value & CY_GPIO_HSIOM_MASK) << (pinNum << 
 658:Generated_Source\PSoC6\pdl\drivers/peripheral/gpio/cy_gpio.h ****     }
 659:Generated_Source\PSoC6\pdl\drivers/peripheral/gpio/cy_gpio.h ****     else
 660:Generated_Source\PSoC6\pdl\drivers/peripheral/gpio/cy_gpio.h ****     {
 661:Generated_Source\PSoC6\pdl\drivers/peripheral/gpio/cy_gpio.h ****         pinNum -= CY_GPIO_PRT_HALF;
 662:Generated_Source\PSoC6\pdl\drivers/peripheral/gpio/cy_gpio.h ****         tempReg = HSIOM_PRT_PORT_SEL1(portAddrHSIOM) & ~(CY_GPIO_HSIOM_MASK << (pinNum << CY_GPIO_H
 663:Generated_Source\PSoC6\pdl\drivers/peripheral/gpio/cy_gpio.h ****         HSIOM_PRT_PORT_SEL1(portAddrHSIOM) = tempReg | ((value & CY_GPIO_HSIOM_MASK) << (pinNum << 
 664:Generated_Source\PSoC6\pdl\drivers/peripheral/gpio/cy_gpio.h ****     }
 665:Generated_Source\PSoC6\pdl\drivers/peripheral/gpio/cy_gpio.h **** }
 666:Generated_Source\PSoC6\pdl\drivers/peripheral/gpio/cy_gpio.h **** 
 667:Generated_Source\PSoC6\pdl\drivers/peripheral/gpio/cy_gpio.h **** 
 668:Generated_Source\PSoC6\pdl\drivers/peripheral/gpio/cy_gpio.h **** /*******************************************************************************
 669:Generated_Source\PSoC6\pdl\drivers/peripheral/gpio/cy_gpio.h **** * Function Name: Cy_GPIO_GetHSIOM
 670:Generated_Source\PSoC6\pdl\drivers/peripheral/gpio/cy_gpio.h **** ****************************************************************************//**
 671:Generated_Source\PSoC6\pdl\drivers/peripheral/gpio/cy_gpio.h **** *
 672:Generated_Source\PSoC6\pdl\drivers/peripheral/gpio/cy_gpio.h **** * Returns the current HSIOM multiplexer connection to the pin.
 673:Generated_Source\PSoC6\pdl\drivers/peripheral/gpio/cy_gpio.h **** *
 674:Generated_Source\PSoC6\pdl\drivers/peripheral/gpio/cy_gpio.h **** * \param base
 675:Generated_Source\PSoC6\pdl\drivers/peripheral/gpio/cy_gpio.h **** * Pointer to the pin's port register base address
 676:Generated_Source\PSoC6\pdl\drivers/peripheral/gpio/cy_gpio.h **** *
 677:Generated_Source\PSoC6\pdl\drivers/peripheral/gpio/cy_gpio.h **** * \param pinNum
 678:Generated_Source\PSoC6\pdl\drivers/peripheral/gpio/cy_gpio.h **** * Position of the pin bit-field within the port register
 679:Generated_Source\PSoC6\pdl\drivers/peripheral/gpio/cy_gpio.h **** *
 680:Generated_Source\PSoC6\pdl\drivers/peripheral/gpio/cy_gpio.h **** * \return
 681:Generated_Source\PSoC6\pdl\drivers/peripheral/gpio/cy_gpio.h **** * HSIOM input selection
 682:Generated_Source\PSoC6\pdl\drivers/peripheral/gpio/cy_gpio.h **** *
 683:Generated_Source\PSoC6\pdl\drivers/peripheral/gpio/cy_gpio.h **** * \funcusage
 684:Generated_Source\PSoC6\pdl\drivers/peripheral/gpio/cy_gpio.h **** * \snippet gpio/gpio_v1_10_sut_01.cydsn/main_cm4.c snippet_Cy_GPIO_SetHSIOM
ARM GAS  C:\Users\xhuli\AppData\Local\Temp\ccrNCJrA.s 			page 57


 685:Generated_Source\PSoC6\pdl\drivers/peripheral/gpio/cy_gpio.h **** *
 686:Generated_Source\PSoC6\pdl\drivers/peripheral/gpio/cy_gpio.h **** *******************************************************************************/
 687:Generated_Source\PSoC6\pdl\drivers/peripheral/gpio/cy_gpio.h **** __STATIC_INLINE en_hsiom_sel_t Cy_GPIO_GetHSIOM(GPIO_PRT_Type* base, uint32_t pinNum)
 688:Generated_Source\PSoC6\pdl\drivers/peripheral/gpio/cy_gpio.h **** {
 689:Generated_Source\PSoC6\pdl\drivers/peripheral/gpio/cy_gpio.h ****     uint32_t returnValue;
 690:Generated_Source\PSoC6\pdl\drivers/peripheral/gpio/cy_gpio.h ****     uint32_t portNum;
 691:Generated_Source\PSoC6\pdl\drivers/peripheral/gpio/cy_gpio.h ****     HSIOM_PRT_V1_Type* portAddrHSIOM;
 692:Generated_Source\PSoC6\pdl\drivers/peripheral/gpio/cy_gpio.h ****     
 693:Generated_Source\PSoC6\pdl\drivers/peripheral/gpio/cy_gpio.h ****     CY_ASSERT_L2(CY_GPIO_IS_PIN_VALID(pinNum));
 694:Generated_Source\PSoC6\pdl\drivers/peripheral/gpio/cy_gpio.h **** 
 695:Generated_Source\PSoC6\pdl\drivers/peripheral/gpio/cy_gpio.h ****     portNum = ((uint32_t)(base) - CY_GPIO_BASE) / GPIO_PRT_SECTION_SIZE;
 696:Generated_Source\PSoC6\pdl\drivers/peripheral/gpio/cy_gpio.h ****     portAddrHSIOM = (HSIOM_PRT_V1_Type*)(CY_HSIOM_BASE + (HSIOM_PRT_SECTION_SIZE * portNum));
 697:Generated_Source\PSoC6\pdl\drivers/peripheral/gpio/cy_gpio.h **** 
 698:Generated_Source\PSoC6\pdl\drivers/peripheral/gpio/cy_gpio.h ****     if(pinNum < CY_GPIO_PRT_HALF)
 699:Generated_Source\PSoC6\pdl\drivers/peripheral/gpio/cy_gpio.h ****     {
 700:Generated_Source\PSoC6\pdl\drivers/peripheral/gpio/cy_gpio.h ****         returnValue = (HSIOM_PRT_PORT_SEL0(portAddrHSIOM) >> (pinNum << CY_GPIO_HSIOM_OFFSET)) & CY
 701:Generated_Source\PSoC6\pdl\drivers/peripheral/gpio/cy_gpio.h ****     }
 702:Generated_Source\PSoC6\pdl\drivers/peripheral/gpio/cy_gpio.h ****     else
 703:Generated_Source\PSoC6\pdl\drivers/peripheral/gpio/cy_gpio.h ****     {
 704:Generated_Source\PSoC6\pdl\drivers/peripheral/gpio/cy_gpio.h ****         pinNum -= CY_GPIO_PRT_HALF;
 705:Generated_Source\PSoC6\pdl\drivers/peripheral/gpio/cy_gpio.h ****         returnValue = (HSIOM_PRT_PORT_SEL1(portAddrHSIOM) >> (pinNum << CY_GPIO_HSIOM_OFFSET)) & CY
 706:Generated_Source\PSoC6\pdl\drivers/peripheral/gpio/cy_gpio.h ****     }
 707:Generated_Source\PSoC6\pdl\drivers/peripheral/gpio/cy_gpio.h **** 
 708:Generated_Source\PSoC6\pdl\drivers/peripheral/gpio/cy_gpio.h ****     return (en_hsiom_sel_t)returnValue;
 709:Generated_Source\PSoC6\pdl\drivers/peripheral/gpio/cy_gpio.h **** }
 710:Generated_Source\PSoC6\pdl\drivers/peripheral/gpio/cy_gpio.h **** 
 711:Generated_Source\PSoC6\pdl\drivers/peripheral/gpio/cy_gpio.h **** 
 712:Generated_Source\PSoC6\pdl\drivers/peripheral/gpio/cy_gpio.h **** /*******************************************************************************
 713:Generated_Source\PSoC6\pdl\drivers/peripheral/gpio/cy_gpio.h **** * Function Name: Cy_GPIO_PortToAddr
 714:Generated_Source\PSoC6\pdl\drivers/peripheral/gpio/cy_gpio.h **** ****************************************************************************//**
 715:Generated_Source\PSoC6\pdl\drivers/peripheral/gpio/cy_gpio.h **** *
 716:Generated_Source\PSoC6\pdl\drivers/peripheral/gpio/cy_gpio.h **** * Retrieves the port address based on the given port number.
 717:Generated_Source\PSoC6\pdl\drivers/peripheral/gpio/cy_gpio.h **** *
 718:Generated_Source\PSoC6\pdl\drivers/peripheral/gpio/cy_gpio.h **** * This is a helper function to calculate the port base address when given a port
 719:Generated_Source\PSoC6\pdl\drivers/peripheral/gpio/cy_gpio.h **** * number. It is to be used when pin access needs to be calculated at runtime.
 720:Generated_Source\PSoC6\pdl\drivers/peripheral/gpio/cy_gpio.h **** *
 721:Generated_Source\PSoC6\pdl\drivers/peripheral/gpio/cy_gpio.h **** * \param portNum
 722:Generated_Source\PSoC6\pdl\drivers/peripheral/gpio/cy_gpio.h **** * Port number
 723:Generated_Source\PSoC6\pdl\drivers/peripheral/gpio/cy_gpio.h **** *
 724:Generated_Source\PSoC6\pdl\drivers/peripheral/gpio/cy_gpio.h **** * \return
 725:Generated_Source\PSoC6\pdl\drivers/peripheral/gpio/cy_gpio.h **** * Base address of the port register structure
 726:Generated_Source\PSoC6\pdl\drivers/peripheral/gpio/cy_gpio.h **** *
 727:Generated_Source\PSoC6\pdl\drivers/peripheral/gpio/cy_gpio.h **** * \funcusage
 728:Generated_Source\PSoC6\pdl\drivers/peripheral/gpio/cy_gpio.h **** * \snippet gpio/gpio_v1_10_sut_01.cydsn/main_cm4.c snippet_Cy_GPIO_PortToAddr
 729:Generated_Source\PSoC6\pdl\drivers/peripheral/gpio/cy_gpio.h **** *
 730:Generated_Source\PSoC6\pdl\drivers/peripheral/gpio/cy_gpio.h **** *******************************************************************************/
 731:Generated_Source\PSoC6\pdl\drivers/peripheral/gpio/cy_gpio.h **** __STATIC_INLINE GPIO_PRT_Type* Cy_GPIO_PortToAddr(uint32_t portNum)
 732:Generated_Source\PSoC6\pdl\drivers/peripheral/gpio/cy_gpio.h **** {
 733:Generated_Source\PSoC6\pdl\drivers/peripheral/gpio/cy_gpio.h ****     GPIO_PRT_Type* portBase;
 734:Generated_Source\PSoC6\pdl\drivers/peripheral/gpio/cy_gpio.h ****     
 735:Generated_Source\PSoC6\pdl\drivers/peripheral/gpio/cy_gpio.h ****     if(portNum < (uint32_t)IOSS_GPIO_GPIO_PORT_NR)
 736:Generated_Source\PSoC6\pdl\drivers/peripheral/gpio/cy_gpio.h ****     {
 737:Generated_Source\PSoC6\pdl\drivers/peripheral/gpio/cy_gpio.h ****         portBase = (GPIO_PRT_Type *)(CY_GPIO_BASE + (GPIO_PRT_SECTION_SIZE * portNum));
 738:Generated_Source\PSoC6\pdl\drivers/peripheral/gpio/cy_gpio.h ****     }
 739:Generated_Source\PSoC6\pdl\drivers/peripheral/gpio/cy_gpio.h ****     else
 740:Generated_Source\PSoC6\pdl\drivers/peripheral/gpio/cy_gpio.h ****     {
 741:Generated_Source\PSoC6\pdl\drivers/peripheral/gpio/cy_gpio.h ****         /* Error: Return default base address */
ARM GAS  C:\Users\xhuli\AppData\Local\Temp\ccrNCJrA.s 			page 58


 742:Generated_Source\PSoC6\pdl\drivers/peripheral/gpio/cy_gpio.h ****         portBase = (GPIO_PRT_Type *)(CY_GPIO_BASE);
 743:Generated_Source\PSoC6\pdl\drivers/peripheral/gpio/cy_gpio.h ****     }
 744:Generated_Source\PSoC6\pdl\drivers/peripheral/gpio/cy_gpio.h **** 
 745:Generated_Source\PSoC6\pdl\drivers/peripheral/gpio/cy_gpio.h ****     return (portBase);
 746:Generated_Source\PSoC6\pdl\drivers/peripheral/gpio/cy_gpio.h **** }
 747:Generated_Source\PSoC6\pdl\drivers/peripheral/gpio/cy_gpio.h **** 
 748:Generated_Source\PSoC6\pdl\drivers/peripheral/gpio/cy_gpio.h **** /** \} group_gpio_functions_init */
 749:Generated_Source\PSoC6\pdl\drivers/peripheral/gpio/cy_gpio.h **** 
 750:Generated_Source\PSoC6\pdl\drivers/peripheral/gpio/cy_gpio.h **** /**
 751:Generated_Source\PSoC6\pdl\drivers/peripheral/gpio/cy_gpio.h **** * \addtogroup group_gpio_functions_gpio
 752:Generated_Source\PSoC6\pdl\drivers/peripheral/gpio/cy_gpio.h **** * \{
 753:Generated_Source\PSoC6\pdl\drivers/peripheral/gpio/cy_gpio.h **** */
 754:Generated_Source\PSoC6\pdl\drivers/peripheral/gpio/cy_gpio.h **** 
 755:Generated_Source\PSoC6\pdl\drivers/peripheral/gpio/cy_gpio.h **** /*******************************************************************************
 756:Generated_Source\PSoC6\pdl\drivers/peripheral/gpio/cy_gpio.h **** * Function Name: Cy_GPIO_Read
 757:Generated_Source\PSoC6\pdl\drivers/peripheral/gpio/cy_gpio.h **** ****************************************************************************//**
 758:Generated_Source\PSoC6\pdl\drivers/peripheral/gpio/cy_gpio.h **** *
 759:Generated_Source\PSoC6\pdl\drivers/peripheral/gpio/cy_gpio.h **** * Reads the current logic level on the input buffer of the pin.
 760:Generated_Source\PSoC6\pdl\drivers/peripheral/gpio/cy_gpio.h **** *
 761:Generated_Source\PSoC6\pdl\drivers/peripheral/gpio/cy_gpio.h **** * \param base
 762:Generated_Source\PSoC6\pdl\drivers/peripheral/gpio/cy_gpio.h **** * Pointer to the pin's port register base address
 763:Generated_Source\PSoC6\pdl\drivers/peripheral/gpio/cy_gpio.h **** *
 764:Generated_Source\PSoC6\pdl\drivers/peripheral/gpio/cy_gpio.h **** * \param pinNum
 765:Generated_Source\PSoC6\pdl\drivers/peripheral/gpio/cy_gpio.h **** * Position of the pin bit-field within the port register.
 766:Generated_Source\PSoC6\pdl\drivers/peripheral/gpio/cy_gpio.h **** * Bit position 8 is the routed pin through the port glitch filter.
 767:Generated_Source\PSoC6\pdl\drivers/peripheral/gpio/cy_gpio.h **** *
 768:Generated_Source\PSoC6\pdl\drivers/peripheral/gpio/cy_gpio.h **** * \return
 769:Generated_Source\PSoC6\pdl\drivers/peripheral/gpio/cy_gpio.h **** * Logic level present on the pin
 770:Generated_Source\PSoC6\pdl\drivers/peripheral/gpio/cy_gpio.h **** *
 771:Generated_Source\PSoC6\pdl\drivers/peripheral/gpio/cy_gpio.h **** * \funcusage
 772:Generated_Source\PSoC6\pdl\drivers/peripheral/gpio/cy_gpio.h **** * \snippet gpio/gpio_v1_10_sut_01.cydsn/main_cm4.c snippet_Cy_GPIO_Read
 773:Generated_Source\PSoC6\pdl\drivers/peripheral/gpio/cy_gpio.h **** *
 774:Generated_Source\PSoC6\pdl\drivers/peripheral/gpio/cy_gpio.h **** *******************************************************************************/
 775:Generated_Source\PSoC6\pdl\drivers/peripheral/gpio/cy_gpio.h **** __STATIC_INLINE uint32_t Cy_GPIO_Read(GPIO_PRT_Type* base, uint32_t pinNum)
 776:Generated_Source\PSoC6\pdl\drivers/peripheral/gpio/cy_gpio.h **** {
 777:Generated_Source\PSoC6\pdl\drivers/peripheral/gpio/cy_gpio.h ****     CY_ASSERT_L2(CY_GPIO_IS_FILTER_PIN_VALID(pinNum));
 778:Generated_Source\PSoC6\pdl\drivers/peripheral/gpio/cy_gpio.h ****     
 779:Generated_Source\PSoC6\pdl\drivers/peripheral/gpio/cy_gpio.h ****     return (GPIO_PRT_IN(base) >> (pinNum)) & CY_GPIO_IN_MASK;
 780:Generated_Source\PSoC6\pdl\drivers/peripheral/gpio/cy_gpio.h **** }
 781:Generated_Source\PSoC6\pdl\drivers/peripheral/gpio/cy_gpio.h **** 
 782:Generated_Source\PSoC6\pdl\drivers/peripheral/gpio/cy_gpio.h **** 
 783:Generated_Source\PSoC6\pdl\drivers/peripheral/gpio/cy_gpio.h **** /*******************************************************************************
 784:Generated_Source\PSoC6\pdl\drivers/peripheral/gpio/cy_gpio.h **** * Function Name: Cy_GPIO_Write
 785:Generated_Source\PSoC6\pdl\drivers/peripheral/gpio/cy_gpio.h **** ****************************************************************************//**
 786:Generated_Source\PSoC6\pdl\drivers/peripheral/gpio/cy_gpio.h **** *
 787:Generated_Source\PSoC6\pdl\drivers/peripheral/gpio/cy_gpio.h **** * Write a logic 0 or logic 1 state to the output driver.
 788:Generated_Source\PSoC6\pdl\drivers/peripheral/gpio/cy_gpio.h **** *
 789:Generated_Source\PSoC6\pdl\drivers/peripheral/gpio/cy_gpio.h **** * This function should be used only for software driven pins. It does not have
 790:Generated_Source\PSoC6\pdl\drivers/peripheral/gpio/cy_gpio.h **** * any effect on peripheral driven pins.
 791:Generated_Source\PSoC6\pdl\drivers/peripheral/gpio/cy_gpio.h **** *
 792:Generated_Source\PSoC6\pdl\drivers/peripheral/gpio/cy_gpio.h **** * \param base
 793:Generated_Source\PSoC6\pdl\drivers/peripheral/gpio/cy_gpio.h **** * Pointer to the pin's port register base address
 794:Generated_Source\PSoC6\pdl\drivers/peripheral/gpio/cy_gpio.h **** *
 795:Generated_Source\PSoC6\pdl\drivers/peripheral/gpio/cy_gpio.h **** * \param pinNum
 796:Generated_Source\PSoC6\pdl\drivers/peripheral/gpio/cy_gpio.h **** * Position of the pin bit-field within the port register
 797:Generated_Source\PSoC6\pdl\drivers/peripheral/gpio/cy_gpio.h **** *
 798:Generated_Source\PSoC6\pdl\drivers/peripheral/gpio/cy_gpio.h **** * \param value
ARM GAS  C:\Users\xhuli\AppData\Local\Temp\ccrNCJrA.s 			page 59


 799:Generated_Source\PSoC6\pdl\drivers/peripheral/gpio/cy_gpio.h **** * Logic level to drive out on the pin
 800:Generated_Source\PSoC6\pdl\drivers/peripheral/gpio/cy_gpio.h **** *
 801:Generated_Source\PSoC6\pdl\drivers/peripheral/gpio/cy_gpio.h **** * \funcusage
 802:Generated_Source\PSoC6\pdl\drivers/peripheral/gpio/cy_gpio.h **** * \snippet gpio/gpio_v1_10_sut_01.cydsn/main_cm4.c snippet_Cy_GPIO_Write
 803:Generated_Source\PSoC6\pdl\drivers/peripheral/gpio/cy_gpio.h **** *
 804:Generated_Source\PSoC6\pdl\drivers/peripheral/gpio/cy_gpio.h **** *******************************************************************************/
 805:Generated_Source\PSoC6\pdl\drivers/peripheral/gpio/cy_gpio.h **** __STATIC_INLINE void Cy_GPIO_Write(GPIO_PRT_Type* base, uint32_t pinNum, uint32_t value)
 806:Generated_Source\PSoC6\pdl\drivers/peripheral/gpio/cy_gpio.h **** {
 807:Generated_Source\PSoC6\pdl\drivers/peripheral/gpio/cy_gpio.h ****     CY_ASSERT_L2(CY_GPIO_IS_PIN_VALID(pinNum));
 808:Generated_Source\PSoC6\pdl\drivers/peripheral/gpio/cy_gpio.h ****     CY_ASSERT_L2(CY_GPIO_IS_VALUE_VALID(value));
 809:Generated_Source\PSoC6\pdl\drivers/peripheral/gpio/cy_gpio.h **** 
 810:Generated_Source\PSoC6\pdl\drivers/peripheral/gpio/cy_gpio.h ****     /* Thread-safe: Directly access the pin registers instead of base->OUT */
 811:Generated_Source\PSoC6\pdl\drivers/peripheral/gpio/cy_gpio.h ****     if(0UL == value)
 812:Generated_Source\PSoC6\pdl\drivers/peripheral/gpio/cy_gpio.h ****     {
 813:Generated_Source\PSoC6\pdl\drivers/peripheral/gpio/cy_gpio.h ****         GPIO_PRT_OUT_CLR(base) = CY_GPIO_OUT_MASK << pinNum;
 814:Generated_Source\PSoC6\pdl\drivers/peripheral/gpio/cy_gpio.h ****     }
 815:Generated_Source\PSoC6\pdl\drivers/peripheral/gpio/cy_gpio.h ****     else
 816:Generated_Source\PSoC6\pdl\drivers/peripheral/gpio/cy_gpio.h ****     {
 817:Generated_Source\PSoC6\pdl\drivers/peripheral/gpio/cy_gpio.h ****         GPIO_PRT_OUT_SET(base) = CY_GPIO_OUT_MASK << pinNum;
 818:Generated_Source\PSoC6\pdl\drivers/peripheral/gpio/cy_gpio.h ****     }
 819:Generated_Source\PSoC6\pdl\drivers/peripheral/gpio/cy_gpio.h **** }
 820:Generated_Source\PSoC6\pdl\drivers/peripheral/gpio/cy_gpio.h **** 
 821:Generated_Source\PSoC6\pdl\drivers/peripheral/gpio/cy_gpio.h **** 
 822:Generated_Source\PSoC6\pdl\drivers/peripheral/gpio/cy_gpio.h **** /*******************************************************************************
 823:Generated_Source\PSoC6\pdl\drivers/peripheral/gpio/cy_gpio.h **** * Function Name: Cy_GPIO_ReadOut
 824:Generated_Source\PSoC6\pdl\drivers/peripheral/gpio/cy_gpio.h **** ****************************************************************************//**
 825:Generated_Source\PSoC6\pdl\drivers/peripheral/gpio/cy_gpio.h **** *
 826:Generated_Source\PSoC6\pdl\drivers/peripheral/gpio/cy_gpio.h **** * Reads the current logic level on the pin output driver.
 827:Generated_Source\PSoC6\pdl\drivers/peripheral/gpio/cy_gpio.h **** *
 828:Generated_Source\PSoC6\pdl\drivers/peripheral/gpio/cy_gpio.h **** * \param base
 829:Generated_Source\PSoC6\pdl\drivers/peripheral/gpio/cy_gpio.h **** * Pointer to the pin's port register base address
 830:Generated_Source\PSoC6\pdl\drivers/peripheral/gpio/cy_gpio.h **** *
 831:Generated_Source\PSoC6\pdl\drivers/peripheral/gpio/cy_gpio.h **** * \param pinNum
 832:Generated_Source\PSoC6\pdl\drivers/peripheral/gpio/cy_gpio.h **** * Position of the pin bit-field within the port register
 833:Generated_Source\PSoC6\pdl\drivers/peripheral/gpio/cy_gpio.h **** *
 834:Generated_Source\PSoC6\pdl\drivers/peripheral/gpio/cy_gpio.h **** * \return
 835:Generated_Source\PSoC6\pdl\drivers/peripheral/gpio/cy_gpio.h **** * Logic level on the pin output driver
 836:Generated_Source\PSoC6\pdl\drivers/peripheral/gpio/cy_gpio.h **** *
 837:Generated_Source\PSoC6\pdl\drivers/peripheral/gpio/cy_gpio.h **** * \funcusage
 838:Generated_Source\PSoC6\pdl\drivers/peripheral/gpio/cy_gpio.h **** * \snippet gpio/gpio_v1_10_sut_01.cydsn/main_cm4.c snippet_Cy_GPIO_ReadOut
 839:Generated_Source\PSoC6\pdl\drivers/peripheral/gpio/cy_gpio.h **** *
 840:Generated_Source\PSoC6\pdl\drivers/peripheral/gpio/cy_gpio.h **** *******************************************************************************/
 841:Generated_Source\PSoC6\pdl\drivers/peripheral/gpio/cy_gpio.h **** __STATIC_INLINE uint32_t Cy_GPIO_ReadOut(GPIO_PRT_Type* base, uint32_t pinNum)
 842:Generated_Source\PSoC6\pdl\drivers/peripheral/gpio/cy_gpio.h **** {
 843:Generated_Source\PSoC6\pdl\drivers/peripheral/gpio/cy_gpio.h ****     CY_ASSERT_L2(CY_GPIO_IS_PIN_VALID(pinNum));
 844:Generated_Source\PSoC6\pdl\drivers/peripheral/gpio/cy_gpio.h **** 
 845:Generated_Source\PSoC6\pdl\drivers/peripheral/gpio/cy_gpio.h ****     return (GPIO_PRT_OUT(base) >> pinNum) & CY_GPIO_OUT_MASK;
 846:Generated_Source\PSoC6\pdl\drivers/peripheral/gpio/cy_gpio.h **** }
 847:Generated_Source\PSoC6\pdl\drivers/peripheral/gpio/cy_gpio.h **** 
 848:Generated_Source\PSoC6\pdl\drivers/peripheral/gpio/cy_gpio.h **** 
 849:Generated_Source\PSoC6\pdl\drivers/peripheral/gpio/cy_gpio.h **** /*******************************************************************************
 850:Generated_Source\PSoC6\pdl\drivers/peripheral/gpio/cy_gpio.h **** * Function Name: Cy_GPIO_Set
 851:Generated_Source\PSoC6\pdl\drivers/peripheral/gpio/cy_gpio.h **** ****************************************************************************//**
 852:Generated_Source\PSoC6\pdl\drivers/peripheral/gpio/cy_gpio.h **** *
 853:Generated_Source\PSoC6\pdl\drivers/peripheral/gpio/cy_gpio.h **** * Set a pin output to logic state high.
 854:Generated_Source\PSoC6\pdl\drivers/peripheral/gpio/cy_gpio.h **** *
 855:Generated_Source\PSoC6\pdl\drivers/peripheral/gpio/cy_gpio.h **** * This function should be used only for software driven pins. It does not have
ARM GAS  C:\Users\xhuli\AppData\Local\Temp\ccrNCJrA.s 			page 60


 856:Generated_Source\PSoC6\pdl\drivers/peripheral/gpio/cy_gpio.h **** * any effect on peripheral driven pins.
 857:Generated_Source\PSoC6\pdl\drivers/peripheral/gpio/cy_gpio.h **** *
 858:Generated_Source\PSoC6\pdl\drivers/peripheral/gpio/cy_gpio.h **** * \param base
 859:Generated_Source\PSoC6\pdl\drivers/peripheral/gpio/cy_gpio.h **** * Pointer to the pin's port register base address
 860:Generated_Source\PSoC6\pdl\drivers/peripheral/gpio/cy_gpio.h **** *
 861:Generated_Source\PSoC6\pdl\drivers/peripheral/gpio/cy_gpio.h **** * \param pinNum
 862:Generated_Source\PSoC6\pdl\drivers/peripheral/gpio/cy_gpio.h **** * Position of the pin bit-field within the port register
 863:Generated_Source\PSoC6\pdl\drivers/peripheral/gpio/cy_gpio.h **** *
 864:Generated_Source\PSoC6\pdl\drivers/peripheral/gpio/cy_gpio.h **** * \funcusage
 865:Generated_Source\PSoC6\pdl\drivers/peripheral/gpio/cy_gpio.h **** * \snippet gpio/gpio_v1_10_sut_01.cydsn/main_cm4.c snippet_Cy_GPIO_Set
 866:Generated_Source\PSoC6\pdl\drivers/peripheral/gpio/cy_gpio.h **** *
 867:Generated_Source\PSoC6\pdl\drivers/peripheral/gpio/cy_gpio.h **** *******************************************************************************/
 868:Generated_Source\PSoC6\pdl\drivers/peripheral/gpio/cy_gpio.h **** __STATIC_INLINE void Cy_GPIO_Set(GPIO_PRT_Type* base, uint32_t pinNum)
 869:Generated_Source\PSoC6\pdl\drivers/peripheral/gpio/cy_gpio.h **** {
 870:Generated_Source\PSoC6\pdl\drivers/peripheral/gpio/cy_gpio.h ****     CY_ASSERT_L2(CY_GPIO_IS_PIN_VALID(pinNum));
 871:Generated_Source\PSoC6\pdl\drivers/peripheral/gpio/cy_gpio.h ****     
 872:Generated_Source\PSoC6\pdl\drivers/peripheral/gpio/cy_gpio.h ****     GPIO_PRT_OUT_SET(base) = CY_GPIO_OUT_MASK << pinNum;
 1027              		.loc 3 872 0
 1028 0006 0422     		movs	r2, #4
 1029 0008 134B     		ldr	r3, .L78
 1030 000a 9A60     		str	r2, [r3, #8]
 1031              	.LVL107:
 1032              	.LBE42:
 1033              	.LBE41:
 261:BLE_Task.c    ****         {         
 1034              		.loc 1 261 0
 1035 000c 0024     		movs	r4, #0
 1036 000e 20E0     		b	.L71
 1037              	.LVL108:
 1038              	.L76:
 263:BLE_Task.c    ****                 output = ulVal & mask_MSB;
 1039              		.loc 1 263 0
 1040 0010 012E     		cmp	r6, #1
 1041 0012 08D1     		bne	.L72
 264:BLE_Task.c    ****                 ulVal = ulVal << 1;
 1042              		.loc 1 264 0
 1043 0014 05F40043 		and	r3, r5, #32768
 1044 0018 9BB2     		uxth	r3, r3
 1045 001a 0033     		adds	r3, r3, #0
 1046 001c 18BF     		it	ne
 1047 001e 0123     		movne	r3, #1
 1048              	.LVL109:
 265:BLE_Task.c    ****             }
 1049              		.loc 1 265 0
 1050 0020 6D00     		lsls	r5, r5, #1
 1051              	.LVL110:
 1052 0022 ADB2     		uxth	r5, r5
 1053              	.LVL111:
 1054 0024 02E0     		b	.L73
 1055              	.LVL112:
 1056              	.L72:
 268:BLE_Task.c    ****                 ulVal = ulVal >> 1;
 1057              		.loc 1 268 0
 1058 0026 05F00103 		and	r3, r5, #1
 1059              	.LVL113:
 269:BLE_Task.c    ****             }
 1060              		.loc 1 269 0
ARM GAS  C:\Users\xhuli\AppData\Local\Temp\ccrNCJrA.s 			page 61


 1061 002a 6D08     		lsrs	r5, r5, #1
 1062              	.LVL114:
 1063              	.L73:
 1064              	.LBB43:
 1065              	.LBB44:
 1066              		.loc 3 872 0 discriminator 2
 1067 002c 8021     		movs	r1, #128
 1068 002e 0B4A     		ldr	r2, .L78+4
 1069 0030 9160     		str	r1, [r2, #8]
 1070              	.LVL115:
 1071              	.LBE44:
 1072              	.LBE43:
 1073              	.LBB45:
 1074              	.LBB46:
 811:Generated_Source\PSoC6\pdl\drivers/peripheral/gpio/cy_gpio.h ****     {
 1075              		.loc 3 811 0 discriminator 2
 1076 0032 1BB9     		cbnz	r3, .L74
 813:Generated_Source\PSoC6\pdl\drivers/peripheral/gpio/cy_gpio.h ****     }
 1077              		.loc 3 813 0
 1078 0034 4022     		movs	r2, #64
 1079 0036 094B     		ldr	r3, .L78+4
 1080              	.LVL116:
 1081 0038 5A60     		str	r2, [r3, #4]
 1082 003a 02E0     		b	.L75
 1083              	.LVL117:
 1084              	.L74:
 817:Generated_Source\PSoC6\pdl\drivers/peripheral/gpio/cy_gpio.h ****     }
 1085              		.loc 3 817 0
 1086 003c 4022     		movs	r2, #64
 1087 003e 074B     		ldr	r3, .L78+4
 1088              	.LVL118:
 1089 0040 9A60     		str	r2, [r3, #8]
 1090              	.L75:
 1091              	.LVL119:
 1092              	.LBE46:
 1093              	.LBE45:
 273:BLE_Task.c    ****             Cy_GPIO_Clr(CLK_PORT, CLK_NUM);
 1094              		.loc 1 273 0 discriminator 2
 1095 0042 0120     		movs	r0, #1
 1096 0044 FFF7FEFF 		bl	Cy_SysLib_Delay
 1097              	.LVL120:
 1098              	.LBB47:
 1099              	.LBB48:
 873:Generated_Source\PSoC6\pdl\drivers/peripheral/gpio/cy_gpio.h **** }
 874:Generated_Source\PSoC6\pdl\drivers/peripheral/gpio/cy_gpio.h **** 
 875:Generated_Source\PSoC6\pdl\drivers/peripheral/gpio/cy_gpio.h **** 
 876:Generated_Source\PSoC6\pdl\drivers/peripheral/gpio/cy_gpio.h **** /*******************************************************************************
 877:Generated_Source\PSoC6\pdl\drivers/peripheral/gpio/cy_gpio.h **** * Function Name: Cy_GPIO_Clr
 878:Generated_Source\PSoC6\pdl\drivers/peripheral/gpio/cy_gpio.h **** ****************************************************************************//**
 879:Generated_Source\PSoC6\pdl\drivers/peripheral/gpio/cy_gpio.h **** *
